Archive member included to satisfy reference by file (symbol)

c:/vsarm/armcc/125863~1.3re/bin/../lib/gcc/arm-none-eabi/12.3.1/thumb/v6-m/nofp\libgcc.a(_dvmd_tls.o)
                              CMakeFiles/AHT20.dir/C_/VSARM/sdk/pico/pico-sdk/src/rp2_common/pico_divider/divider.S.obj (__aeabi_idiv0)
c:/vsarm/armcc/125863~1.3re/bin/../lib/gcc/arm-none-eabi/12.3.1/thumb/v6-m/nofp\libg.a(libc_a-atoi.o)
                              CMakeFiles/AHT20.dir/C_/VSARM/sdk/pico/pico-sdk/lib/lwip/src/core/netif.c.obj (atoi)
c:/vsarm/armcc/125863~1.3re/bin/../lib/gcc/arm-none-eabi/12.3.1/thumb/v6-m/nofp\libg.a(libc_a-calloc.o)
                              CMakeFiles/AHT20.dir/C_/VSARM/sdk/pico/pico-sdk/src/rp2_common/pico_malloc/pico_malloc.c.obj (calloc)
c:/vsarm/armcc/125863~1.3re/bin/../lib/gcc/arm-none-eabi/12.3.1/thumb/v6-m/nofp\libg.a(libc_a-callocr.o)
                              c:/vsarm/armcc/125863~1.3re/bin/../lib/gcc/arm-none-eabi/12.3.1/thumb/v6-m/nofp\libg.a(libc_a-calloc.o) (_calloc_r)
c:/vsarm/armcc/125863~1.3re/bin/../lib/gcc/arm-none-eabi/12.3.1/thumb/v6-m/nofp\libg.a(libc_a-malloc.o)
                              CMakeFiles/AHT20.dir/C_/VSARM/sdk/pico/pico-sdk/src/rp2_common/pico_malloc/pico_malloc.c.obj (malloc)
c:/vsarm/armcc/125863~1.3re/bin/../lib/gcc/arm-none-eabi/12.3.1/thumb/v6-m/nofp\libg.a(libc_a-mallocr.o)
                              c:/vsarm/armcc/125863~1.3re/bin/../lib/gcc/arm-none-eabi/12.3.1/thumb/v6-m/nofp\libg.a(libc_a-callocr.o) (_malloc_r)
c:/vsarm/armcc/125863~1.3re/bin/../lib/gcc/arm-none-eabi/12.3.1/thumb/v6-m/nofp\libg.a(libc_a-mlock.o)
                              c:/vsarm/armcc/125863~1.3re/bin/../lib/gcc/arm-none-eabi/12.3.1/thumb/v6-m/nofp\libg.a(libc_a-mallocr.o) (__malloc_lock)
c:/vsarm/armcc/125863~1.3re/bin/../lib/gcc/arm-none-eabi/12.3.1/thumb/v6-m/nofp\libg.a(libc_a-realloc.o)
                              CMakeFiles/AHT20.dir/C_/VSARM/sdk/pico/pico-sdk/src/rp2_common/pico_malloc/pico_malloc.c.obj (realloc)
c:/vsarm/armcc/125863~1.3re/bin/../lib/gcc/arm-none-eabi/12.3.1/thumb/v6-m/nofp\libg.a(libc_a-reallocr.o)
                              c:/vsarm/armcc/125863~1.3re/bin/../lib/gcc/arm-none-eabi/12.3.1/thumb/v6-m/nofp\libg.a(libc_a-realloc.o) (_realloc_r)
c:/vsarm/armcc/125863~1.3re/bin/../lib/gcc/arm-none-eabi/12.3.1/thumb/v6-m/nofp\libg.a(libc_a-strtol.o)
                              c:/vsarm/armcc/125863~1.3re/bin/../lib/gcc/arm-none-eabi/12.3.1/thumb/v6-m/nofp\libg.a(libc_a-atoi.o) (_strtol_r)
c:/vsarm/armcc/125863~1.3re/bin/../lib/gcc/arm-none-eabi/12.3.1/thumb/v6-m/nofp\libg.a(libc_a-ctype_.o)
                              CMakeFiles/AHT20.dir/C_/VSARM/sdk/pico/pico-sdk/lib/lwip/src/core/dns.c.obj (_ctype_)
c:/vsarm/armcc/125863~1.3re/bin/../lib/gcc/arm-none-eabi/12.3.1/thumb/v6-m/nofp\libg.a(libc_a-memcmp.o)
                              CMakeFiles/AHT20.dir/C_/VSARM/sdk/pico/pico-sdk/lib/lwip/src/netif/ethernet.c.obj (memcmp)
c:/vsarm/armcc/125863~1.3re/bin/../lib/gcc/arm-none-eabi/12.3.1/thumb/v6-m/nofp\libg.a(libc_a-memmove.o)
                              CMakeFiles/AHT20.dir/C_/VSARM/sdk/pico/pico-sdk/lib/lwip/src/core/def.c.obj (memmove)
c:/vsarm/armcc/125863~1.3re/bin/../lib/gcc/arm-none-eabi/12.3.1/thumb/v6-m/nofp\libg.a(libc_a-strncmp.o)
                              CMakeFiles/AHT20.dir/C_/VSARM/sdk/pico/pico-sdk/lib/lwip/src/core/def.c.obj (strncmp)
c:/vsarm/armcc/125863~1.3re/bin/../lib/gcc/arm-none-eabi/12.3.1/thumb/v6-m/nofp\libg.a(libc_a-impure.o)
                              c:/vsarm/armcc/125863~1.3re/bin/../lib/gcc/arm-none-eabi/12.3.1/thumb/v6-m/nofp\libg.a(libc_a-calloc.o) (_impure_ptr)
c:/vsarm/armcc/125863~1.3re/bin/../lib/gcc/arm-none-eabi/12.3.1/thumb/v6-m/nofp\libg.a(libc_a-sbrkr.o)
                              c:/vsarm/armcc/125863~1.3re/bin/../lib/gcc/arm-none-eabi/12.3.1/thumb/v6-m/nofp\libg.a(libc_a-mallocr.o) (_sbrk_r)
c:/vsarm/armcc/125863~1.3re/bin/../lib/gcc/arm-none-eabi/12.3.1/thumb/v6-m/nofp\libg.a(libc_a-errno.o)
                              c:/vsarm/armcc/125863~1.3re/bin/../lib/gcc/arm-none-eabi/12.3.1/thumb/v6-m/nofp\libg.a(libc_a-callocr.o) (__errno)
c:/vsarm/armcc/125863~1.3re/bin/../lib/gcc/arm-none-eabi/12.3.1/thumb/v6-m/nofp\libg.a(libc_a-init.o)
                              c:/vsarm/armcc/125863~1.3re/bin/../lib/gcc/arm-none-eabi/12.3.1/thumb/v6-m/nofp/crt0.o (__libc_init_array)
c:/vsarm/armcc/125863~1.3re/bin/../lib/gcc/arm-none-eabi/12.3.1/thumb/v6-m/nofp\libg.a(libc_a-lock.o)
                              c:/vsarm/armcc/125863~1.3re/bin/../lib/gcc/arm-none-eabi/12.3.1/thumb/v6-m/nofp\libg.a(libc_a-mlock.o) (__retarget_lock_acquire_recursive)
c:/vsarm/armcc/125863~1.3re/bin/../lib/gcc/arm-none-eabi/12.3.1/thumb/v6-m/nofp\libg.a(libc_a-sysconf.o)
                              c:/vsarm/armcc/125863~1.3re/bin/../lib/gcc/arm-none-eabi/12.3.1/thumb/v6-m/nofp\libg.a(libc_a-mallocr.o) (sysconf)
c:/vsarm/armcc/125863~1.3re/bin/../lib/gcc/arm-none-eabi/12.3.1/thumb/v6-m/nofp\libg.a(libc_a-strlen-stub.o)
                              CMakeFiles/AHT20.dir/C_/VSARM/sdk/pico/pico-sdk/src/rp2_common/pico_stdio/stdio.c.obj (strlen)
c:/vsarm/armcc/125863~1.3re/bin/../lib/gcc/arm-none-eabi/12.3.1/thumb/v6-m/nofp\libg.a(libc_a-freer.o)
                              c:/vsarm/armcc/125863~1.3re/bin/../lib/gcc/arm-none-eabi/12.3.1/thumb/v6-m/nofp\libg.a(libc_a-malloc.o) (_free_r)
c:/vsarm/armcc/125863~1.3re/bin/../lib/gcc/arm-none-eabi/12.3.1/thumb/v6-m/nofp\libg.a(libc_a-findfp.o)
                              c:/vsarm/armcc/125863~1.3re/bin/../lib/gcc/arm-none-eabi/12.3.1/thumb/v6-m/nofp\libg.a(libc_a-impure.o) (__sf)
c:/vsarm/armcc/125863~1.3re/bin/../lib/gcc/arm-none-eabi/12.3.1/thumb/v6-m/nofp\libg.a(libc_a-fwalk.o)
                              c:/vsarm/armcc/125863~1.3re/bin/../lib/gcc/arm-none-eabi/12.3.1/thumb/v6-m/nofp\libg.a(libc_a-findfp.o) (_fwalk_sglue)
c:/vsarm/armcc/125863~1.3re/bin/../lib/gcc/arm-none-eabi/12.3.1/thumb/v6-m/nofp\libg.a(libc_a-stdio.o)
                              c:/vsarm/armcc/125863~1.3re/bin/../lib/gcc/arm-none-eabi/12.3.1/thumb/v6-m/nofp\libg.a(libc_a-findfp.o) (__sread)
c:/vsarm/armcc/125863~1.3re/bin/../lib/gcc/arm-none-eabi/12.3.1/thumb/v6-m/nofp\libg.a(libc_a-closer.o)
                              c:/vsarm/armcc/125863~1.3re/bin/../lib/gcc/arm-none-eabi/12.3.1/thumb/v6-m/nofp\libg.a(libc_a-stdio.o) (_close_r)
c:/vsarm/armcc/125863~1.3re/bin/../lib/gcc/arm-none-eabi/12.3.1/thumb/v6-m/nofp\libg.a(libc_a-reent.o)
                              c:/vsarm/armcc/125863~1.3re/bin/../lib/gcc/arm-none-eabi/12.3.1/thumb/v6-m/nofp\libg.a(libc_a-sbrkr.o) (errno)
c:/vsarm/armcc/125863~1.3re/bin/../lib/gcc/arm-none-eabi/12.3.1/thumb/v6-m/nofp\libg.a(libc_a-lseekr.o)
                              c:/vsarm/armcc/125863~1.3re/bin/../lib/gcc/arm-none-eabi/12.3.1/thumb/v6-m/nofp\libg.a(libc_a-stdio.o) (_lseek_r)
c:/vsarm/armcc/125863~1.3re/bin/../lib/gcc/arm-none-eabi/12.3.1/thumb/v6-m/nofp\libg.a(libc_a-readr.o)
                              c:/vsarm/armcc/125863~1.3re/bin/../lib/gcc/arm-none-eabi/12.3.1/thumb/v6-m/nofp\libg.a(libc_a-stdio.o) (_read_r)
c:/vsarm/armcc/125863~1.3re/bin/../lib/gcc/arm-none-eabi/12.3.1/thumb/v6-m/nofp\libg.a(libc_a-writer.o)
                              c:/vsarm/armcc/125863~1.3re/bin/../lib/gcc/arm-none-eabi/12.3.1/thumb/v6-m/nofp\libg.a(libc_a-stdio.o) (_write_r)
c:/vsarm/armcc/125863~1.3re/bin/../lib/gcc/arm-none-eabi/12.3.1/thumb/v6-m/nofp\libg.a(libc_a-fclose.o)
                              c:/vsarm/armcc/125863~1.3re/bin/../lib/gcc/arm-none-eabi/12.3.1/thumb/v6-m/nofp\libg.a(libc_a-findfp.o) (_fclose_r)
c:/vsarm/armcc/125863~1.3re/bin/../lib/gcc/arm-none-eabi/12.3.1/thumb/v6-m/nofp\libg.a(libc_a-fflush.o)
                              c:/vsarm/armcc/125863~1.3re/bin/../lib/gcc/arm-none-eabi/12.3.1/thumb/v6-m/nofp\libg.a(libc_a-fclose.o) (__sflush_r)

Discarded input sections

 .text          0x00000000        0x0 c:/vsarm/armcc/125863~1.3re/bin/../lib/gcc/arm-none-eabi/12.3.1/thumb/v6-m/nofp/crti.o
 .data          0x00000000        0x0 c:/vsarm/armcc/125863~1.3re/bin/../lib/gcc/arm-none-eabi/12.3.1/thumb/v6-m/nofp/crti.o
 .bss           0x00000000        0x0 c:/vsarm/armcc/125863~1.3re/bin/../lib/gcc/arm-none-eabi/12.3.1/thumb/v6-m/nofp/crti.o
 .text          0x00000000        0x0 c:/vsarm/armcc/125863~1.3re/bin/../lib/gcc/arm-none-eabi/12.3.1/thumb/v6-m/nofp/crtbegin.o
 .data          0x00000000        0x0 c:/vsarm/armcc/125863~1.3re/bin/../lib/gcc/arm-none-eabi/12.3.1/thumb/v6-m/nofp/crtbegin.o
 .bss           0x00000000        0x0 c:/vsarm/armcc/125863~1.3re/bin/../lib/gcc/arm-none-eabi/12.3.1/thumb/v6-m/nofp/crtbegin.o
 .rodata.all_implied_fbits
                0x00000000       0x24 c:/vsarm/armcc/125863~1.3re/bin/../lib/gcc/arm-none-eabi/12.3.1/thumb/v6-m/nofp/crtbegin.o
 .fini_array    0x00000000        0x4 c:/vsarm/armcc/125863~1.3re/bin/../lib/gcc/arm-none-eabi/12.3.1/thumb/v6-m/nofp/crtbegin.o
 .text.deregister_tm_clones
                0x00000000       0x20 c:/vsarm/armcc/125863~1.3re/bin/../lib/gcc/arm-none-eabi/12.3.1/thumb/v6-m/nofp/crtbegin.o
 .data.__dso_handle
                0x00000000        0x4 c:/vsarm/armcc/125863~1.3re/bin/../lib/gcc/arm-none-eabi/12.3.1/thumb/v6-m/nofp/crtbegin.o
 .text.__do_global_dtors_aux
                0x00000000       0x2c c:/vsarm/armcc/125863~1.3re/bin/../lib/gcc/arm-none-eabi/12.3.1/thumb/v6-m/nofp/crtbegin.o
 .bss.completed.1
                0x00000000        0x1 c:/vsarm/armcc/125863~1.3re/bin/../lib/gcc/arm-none-eabi/12.3.1/thumb/v6-m/nofp/crtbegin.o
 .text          0x00000000       0x80 c:/vsarm/armcc/125863~1.3re/bin/../lib/gcc/arm-none-eabi/12.3.1/thumb/v6-m/nofp/crt0.o
 .data          0x00000000        0x0 c:/vsarm/armcc/125863~1.3re/bin/../lib/gcc/arm-none-eabi/12.3.1/thumb/v6-m/nofp/crt0.o
 .bss           0x00000000        0x0 c:/vsarm/armcc/125863~1.3re/bin/../lib/gcc/arm-none-eabi/12.3.1/thumb/v6-m/nofp/crt0.o
 .ARM.extab     0x00000000        0x0 c:/vsarm/armcc/125863~1.3re/bin/../lib/gcc/arm-none-eabi/12.3.1/thumb/v6-m/nofp/crt0.o
 .ARM.exidx     0x00000000       0x10 c:/vsarm/armcc/125863~1.3re/bin/../lib/gcc/arm-none-eabi/12.3.1/thumb/v6-m/nofp/crt0.o
 .debug_line_str
                0x00000000       0xd2 c:/vsarm/armcc/125863~1.3re/bin/../lib/gcc/arm-none-eabi/12.3.1/thumb/v6-m/nofp/crt0.o
 .ARM.attributes
                0x00000000       0x1b c:/vsarm/armcc/125863~1.3re/bin/../lib/gcc/arm-none-eabi/12.3.1/thumb/v6-m/nofp/crt0.o
 .text          0x00000000        0x0 CMakeFiles/AHT20.dir/main.cpp.obj
 .data          0x00000000        0x0 CMakeFiles/AHT20.dir/main.cpp.obj
 .bss           0x00000000        0x0 CMakeFiles/AHT20.dir/main.cpp.obj
 .rodata._Z12connect_wifiv.str1.4
                0x00000000       0x57 CMakeFiles/AHT20.dir/main.cpp.obj
 .text._Z12connect_wifiv
                0x00000000       0x58 CMakeFiles/AHT20.dir/main.cpp.obj
 .text          0x00000000        0x0 CMakeFiles/AHT20.dir/AHT20/AHT20.cpp.obj
 .data          0x00000000        0x0 CMakeFiles/AHT20.dir/AHT20/AHT20.cpp.obj
 .bss           0x00000000        0x0 CMakeFiles/AHT20.dir/AHT20/AHT20.cpp.obj
 .rodata._ZN5AHT20C2Eii.str1.4
                0x00000000        0x7 CMakeFiles/AHT20.dir/AHT20/AHT20.cpp.obj
 .text._ZN5AHT20C2Eii
                0x00000000       0x9c CMakeFiles/AHT20.dir/AHT20/AHT20.cpp.obj
 .rodata._ZN5AHT2018triggerMeasurementEv.str1.4
                0x00000000       0x23 CMakeFiles/AHT20.dir/AHT20/AHT20.cpp.obj
 .text._ZN5AHT2018triggerMeasurementEv
                0x00000000       0xec CMakeFiles/AHT20.dir/AHT20/AHT20.cpp.obj
 .text._ZN5AHT2014getTemperatureEv
                0x00000000        0x4 CMakeFiles/AHT20.dir/AHT20/AHT20.cpp.obj
 .text._ZN5AHT2016getTemperature_fEv
                0x00000000       0x2c CMakeFiles/AHT20.dir/AHT20/AHT20.cpp.obj
 .text._ZN5AHT2011getHumidityEv
                0x00000000        0x4 CMakeFiles/AHT20.dir/AHT20/AHT20.cpp.obj
 .debug_info    0x00000000      0xae9 CMakeFiles/AHT20.dir/AHT20/AHT20.cpp.obj
 .debug_abbrev  0x00000000      0x2d0 CMakeFiles/AHT20.dir/AHT20/AHT20.cpp.obj
 .debug_loclists
                0x00000000      0x101 CMakeFiles/AHT20.dir/AHT20/AHT20.cpp.obj
 .debug_aranges
                0x00000000       0x40 CMakeFiles/AHT20.dir/AHT20/AHT20.cpp.obj
 .debug_rnglists
                0x00000000       0x2d CMakeFiles/AHT20.dir/AHT20/AHT20.cpp.obj
 .debug_line    0x00000000      0x4e9 CMakeFiles/AHT20.dir/AHT20/AHT20.cpp.obj
 .debug_str     0x00000000      0x709 CMakeFiles/AHT20.dir/AHT20/AHT20.cpp.obj
 .comment       0x00000000       0x46 CMakeFiles/AHT20.dir/AHT20/AHT20.cpp.obj
 .debug_frame   0x00000000       0x88 CMakeFiles/AHT20.dir/AHT20/AHT20.cpp.obj
 .ARM.attributes
                0x00000000       0x2c CMakeFiles/AHT20.dir/AHT20/AHT20.cpp.obj
 .text          0x00000000        0x0 CMakeFiles/AHT20.dir/BTN/BTN.cpp.obj
 .data          0x00000000        0x0 CMakeFiles/AHT20.dir/BTN/BTN.cpp.obj
 .bss           0x00000000        0x0 CMakeFiles/AHT20.dir/BTN/BTN.cpp.obj
 .text._ZN3BTNC2Ei
                0x00000000       0x2a CMakeFiles/AHT20.dir/BTN/BTN.cpp.obj
 .text._ZN3BTN10is_clickedEv
                0x00000000       0x34 CMakeFiles/AHT20.dir/BTN/BTN.cpp.obj
 .bss._ZZN3BTN10is_clickedEvE10last_state
                0x00000000        0x1 CMakeFiles/AHT20.dir/BTN/BTN.cpp.obj
 .debug_info    0x00000000      0x629 CMakeFiles/AHT20.dir/BTN/BTN.cpp.obj
 .debug_abbrev  0x00000000      0x29b CMakeFiles/AHT20.dir/BTN/BTN.cpp.obj
 .debug_loclists
                0x00000000       0xdc CMakeFiles/AHT20.dir/BTN/BTN.cpp.obj
 .debug_aranges
                0x00000000       0x28 CMakeFiles/AHT20.dir/BTN/BTN.cpp.obj
 .debug_rnglists
                0x00000000       0x19 CMakeFiles/AHT20.dir/BTN/BTN.cpp.obj
 .debug_line    0x00000000      0x31e CMakeFiles/AHT20.dir/BTN/BTN.cpp.obj
 .debug_str     0x00000000      0x49e CMakeFiles/AHT20.dir/BTN/BTN.cpp.obj
 .comment       0x00000000       0x46 CMakeFiles/AHT20.dir/BTN/BTN.cpp.obj
 .debug_frame   0x00000000       0x38 CMakeFiles/AHT20.dir/BTN/BTN.cpp.obj
 .ARM.attributes
                0x00000000       0x2c CMakeFiles/AHT20.dir/BTN/BTN.cpp.obj
 .text          0x00000000        0x0 CMakeFiles/AHT20.dir/BUZZER/Buzzer.cpp.obj
 .data          0x00000000        0x0 CMakeFiles/AHT20.dir/BUZZER/Buzzer.cpp.obj
 .bss           0x00000000        0x0 CMakeFiles/AHT20.dir/BUZZER/Buzzer.cpp.obj
 .text          0x00000000        0x0 CMakeFiles/AHT20.dir/C_/VSARM/sdk/pico/pico-sdk/src/rp2_common/pico_stdlib/stdlib.c.obj
 .data          0x00000000        0x0 CMakeFiles/AHT20.dir/C_/VSARM/sdk/pico/pico-sdk/src/rp2_common/pico_stdlib/stdlib.c.obj
 .bss           0x00000000        0x0 CMakeFiles/AHT20.dir/C_/VSARM/sdk/pico/pico-sdk/src/rp2_common/pico_stdlib/stdlib.c.obj
 .text.set_sys_clock_48mhz
                0x00000000       0x40 CMakeFiles/AHT20.dir/C_/VSARM/sdk/pico/pico-sdk/src/rp2_common/pico_stdlib/stdlib.c.obj
 .text.set_sys_clock_pll
                0x00000000       0x78 CMakeFiles/AHT20.dir/C_/VSARM/sdk/pico/pico-sdk/src/rp2_common/pico_stdlib/stdlib.c.obj
 .text.check_sys_clock_khz
                0x00000000       0xa4 CMakeFiles/AHT20.dir/C_/VSARM/sdk/pico/pico-sdk/src/rp2_common/pico_stdlib/stdlib.c.obj
 .text.setup_default_uart
                0x00000000       0x2c CMakeFiles/AHT20.dir/C_/VSARM/sdk/pico/pico-sdk/src/rp2_common/pico_stdlib/stdlib.c.obj
 .rodata.__bi_118.0
                0x00000000        0x8 CMakeFiles/AHT20.dir/C_/VSARM/sdk/pico/pico-sdk/src/rp2_common/pico_stdlib/stdlib.c.obj
 .binary_info.__bi_ptr118
                0x00000000        0x4 CMakeFiles/AHT20.dir/C_/VSARM/sdk/pico/pico-sdk/src/rp2_common/pico_stdlib/stdlib.c.obj
 .debug_info    0x00000000      0x78e CMakeFiles/AHT20.dir/C_/VSARM/sdk/pico/pico-sdk/src/rp2_common/pico_stdlib/stdlib.c.obj
 .debug_abbrev  0x00000000      0x226 CMakeFiles/AHT20.dir/C_/VSARM/sdk/pico/pico-sdk/src/rp2_common/pico_stdlib/stdlib.c.obj
 .debug_loclists
                0x00000000      0x195 CMakeFiles/AHT20.dir/C_/VSARM/sdk/pico/pico-sdk/src/rp2_common/pico_stdlib/stdlib.c.obj
 .debug_aranges
                0x00000000       0x38 CMakeFiles/AHT20.dir/C_/VSARM/sdk/pico/pico-sdk/src/rp2_common/pico_stdlib/stdlib.c.obj
 .debug_rnglists
                0x00000000       0x5c CMakeFiles/AHT20.dir/C_/VSARM/sdk/pico/pico-sdk/src/rp2_common/pico_stdlib/stdlib.c.obj
 .debug_line    0x00000000      0x55f CMakeFiles/AHT20.dir/C_/VSARM/sdk/pico/pico-sdk/src/rp2_common/pico_stdlib/stdlib.c.obj
 .debug_str     0x00000000      0x527 CMakeFiles/AHT20.dir/C_/VSARM/sdk/pico/pico-sdk/src/rp2_common/pico_stdlib/stdlib.c.obj
 .comment       0x00000000       0x46 CMakeFiles/AHT20.dir/C_/VSARM/sdk/pico/pico-sdk/src/rp2_common/pico_stdlib/stdlib.c.obj
 .debug_frame   0x00000000       0x90 CMakeFiles/AHT20.dir/C_/VSARM/sdk/pico/pico-sdk/src/rp2_common/pico_stdlib/stdlib.c.obj
 .ARM.attributes
                0x00000000       0x2c CMakeFiles/AHT20.dir/C_/VSARM/sdk/pico/pico-sdk/src/rp2_common/pico_stdlib/stdlib.c.obj
 .text          0x00000000        0x0 CMakeFiles/AHT20.dir/C_/VSARM/sdk/pico/pico-sdk/src/rp2_common/hardware_gpio/gpio.c.obj
 .data          0x00000000        0x0 CMakeFiles/AHT20.dir/C_/VSARM/sdk/pico/pico-sdk/src/rp2_common/hardware_gpio/gpio.c.obj
 .bss           0x00000000        0x0 CMakeFiles/AHT20.dir/C_/VSARM/sdk/pico/pico-sdk/src/rp2_common/hardware_gpio/gpio.c.obj
 .text.gpio_get_pad
                0x00000000       0x28 CMakeFiles/AHT20.dir/C_/VSARM/sdk/pico/pico-sdk/src/rp2_common/hardware_gpio/gpio.c.obj
 .text.gpio_get_function
                0x00000000       0x14 CMakeFiles/AHT20.dir/C_/VSARM/sdk/pico/pico-sdk/src/rp2_common/hardware_gpio/gpio.c.obj
 .text.gpio_set_pulls
                0x00000000       0x34 CMakeFiles/AHT20.dir/C_/VSARM/sdk/pico/pico-sdk/src/rp2_common/hardware_gpio/gpio.c.obj
 .text.gpio_set_irqover
                0x00000000       0x24 CMakeFiles/AHT20.dir/C_/VSARM/sdk/pico/pico-sdk/src/rp2_common/hardware_gpio/gpio.c.obj
 .text.gpio_set_inover
                0x00000000       0x24 CMakeFiles/AHT20.dir/C_/VSARM/sdk/pico/pico-sdk/src/rp2_common/hardware_gpio/gpio.c.obj
 .text.gpio_set_outover
                0x00000000       0x24 CMakeFiles/AHT20.dir/C_/VSARM/sdk/pico/pico-sdk/src/rp2_common/hardware_gpio/gpio.c.obj
 .text.gpio_set_oeover
                0x00000000       0x24 CMakeFiles/AHT20.dir/C_/VSARM/sdk/pico/pico-sdk/src/rp2_common/hardware_gpio/gpio.c.obj
 .text.gpio_set_input_hysteresis_enabled
                0x00000000       0x30 CMakeFiles/AHT20.dir/C_/VSARM/sdk/pico/pico-sdk/src/rp2_common/hardware_gpio/gpio.c.obj
 .text.gpio_is_input_hysteresis_enabled
                0x00000000       0x1c CMakeFiles/AHT20.dir/C_/VSARM/sdk/pico/pico-sdk/src/rp2_common/hardware_gpio/gpio.c.obj
 .text.gpio_set_slew_rate
                0x00000000       0x20 CMakeFiles/AHT20.dir/C_/VSARM/sdk/pico/pico-sdk/src/rp2_common/hardware_gpio/gpio.c.obj
 .text.gpio_get_slew_rate
                0x00000000       0x14 CMakeFiles/AHT20.dir/C_/VSARM/sdk/pico/pico-sdk/src/rp2_common/hardware_gpio/gpio.c.obj
 .text.gpio_set_drive_strength
                0x00000000       0x20 CMakeFiles/AHT20.dir/C_/VSARM/sdk/pico/pico-sdk/src/rp2_common/hardware_gpio/gpio.c.obj
 .text.gpio_get_drive_strength
                0x00000000       0x18 CMakeFiles/AHT20.dir/C_/VSARM/sdk/pico/pico-sdk/src/rp2_common/hardware_gpio/gpio.c.obj
 .text.gpio_set_irq_callback
                0x00000000       0x48 CMakeFiles/AHT20.dir/C_/VSARM/sdk/pico/pico-sdk/src/rp2_common/hardware_gpio/gpio.c.obj
 .rodata.gpio_add_raw_irq_handler_with_order_priority_masked.str1.4
                0x00000000       0x6b CMakeFiles/AHT20.dir/C_/VSARM/sdk/pico/pico-sdk/src/rp2_common/hardware_gpio/gpio.c.obj
 .text.gpio_add_raw_irq_handler_with_order_priority_masked
                0x00000000       0x40 CMakeFiles/AHT20.dir/C_/VSARM/sdk/pico/pico-sdk/src/rp2_common/hardware_gpio/gpio.c.obj
 .text.gpio_add_raw_irq_handler_masked
                0x00000000        0xa CMakeFiles/AHT20.dir/C_/VSARM/sdk/pico/pico-sdk/src/rp2_common/hardware_gpio/gpio.c.obj
 .rodata.gpio_remove_raw_irq_handler_masked.str1.4
                0x00000000       0x29 CMakeFiles/AHT20.dir/C_/VSARM/sdk/pico/pico-sdk/src/rp2_common/hardware_gpio/gpio.c.obj
 .text.gpio_remove_raw_irq_handler_masked
                0x00000000       0x48 CMakeFiles/AHT20.dir/C_/VSARM/sdk/pico/pico-sdk/src/rp2_common/hardware_gpio/gpio.c.obj
 .text.gpio_acknowledge_irq
                0x00000000       0x18 CMakeFiles/AHT20.dir/C_/VSARM/sdk/pico/pico-sdk/src/rp2_common/hardware_gpio/gpio.c.obj
 .text._gpio_set_irq_enabled
                0x00000000       0x34 CMakeFiles/AHT20.dir/C_/VSARM/sdk/pico/pico-sdk/src/rp2_common/hardware_gpio/gpio.c.obj
 .text.gpio_set_irq_enabled
                0x00000000       0x20 CMakeFiles/AHT20.dir/C_/VSARM/sdk/pico/pico-sdk/src/rp2_common/hardware_gpio/gpio.c.obj
 .text.gpio_set_irq_enabled_with_callback
                0x00000000       0x20 CMakeFiles/AHT20.dir/C_/VSARM/sdk/pico/pico-sdk/src/rp2_common/hardware_gpio/gpio.c.obj
 .text.gpio_set_dormant_irq_enabled
                0x00000000       0x10 CMakeFiles/AHT20.dir/C_/VSARM/sdk/pico/pico-sdk/src/rp2_common/hardware_gpio/gpio.c.obj
 .text.gpio_default_irq_handler
                0x00000000       0x98 CMakeFiles/AHT20.dir/C_/VSARM/sdk/pico/pico-sdk/src/rp2_common/hardware_gpio/gpio.c.obj
 .text.gpio_set_input_enabled
                0x00000000       0x30 CMakeFiles/AHT20.dir/C_/VSARM/sdk/pico/pico-sdk/src/rp2_common/hardware_gpio/gpio.c.obj
 .text.gpio_init
                0x00000000       0x16 CMakeFiles/AHT20.dir/C_/VSARM/sdk/pico/pico-sdk/src/rp2_common/hardware_gpio/gpio.c.obj
 .text.gpio_deinit
                0x00000000        0xa CMakeFiles/AHT20.dir/C_/VSARM/sdk/pico/pico-sdk/src/rp2_common/hardware_gpio/gpio.c.obj
 .text.gpio_init_mask
                0x00000000       0x1e CMakeFiles/AHT20.dir/C_/VSARM/sdk/pico/pico-sdk/src/rp2_common/hardware_gpio/gpio.c.obj
 .text.gpio_debug_pins_init
                0x00000000       0x18 CMakeFiles/AHT20.dir/C_/VSARM/sdk/pico/pico-sdk/src/rp2_common/hardware_gpio/gpio.c.obj
 .rodata.__func__.0
                0x00000000       0x23 CMakeFiles/AHT20.dir/C_/VSARM/sdk/pico/pico-sdk/src/rp2_common/hardware_gpio/gpio.c.obj
 .rodata.__func__.1
                0x00000000       0x34 CMakeFiles/AHT20.dir/C_/VSARM/sdk/pico/pico-sdk/src/rp2_common/hardware_gpio/gpio.c.obj
 .bss.raw_irq_mask
                0x00000000        0x8 CMakeFiles/AHT20.dir/C_/VSARM/sdk/pico/pico-sdk/src/rp2_common/hardware_gpio/gpio.c.obj
 .bss.callbacks
                0x00000000        0x8 CMakeFiles/AHT20.dir/C_/VSARM/sdk/pico/pico-sdk/src/rp2_common/hardware_gpio/gpio.c.obj
 .text          0x00000000        0x0 CMakeFiles/AHT20.dir/C_/VSARM/sdk/pico/pico-sdk/src/rp2_common/pico_platform/platform.c.obj
 .data          0x00000000        0x0 CMakeFiles/AHT20.dir/C_/VSARM/sdk/pico/pico-sdk/src/rp2_common/pico_platform/platform.c.obj
 .bss           0x00000000        0x0 CMakeFiles/AHT20.dir/C_/VSARM/sdk/pico/pico-sdk/src/rp2_common/pico_platform/platform.c.obj
 .rodata.rp2040_chip_version.str1.4
                0x00000000       0x79 CMakeFiles/AHT20.dir/C_/VSARM/sdk/pico/pico-sdk/src/rp2_common/pico_platform/platform.c.obj
 .text.rp2040_chip_version
                0x00000000       0x4c CMakeFiles/AHT20.dir/C_/VSARM/sdk/pico/pico-sdk/src/rp2_common/pico_platform/platform.c.obj
 .rodata.__func__.0
                0x00000000       0x14 CMakeFiles/AHT20.dir/C_/VSARM/sdk/pico/pico-sdk/src/rp2_common/pico_platform/platform.c.obj
 .text          0x00000000        0x0 CMakeFiles/AHT20.dir/C_/VSARM/sdk/pico/pico-sdk/src/rp2_common/hardware_claim/claim.c.obj
 .data          0x00000000        0x0 CMakeFiles/AHT20.dir/C_/VSARM/sdk/pico/pico-sdk/src/rp2_common/hardware_claim/claim.c.obj
 .bss           0x00000000        0x0 CMakeFiles/AHT20.dir/C_/VSARM/sdk/pico/pico-sdk/src/rp2_common/hardware_claim/claim.c.obj
 .text.hw_is_claimed
                0x00000000       0x16 CMakeFiles/AHT20.dir/C_/VSARM/sdk/pico/pico-sdk/src/rp2_common/hardware_claim/claim.c.obj
 .rodata.hw_claim_clear.str1.4
                0x00000000       0x61 CMakeFiles/AHT20.dir/C_/VSARM/sdk/pico/pico-sdk/src/rp2_common/hardware_claim/claim.c.obj
 .text.hw_claim_clear
                0x00000000       0x40 CMakeFiles/AHT20.dir/C_/VSARM/sdk/pico/pico-sdk/src/rp2_common/hardware_claim/claim.c.obj
 .rodata.__func__.0
                0x00000000        0xf CMakeFiles/AHT20.dir/C_/VSARM/sdk/pico/pico-sdk/src/rp2_common/hardware_claim/claim.c.obj
 .text          0x00000000        0x0 CMakeFiles/AHT20.dir/C_/VSARM/sdk/pico/pico-sdk/src/rp2_common/hardware_sync/sync.c.obj
 .data          0x00000000        0x0 CMakeFiles/AHT20.dir/C_/VSARM/sdk/pico/pico-sdk/src/rp2_common/hardware_sync/sync.c.obj
 .bss           0x00000000        0x0 CMakeFiles/AHT20.dir/C_/VSARM/sdk/pico/pico-sdk/src/rp2_common/hardware_sync/sync.c.obj
 .rodata.spin_lock_init.str1.4
                0x00000000       0x5b CMakeFiles/AHT20.dir/C_/VSARM/sdk/pico/pico-sdk/src/rp2_common/hardware_sync/sync.c.obj
 .text.spin_lock_init
                0x00000000       0x34 CMakeFiles/AHT20.dir/C_/VSARM/sdk/pico/pico-sdk/src/rp2_common/hardware_sync/sync.c.obj
 .rodata.spin_lock_claim.str1.4
                0x00000000       0x1f CMakeFiles/AHT20.dir/C_/VSARM/sdk/pico/pico-sdk/src/rp2_common/hardware_sync/sync.c.obj
 .text.spin_lock_claim
                0x00000000       0x18 CMakeFiles/AHT20.dir/C_/VSARM/sdk/pico/pico-sdk/src/rp2_common/hardware_sync/sync.c.obj
 .text.spin_lock_claim_mask
                0x00000000       0x1e CMakeFiles/AHT20.dir/C_/VSARM/sdk/pico/pico-sdk/src/rp2_common/hardware_sync/sync.c.obj
 .text.spin_lock_unclaim
                0x00000000       0x24 CMakeFiles/AHT20.dir/C_/VSARM/sdk/pico/pico-sdk/src/rp2_common/hardware_sync/sync.c.obj
 .text.spin_lock_is_claimed
                0x00000000       0x14 CMakeFiles/AHT20.dir/C_/VSARM/sdk/pico/pico-sdk/src/rp2_common/hardware_sync/sync.c.obj
 .rodata.__func__.0
                0x00000000        0xf CMakeFiles/AHT20.dir/C_/VSARM/sdk/pico/pico-sdk/src/rp2_common/hardware_sync/sync.c.obj
 .text          0x00000000        0x0 CMakeFiles/AHT20.dir/C_/VSARM/sdk/pico/pico-sdk/src/rp2_common/hardware_irq/irq.c.obj
 .data          0x00000000        0x0 CMakeFiles/AHT20.dir/C_/VSARM/sdk/pico/pico-sdk/src/rp2_common/hardware_irq/irq.c.obj
 .bss           0x00000000        0x0 CMakeFiles/AHT20.dir/C_/VSARM/sdk/pico/pico-sdk/src/rp2_common/hardware_irq/irq.c.obj
 .text.get_user_irq_claim_index
                0x00000000        0x6 CMakeFiles/AHT20.dir/C_/VSARM/sdk/pico/pico-sdk/src/rp2_common/hardware_irq/irq.c.obj
 .text.irq_get_exclusive_handler
                0x00000000       0x4c CMakeFiles/AHT20.dir/C_/VSARM/sdk/pico/pico-sdk/src/rp2_common/hardware_irq/irq.c.obj
 .text.irq_set_priority
                0x00000000       0x28 CMakeFiles/AHT20.dir/C_/VSARM/sdk/pico/pico-sdk/src/rp2_common/hardware_irq/irq.c.obj
 .text.irq_get_priority
                0x00000000       0x20 CMakeFiles/AHT20.dir/C_/VSARM/sdk/pico/pico-sdk/src/rp2_common/hardware_irq/irq.c.obj
 .rodata.user_irq_claim.str1.4
                0x00000000       0x1c CMakeFiles/AHT20.dir/C_/VSARM/sdk/pico/pico-sdk/src/rp2_common/hardware_irq/irq.c.obj
 .text.user_irq_claim
                0x00000000       0x1c CMakeFiles/AHT20.dir/C_/VSARM/sdk/pico/pico-sdk/src/rp2_common/hardware_irq/irq.c.obj
 .text.user_irq_unclaim
                0x00000000       0x18 CMakeFiles/AHT20.dir/C_/VSARM/sdk/pico/pico-sdk/src/rp2_common/hardware_irq/irq.c.obj
 .text.user_irq_is_claimed
                0x00000000       0x18 CMakeFiles/AHT20.dir/C_/VSARM/sdk/pico/pico-sdk/src/rp2_common/hardware_irq/irq.c.obj
 .text          0x00000000        0x0 CMakeFiles/AHT20.dir/C_/VSARM/sdk/pico/pico-sdk/src/rp2_common/hardware_irq/irq_handler_chain.S.obj
 .bss           0x00000000        0x0 CMakeFiles/AHT20.dir/C_/VSARM/sdk/pico/pico-sdk/src/rp2_common/hardware_irq/irq_handler_chain.S.obj
 .text          0x00000000        0x0 CMakeFiles/AHT20.dir/C_/VSARM/sdk/pico/pico-sdk/src/common/pico_sync/sem.c.obj
 .data          0x00000000        0x0 CMakeFiles/AHT20.dir/C_/VSARM/sdk/pico/pico-sdk/src/common/pico_sync/sem.c.obj
 .bss           0x00000000        0x0 CMakeFiles/AHT20.dir/C_/VSARM/sdk/pico/pico-sdk/src/common/pico_sync/sem.c.obj
 .rodata.update_us_since_boot.str1.4
                0x00000000       0x61 CMakeFiles/AHT20.dir/C_/VSARM/sdk/pico/pico-sdk/src/common/pico_sync/sem.c.obj
 .text.update_us_since_boot
                0x00000000       0x24 CMakeFiles/AHT20.dir/C_/VSARM/sdk/pico/pico-sdk/src/common/pico_sync/sem.c.obj
 .text.get_absolute_time
                0x00000000       0x22 CMakeFiles/AHT20.dir/C_/VSARM/sdk/pico/pico-sdk/src/common/pico_sync/sem.c.obj
 .text.delayed_by_ms
                0x00000000       0x44 CMakeFiles/AHT20.dir/C_/VSARM/sdk/pico/pico-sdk/src/common/pico_sync/sem.c.obj
 .text.make_timeout_time_ms
                0x00000000       0x20 CMakeFiles/AHT20.dir/C_/VSARM/sdk/pico/pico-sdk/src/common/pico_sync/sem.c.obj
 .text.delayed_by_us
                0x00000000       0x34 CMakeFiles/AHT20.dir/C_/VSARM/sdk/pico/pico-sdk/src/common/pico_sync/sem.c.obj
 .text.make_timeout_time_us
                0x00000000       0x24 CMakeFiles/AHT20.dir/C_/VSARM/sdk/pico/pico-sdk/src/common/pico_sync/sem.c.obj
 .text.sem_init
                0x00000000       0x1e CMakeFiles/AHT20.dir/C_/VSARM/sdk/pico/pico-sdk/src/common/pico_sync/sem.c.obj
 .time_critical.sem_available
                0x00000000        0x6 CMakeFiles/AHT20.dir/C_/VSARM/sdk/pico/pico-sdk/src/common/pico_sync/sem.c.obj
 .time_critical.sem_acquire_blocking
                0x00000000       0x40 CMakeFiles/AHT20.dir/C_/VSARM/sdk/pico/pico-sdk/src/common/pico_sync/sem.c.obj
 .time_critical.sem_acquire_block_until
                0x00000000       0x5e CMakeFiles/AHT20.dir/C_/VSARM/sdk/pico/pico-sdk/src/common/pico_sync/sem.c.obj
 .time_critical.sem_acquire_timeout_ms
                0x00000000       0x1a CMakeFiles/AHT20.dir/C_/VSARM/sdk/pico/pico-sdk/src/common/pico_sync/sem.c.obj
 .time_critical.sem_acquire_timeout_us
                0x00000000       0x1e CMakeFiles/AHT20.dir/C_/VSARM/sdk/pico/pico-sdk/src/common/pico_sync/sem.c.obj
 .time_critical.sem_try_acquire
                0x00000000       0x42 CMakeFiles/AHT20.dir/C_/VSARM/sdk/pico/pico-sdk/src/common/pico_sync/sem.c.obj
 .time_critical.sem_release
                0x00000000       0x4a CMakeFiles/AHT20.dir/C_/VSARM/sdk/pico/pico-sdk/src/common/pico_sync/sem.c.obj
 .rodata.str1.4
                0x00000000       0x62 CMakeFiles/AHT20.dir/C_/VSARM/sdk/pico/pico-sdk/src/common/pico_sync/sem.c.obj
 .time_critical.sem_reset
                0x00000000       0x68 CMakeFiles/AHT20.dir/C_/VSARM/sdk/pico/pico-sdk/src/common/pico_sync/sem.c.obj
 .rodata.__func__.0
                0x00000000        0xa CMakeFiles/AHT20.dir/C_/VSARM/sdk/pico/pico-sdk/src/common/pico_sync/sem.c.obj
 .rodata.__func__.1
                0x00000000       0x15 CMakeFiles/AHT20.dir/C_/VSARM/sdk/pico/pico-sdk/src/common/pico_sync/sem.c.obj
 .debug_info    0x00000000     0x1352 CMakeFiles/AHT20.dir/C_/VSARM/sdk/pico/pico-sdk/src/common/pico_sync/sem.c.obj
 .debug_abbrev  0x00000000      0x393 CMakeFiles/AHT20.dir/C_/VSARM/sdk/pico/pico-sdk/src/common/pico_sync/sem.c.obj
 .debug_loclists
                0x00000000      0x5ee CMakeFiles/AHT20.dir/C_/VSARM/sdk/pico/pico-sdk/src/common/pico_sync/sem.c.obj
 .debug_aranges
                0x00000000       0x90 CMakeFiles/AHT20.dir/C_/VSARM/sdk/pico/pico-sdk/src/common/pico_sync/sem.c.obj
 .debug_rnglists
                0x00000000       0x67 CMakeFiles/AHT20.dir/C_/VSARM/sdk/pico/pico-sdk/src/common/pico_sync/sem.c.obj
 .debug_line    0x00000000      0xa61 CMakeFiles/AHT20.dir/C_/VSARM/sdk/pico/pico-sdk/src/common/pico_sync/sem.c.obj
 .debug_str     0x00000000      0x50d CMakeFiles/AHT20.dir/C_/VSARM/sdk/pico/pico-sdk/src/common/pico_sync/sem.c.obj
 .comment       0x00000000       0x46 CMakeFiles/AHT20.dir/C_/VSARM/sdk/pico/pico-sdk/src/common/pico_sync/sem.c.obj
 .debug_frame   0x00000000      0x194 CMakeFiles/AHT20.dir/C_/VSARM/sdk/pico/pico-sdk/src/common/pico_sync/sem.c.obj
 .ARM.attributes
                0x00000000       0x2c CMakeFiles/AHT20.dir/C_/VSARM/sdk/pico/pico-sdk/src/common/pico_sync/sem.c.obj
 .text          0x00000000        0x0 CMakeFiles/AHT20.dir/C_/VSARM/sdk/pico/pico-sdk/src/common/pico_sync/lock_core.c.obj
 .data          0x00000000        0x0 CMakeFiles/AHT20.dir/C_/VSARM/sdk/pico/pico-sdk/src/common/pico_sync/lock_core.c.obj
 .bss           0x00000000        0x0 CMakeFiles/AHT20.dir/C_/VSARM/sdk/pico/pico-sdk/src/common/pico_sync/lock_core.c.obj
 .text          0x00000000        0x0 CMakeFiles/AHT20.dir/C_/VSARM/sdk/pico/pico-sdk/src/common/pico_sync/mutex.c.obj
 .data          0x00000000        0x0 CMakeFiles/AHT20.dir/C_/VSARM/sdk/pico/pico-sdk/src/common/pico_sync/mutex.c.obj
 .bss           0x00000000        0x0 CMakeFiles/AHT20.dir/C_/VSARM/sdk/pico/pico-sdk/src/common/pico_sync/mutex.c.obj
 .text.delayed_by_us
                0x00000000       0x34 CMakeFiles/AHT20.dir/C_/VSARM/sdk/pico/pico-sdk/src/common/pico_sync/mutex.c.obj
 .text.make_timeout_time_us
                0x00000000       0x24 CMakeFiles/AHT20.dir/C_/VSARM/sdk/pico/pico-sdk/src/common/pico_sync/mutex.c.obj
 .time_critical.mutex_enter_blocking
                0x00000000       0x48 CMakeFiles/AHT20.dir/C_/VSARM/sdk/pico/pico-sdk/src/common/pico_sync/mutex.c.obj
 .time_critical.recursive_mutex_enter_blocking
                0x00000000       0x70 CMakeFiles/AHT20.dir/C_/VSARM/sdk/pico/pico-sdk/src/common/pico_sync/mutex.c.obj
 .time_critical.recursive_mutex_try_enter
                0x00000000       0x70 CMakeFiles/AHT20.dir/C_/VSARM/sdk/pico/pico-sdk/src/common/pico_sync/mutex.c.obj
 .time_critical.mutex_enter_timeout_us
                0x00000000       0x1e CMakeFiles/AHT20.dir/C_/VSARM/sdk/pico/pico-sdk/src/common/pico_sync/mutex.c.obj
 .time_critical.recursive_mutex_enter_block_until
                0x00000000       0xac CMakeFiles/AHT20.dir/C_/VSARM/sdk/pico/pico-sdk/src/common/pico_sync/mutex.c.obj
 .time_critical.recursive_mutex_enter_timeout_ms
                0x00000000       0x1a CMakeFiles/AHT20.dir/C_/VSARM/sdk/pico/pico-sdk/src/common/pico_sync/mutex.c.obj
 .time_critical.recursive_mutex_enter_timeout_us
                0x00000000       0x1e CMakeFiles/AHT20.dir/C_/VSARM/sdk/pico/pico-sdk/src/common/pico_sync/mutex.c.obj
 .time_critical.recursive_mutex_exit
                0x00000000       0x7c CMakeFiles/AHT20.dir/C_/VSARM/sdk/pico/pico-sdk/src/common/pico_sync/mutex.c.obj
 .rodata.__func__.0
                0x00000000       0x15 CMakeFiles/AHT20.dir/C_/VSARM/sdk/pico/pico-sdk/src/common/pico_sync/mutex.c.obj
 .rodata.__func__.2
                0x00000000       0x22 CMakeFiles/AHT20.dir/C_/VSARM/sdk/pico/pico-sdk/src/common/pico_sync/mutex.c.obj
 .rodata.__func__.5
                0x00000000       0x1a CMakeFiles/AHT20.dir/C_/VSARM/sdk/pico/pico-sdk/src/common/pico_sync/mutex.c.obj
 .rodata.__func__.6
                0x00000000       0x1f CMakeFiles/AHT20.dir/C_/VSARM/sdk/pico/pico-sdk/src/common/pico_sync/mutex.c.obj
 .text          0x00000000        0x0 CMakeFiles/AHT20.dir/C_/VSARM/sdk/pico/pico-sdk/src/common/pico_sync/critical_section.c.obj
 .data          0x00000000        0x0 CMakeFiles/AHT20.dir/C_/VSARM/sdk/pico/pico-sdk/src/common/pico_sync/critical_section.c.obj
 .bss           0x00000000        0x0 CMakeFiles/AHT20.dir/C_/VSARM/sdk/pico/pico-sdk/src/common/pico_sync/critical_section.c.obj
 .text.critical_section_deinit
                0x00000000       0x1c CMakeFiles/AHT20.dir/C_/VSARM/sdk/pico/pico-sdk/src/common/pico_sync/critical_section.c.obj
 .text          0x00000000        0x0 CMakeFiles/AHT20.dir/C_/VSARM/sdk/pico/pico-sdk/src/common/pico_time/time.c.obj
 .data          0x00000000        0x0 CMakeFiles/AHT20.dir/C_/VSARM/sdk/pico/pico-sdk/src/common/pico_time/time.c.obj
 .bss           0x00000000        0x0 CMakeFiles/AHT20.dir/C_/VSARM/sdk/pico/pico-sdk/src/common/pico_time/time.c.obj
 .rodata.repeating_timer_callback.str1.4
                0x00000000       0x13 CMakeFiles/AHT20.dir/C_/VSARM/sdk/pico/pico-sdk/src/common/pico_time/time.c.obj
 .text.repeating_timer_callback
                0x00000000       0x40 CMakeFiles/AHT20.dir/C_/VSARM/sdk/pico/pico-sdk/src/common/pico_time/time.c.obj
 .rodata.alarm_pool_dump_key.str1.4
                0x00000000        0xf CMakeFiles/AHT20.dir/C_/VSARM/sdk/pico/pico-sdk/src/common/pico_time/time.c.obj
 .text.alarm_pool_dump_key
                0x00000000       0x34 CMakeFiles/AHT20.dir/C_/VSARM/sdk/pico/pico-sdk/src/common/pico_time/time.c.obj
 .text.alarm_pool_create
                0x00000000       0x44 CMakeFiles/AHT20.dir/C_/VSARM/sdk/pico/pico-sdk/src/common/pico_time/time.c.obj
 .text.alarm_pool_create_with_unused_hardware_alarm
                0x00000000       0x44 CMakeFiles/AHT20.dir/C_/VSARM/sdk/pico/pico-sdk/src/common/pico_time/time.c.obj
 .rodata.alarm_pool_destroy.str1.4
                0x00000000       0x30 CMakeFiles/AHT20.dir/C_/VSARM/sdk/pico/pico-sdk/src/common/pico_time/time.c.obj
 .text.alarm_pool_destroy
                0x00000000       0x78 CMakeFiles/AHT20.dir/C_/VSARM/sdk/pico/pico-sdk/src/common/pico_time/time.c.obj
 .text.alarm_pool_add_alarm_at_force_in_context
                0x00000000       0x8a CMakeFiles/AHT20.dir/C_/VSARM/sdk/pico/pico-sdk/src/common/pico_time/time.c.obj
 .text.alarm_pool_hardware_alarm_num
                0x00000000        0x4 CMakeFiles/AHT20.dir/C_/VSARM/sdk/pico/pico-sdk/src/common/pico_time/time.c.obj
 .text.alarm_pool_add_repeating_timer_us
                0x00000000       0x5c CMakeFiles/AHT20.dir/C_/VSARM/sdk/pico/pico-sdk/src/common/pico_time/time.c.obj
 .text.cancel_repeating_timer
                0x00000000       0x1a CMakeFiles/AHT20.dir/C_/VSARM/sdk/pico/pico-sdk/src/common/pico_time/time.c.obj
 .text.alarm_pool_dump
                0x00000000       0x34 CMakeFiles/AHT20.dir/C_/VSARM/sdk/pico/pico-sdk/src/common/pico_time/time.c.obj
 .rodata.__func__.0
                0x00000000       0x19 CMakeFiles/AHT20.dir/C_/VSARM/sdk/pico/pico-sdk/src/common/pico_time/time.c.obj
 .rodata.__func__.2
                0x00000000       0x13 CMakeFiles/AHT20.dir/C_/VSARM/sdk/pico/pico-sdk/src/common/pico_time/time.c.obj
 .rodata.at_the_end_of_time
                0x00000000        0x8 CMakeFiles/AHT20.dir/C_/VSARM/sdk/pico/pico-sdk/src/common/pico_time/time.c.obj
 .rodata.nil_time
                0x00000000        0x8 CMakeFiles/AHT20.dir/C_/VSARM/sdk/pico/pico-sdk/src/common/pico_time/time.c.obj
 .text          0x00000000        0x0 CMakeFiles/AHT20.dir/C_/VSARM/sdk/pico/pico-sdk/src/common/pico_time/timeout_helper.c.obj
 .data          0x00000000        0x0 CMakeFiles/AHT20.dir/C_/VSARM/sdk/pico/pico-sdk/src/common/pico_time/timeout_helper.c.obj
 .bss           0x00000000        0x0 CMakeFiles/AHT20.dir/C_/VSARM/sdk/pico/pico-sdk/src/common/pico_time/timeout_helper.c.obj
 .text.time_reached
                0x00000000       0x28 CMakeFiles/AHT20.dir/C_/VSARM/sdk/pico/pico-sdk/src/common/pico_time/timeout_helper.c.obj
 .text.check_single_timeout_us
                0x00000000        0xc CMakeFiles/AHT20.dir/C_/VSARM/sdk/pico/pico-sdk/src/common/pico_time/timeout_helper.c.obj
 .rodata.update_us_since_boot.str1.4
                0x00000000       0x61 CMakeFiles/AHT20.dir/C_/VSARM/sdk/pico/pico-sdk/src/common/pico_time/timeout_helper.c.obj
 .text.update_us_since_boot
                0x00000000       0x24 CMakeFiles/AHT20.dir/C_/VSARM/sdk/pico/pico-sdk/src/common/pico_time/timeout_helper.c.obj
 .text.get_absolute_time
                0x00000000       0x22 CMakeFiles/AHT20.dir/C_/VSARM/sdk/pico/pico-sdk/src/common/pico_time/timeout_helper.c.obj
 .text.delayed_by_us
                0x00000000       0x34 CMakeFiles/AHT20.dir/C_/VSARM/sdk/pico/pico-sdk/src/common/pico_time/timeout_helper.c.obj
 .text.make_timeout_time_us
                0x00000000       0x24 CMakeFiles/AHT20.dir/C_/VSARM/sdk/pico/pico-sdk/src/common/pico_time/timeout_helper.c.obj
 .text.check_per_iteration_timeout_us
                0x00000000       0x2c CMakeFiles/AHT20.dir/C_/VSARM/sdk/pico/pico-sdk/src/common/pico_time/timeout_helper.c.obj
 .text.init_single_timeout_until
                0x00000000        0xc CMakeFiles/AHT20.dir/C_/VSARM/sdk/pico/pico-sdk/src/common/pico_time/timeout_helper.c.obj
 .text.init_per_iteration_timeout_us
                0x00000000       0x28 CMakeFiles/AHT20.dir/C_/VSARM/sdk/pico/pico-sdk/src/common/pico_time/timeout_helper.c.obj
 .rodata.__func__.0
                0x00000000       0x15 CMakeFiles/AHT20.dir/C_/VSARM/sdk/pico/pico-sdk/src/common/pico_time/timeout_helper.c.obj
 .debug_info    0x00000000      0x5fa CMakeFiles/AHT20.dir/C_/VSARM/sdk/pico/pico-sdk/src/common/pico_time/timeout_helper.c.obj
 .debug_abbrev  0x00000000      0x246 CMakeFiles/AHT20.dir/C_/VSARM/sdk/pico/pico-sdk/src/common/pico_time/timeout_helper.c.obj
 .debug_loclists
                0x00000000      0x18b CMakeFiles/AHT20.dir/C_/VSARM/sdk/pico/pico-sdk/src/common/pico_time/timeout_helper.c.obj
 .debug_aranges
                0x00000000       0x60 CMakeFiles/AHT20.dir/C_/VSARM/sdk/pico/pico-sdk/src/common/pico_time/timeout_helper.c.obj
 .debug_rnglists
                0x00000000       0x43 CMakeFiles/AHT20.dir/C_/VSARM/sdk/pico/pico-sdk/src/common/pico_time/timeout_helper.c.obj
 .debug_line    0x00000000      0x49e CMakeFiles/AHT20.dir/C_/VSARM/sdk/pico/pico-sdk/src/common/pico_time/timeout_helper.c.obj
 .debug_str     0x00000000      0x3f5 CMakeFiles/AHT20.dir/C_/VSARM/sdk/pico/pico-sdk/src/common/pico_time/timeout_helper.c.obj
 .comment       0x00000000       0x46 CMakeFiles/AHT20.dir/C_/VSARM/sdk/pico/pico-sdk/src/common/pico_time/timeout_helper.c.obj
 .debug_frame   0x00000000       0xf4 CMakeFiles/AHT20.dir/C_/VSARM/sdk/pico/pico-sdk/src/common/pico_time/timeout_helper.c.obj
 .ARM.attributes
                0x00000000       0x2c CMakeFiles/AHT20.dir/C_/VSARM/sdk/pico/pico-sdk/src/common/pico_time/timeout_helper.c.obj
 .text          0x00000000        0x0 CMakeFiles/AHT20.dir/C_/VSARM/sdk/pico/pico-sdk/src/rp2_common/hardware_timer/timer.c.obj
 .data          0x00000000        0x0 CMakeFiles/AHT20.dir/C_/VSARM/sdk/pico/pico-sdk/src/rp2_common/hardware_timer/timer.c.obj
 .bss           0x00000000        0x0 CMakeFiles/AHT20.dir/C_/VSARM/sdk/pico/pico-sdk/src/rp2_common/hardware_timer/timer.c.obj
 .rodata.update_us_since_boot.str1.4
                0x00000000       0x61 CMakeFiles/AHT20.dir/C_/VSARM/sdk/pico/pico-sdk/src/rp2_common/hardware_timer/timer.c.obj
 .text.update_us_since_boot
                0x00000000       0x24 CMakeFiles/AHT20.dir/C_/VSARM/sdk/pico/pico-sdk/src/rp2_common/hardware_timer/timer.c.obj
 .text.hardware_alarm_unclaim
                0x00000000       0x14 CMakeFiles/AHT20.dir/C_/VSARM/sdk/pico/pico-sdk/src/rp2_common/hardware_timer/timer.c.obj
 .text.hardware_alarm_is_claimed
                0x00000000       0x14 CMakeFiles/AHT20.dir/C_/VSARM/sdk/pico/pico-sdk/src/rp2_common/hardware_timer/timer.c.obj
 .rodata.hardware_alarm_claim_unused.str1.4
                0x00000000       0x14 CMakeFiles/AHT20.dir/C_/VSARM/sdk/pico/pico-sdk/src/rp2_common/hardware_timer/timer.c.obj
 .text.hardware_alarm_claim_unused
                0x00000000       0x24 CMakeFiles/AHT20.dir/C_/VSARM/sdk/pico/pico-sdk/src/rp2_common/hardware_timer/timer.c.obj
 .text.busy_wait_us
                0x00000000       0x3a CMakeFiles/AHT20.dir/C_/VSARM/sdk/pico/pico-sdk/src/rp2_common/hardware_timer/timer.c.obj
 .text.busy_wait_us_32
                0x00000000       0x24 CMakeFiles/AHT20.dir/C_/VSARM/sdk/pico/pico-sdk/src/rp2_common/hardware_timer/timer.c.obj
 .text.busy_wait_ms
                0x00000000       0x30 CMakeFiles/AHT20.dir/C_/VSARM/sdk/pico/pico-sdk/src/rp2_common/hardware_timer/timer.c.obj
 .text.hardware_alarm_force_irq
                0x00000000       0x40 CMakeFiles/AHT20.dir/C_/VSARM/sdk/pico/pico-sdk/src/rp2_common/hardware_timer/timer.c.obj
 .rodata.__func__.1
                0x00000000       0x15 CMakeFiles/AHT20.dir/C_/VSARM/sdk/pico/pico-sdk/src/rp2_common/hardware_timer/timer.c.obj
 .text          0x00000000        0x0 CMakeFiles/AHT20.dir/C_/VSARM/sdk/pico/pico-sdk/src/common/pico_util/datetime.c.obj
 .data          0x00000000        0x0 CMakeFiles/AHT20.dir/C_/VSARM/sdk/pico/pico-sdk/src/common/pico_util/datetime.c.obj
 .bss           0x00000000        0x0 CMakeFiles/AHT20.dir/C_/VSARM/sdk/pico/pico-sdk/src/common/pico_util/datetime.c.obj
 .rodata.datetime_to_str.str1.4
                0x00000000       0x19 CMakeFiles/AHT20.dir/C_/VSARM/sdk/pico/pico-sdk/src/common/pico_util/datetime.c.obj
 .text.datetime_to_str
                0x00000000       0x68 CMakeFiles/AHT20.dir/C_/VSARM/sdk/pico/pico-sdk/src/common/pico_util/datetime.c.obj
 .rodata.str1.4
                0x00000000       0xad CMakeFiles/AHT20.dir/C_/VSARM/sdk/pico/pico-sdk/src/common/pico_util/datetime.c.obj
 .rodata.DATETIME_DOWS
                0x00000000       0x1c CMakeFiles/AHT20.dir/C_/VSARM/sdk/pico/pico-sdk/src/common/pico_util/datetime.c.obj
 .rodata.DATETIME_MONTHS
                0x00000000       0x30 CMakeFiles/AHT20.dir/C_/VSARM/sdk/pico/pico-sdk/src/common/pico_util/datetime.c.obj
 .debug_info    0x00000000      0x236 CMakeFiles/AHT20.dir/C_/VSARM/sdk/pico/pico-sdk/src/common/pico_util/datetime.c.obj
 .debug_abbrev  0x00000000      0x11d CMakeFiles/AHT20.dir/C_/VSARM/sdk/pico/pico-sdk/src/common/pico_util/datetime.c.obj
 .debug_loclists
                0x00000000       0x51 CMakeFiles/AHT20.dir/C_/VSARM/sdk/pico/pico-sdk/src/common/pico_util/datetime.c.obj
 .debug_aranges
                0x00000000       0x20 CMakeFiles/AHT20.dir/C_/VSARM/sdk/pico/pico-sdk/src/common/pico_util/datetime.c.obj
 .debug_rnglists
                0x00000000       0x13 CMakeFiles/AHT20.dir/C_/VSARM/sdk/pico/pico-sdk/src/common/pico_util/datetime.c.obj
 .debug_line    0x00000000      0x1f4 CMakeFiles/AHT20.dir/C_/VSARM/sdk/pico/pico-sdk/src/common/pico_util/datetime.c.obj
 .debug_str     0x00000000      0x213 CMakeFiles/AHT20.dir/C_/VSARM/sdk/pico/pico-sdk/src/common/pico_util/datetime.c.obj
 .comment       0x00000000       0x46 CMakeFiles/AHT20.dir/C_/VSARM/sdk/pico/pico-sdk/src/common/pico_util/datetime.c.obj
 .debug_frame   0x00000000       0x38 CMakeFiles/AHT20.dir/C_/VSARM/sdk/pico/pico-sdk/src/common/pico_util/datetime.c.obj
 .ARM.attributes
                0x00000000       0x2c CMakeFiles/AHT20.dir/C_/VSARM/sdk/pico/pico-sdk/src/common/pico_util/datetime.c.obj
 .text          0x00000000        0x0 CMakeFiles/AHT20.dir/C_/VSARM/sdk/pico/pico-sdk/src/common/pico_util/pheap.c.obj
 .data          0x00000000        0x0 CMakeFiles/AHT20.dir/C_/VSARM/sdk/pico/pico-sdk/src/common/pico_util/pheap.c.obj
 .bss           0x00000000        0x0 CMakeFiles/AHT20.dir/C_/VSARM/sdk/pico/pico-sdk/src/common/pico_util/pheap.c.obj
 .rodata.ph_dump_node.str1.4
                0x00000000       0x15 CMakeFiles/AHT20.dir/C_/VSARM/sdk/pico/pico-sdk/src/common/pico_util/pheap.c.obj
 .text.ph_dump_node
                0x00000000       0x8c CMakeFiles/AHT20.dir/C_/VSARM/sdk/pico/pico-sdk/src/common/pico_util/pheap.c.obj
 .text.ph_create
                0x00000000       0x2c CMakeFiles/AHT20.dir/C_/VSARM/sdk/pico/pico-sdk/src/common/pico_util/pheap.c.obj
 .text.ph_destroy
                0x00000000       0x12 CMakeFiles/AHT20.dir/C_/VSARM/sdk/pico/pico-sdk/src/common/pico_util/pheap.c.obj
 .rodata.ph_dump.str1.4
                0x00000000        0xf CMakeFiles/AHT20.dir/C_/VSARM/sdk/pico/pico-sdk/src/common/pico_util/pheap.c.obj
 .text.ph_dump  0x00000000       0x28 CMakeFiles/AHT20.dir/C_/VSARM/sdk/pico/pico-sdk/src/common/pico_util/pheap.c.obj
 .text          0x00000000        0x0 CMakeFiles/AHT20.dir/C_/VSARM/sdk/pico/pico-sdk/src/common/pico_util/queue.c.obj
 .data          0x00000000        0x0 CMakeFiles/AHT20.dir/C_/VSARM/sdk/pico/pico-sdk/src/common/pico_util/queue.c.obj
 .bss           0x00000000        0x0 CMakeFiles/AHT20.dir/C_/VSARM/sdk/pico/pico-sdk/src/common/pico_util/queue.c.obj
 .rodata.element_ptr.str1.4
                0x00000000       0x54 CMakeFiles/AHT20.dir/C_/VSARM/sdk/pico/pico-sdk/src/common/pico_util/queue.c.obj
 .text.element_ptr
                0x00000000       0x2c CMakeFiles/AHT20.dir/C_/VSARM/sdk/pico/pico-sdk/src/common/pico_util/queue.c.obj
 .text.queue_add_internal
                0x00000000       0x88 CMakeFiles/AHT20.dir/C_/VSARM/sdk/pico/pico-sdk/src/common/pico_util/queue.c.obj
 .text.queue_remove_internal
                0x00000000       0x88 CMakeFiles/AHT20.dir/C_/VSARM/sdk/pico/pico-sdk/src/common/pico_util/queue.c.obj
 .text.queue_peek_internal
                0x00000000       0x78 CMakeFiles/AHT20.dir/C_/VSARM/sdk/pico/pico-sdk/src/common/pico_util/queue.c.obj
 .text.queue_init_with_spinlock
                0x00000000       0x24 CMakeFiles/AHT20.dir/C_/VSARM/sdk/pico/pico-sdk/src/common/pico_util/queue.c.obj
 .text.queue_free
                0x00000000        0xa CMakeFiles/AHT20.dir/C_/VSARM/sdk/pico/pico-sdk/src/common/pico_util/queue.c.obj
 .text.queue_try_add
                0x00000000        0xa CMakeFiles/AHT20.dir/C_/VSARM/sdk/pico/pico-sdk/src/common/pico_util/queue.c.obj
 .text.queue_try_remove
                0x00000000        0xa CMakeFiles/AHT20.dir/C_/VSARM/sdk/pico/pico-sdk/src/common/pico_util/queue.c.obj
 .text.queue_try_peek
                0x00000000        0xa CMakeFiles/AHT20.dir/C_/VSARM/sdk/pico/pico-sdk/src/common/pico_util/queue.c.obj
 .text.queue_add_blocking
                0x00000000        0xa CMakeFiles/AHT20.dir/C_/VSARM/sdk/pico/pico-sdk/src/common/pico_util/queue.c.obj
 .text.queue_remove_blocking
                0x00000000        0xa CMakeFiles/AHT20.dir/C_/VSARM/sdk/pico/pico-sdk/src/common/pico_util/queue.c.obj
 .text.queue_peek_blocking
                0x00000000        0xa CMakeFiles/AHT20.dir/C_/VSARM/sdk/pico/pico-sdk/src/common/pico_util/queue.c.obj
 .rodata.__func__.0
                0x00000000        0xc CMakeFiles/AHT20.dir/C_/VSARM/sdk/pico/pico-sdk/src/common/pico_util/queue.c.obj
 .debug_info    0x00000000     0x11b6 CMakeFiles/AHT20.dir/C_/VSARM/sdk/pico/pico-sdk/src/common/pico_util/queue.c.obj
 .debug_abbrev  0x00000000      0x322 CMakeFiles/AHT20.dir/C_/VSARM/sdk/pico/pico-sdk/src/common/pico_util/queue.c.obj
 .debug_loclists
                0x00000000      0x69c CMakeFiles/AHT20.dir/C_/VSARM/sdk/pico/pico-sdk/src/common/pico_util/queue.c.obj
 .debug_aranges
                0x00000000       0x78 CMakeFiles/AHT20.dir/C_/VSARM/sdk/pico/pico-sdk/src/common/pico_util/queue.c.obj
 .debug_rnglists
                0x00000000       0xaa CMakeFiles/AHT20.dir/C_/VSARM/sdk/pico/pico-sdk/src/common/pico_util/queue.c.obj
 .debug_line    0x00000000      0x9c0 CMakeFiles/AHT20.dir/C_/VSARM/sdk/pico/pico-sdk/src/common/pico_util/queue.c.obj
 .debug_str     0x00000000      0x46a CMakeFiles/AHT20.dir/C_/VSARM/sdk/pico/pico-sdk/src/common/pico_util/queue.c.obj
 .comment       0x00000000       0x46 CMakeFiles/AHT20.dir/C_/VSARM/sdk/pico/pico-sdk/src/common/pico_util/queue.c.obj
 .debug_frame   0x00000000      0x14c CMakeFiles/AHT20.dir/C_/VSARM/sdk/pico/pico-sdk/src/common/pico_util/queue.c.obj
 .ARM.attributes
                0x00000000       0x2c CMakeFiles/AHT20.dir/C_/VSARM/sdk/pico/pico-sdk/src/common/pico_util/queue.c.obj
 .text          0x00000000        0x0 CMakeFiles/AHT20.dir/C_/VSARM/sdk/pico/pico-sdk/src/rp2_common/hardware_uart/uart.c.obj
 .data          0x00000000        0x0 CMakeFiles/AHT20.dir/C_/VSARM/sdk/pico/pico-sdk/src/rp2_common/hardware_uart/uart.c.obj
 .bss           0x00000000        0x0 CMakeFiles/AHT20.dir/C_/VSARM/sdk/pico/pico-sdk/src/rp2_common/hardware_uart/uart.c.obj
 .text.uart_disable_before_lcr_write
                0x00000000       0x48 CMakeFiles/AHT20.dir/C_/VSARM/sdk/pico/pico-sdk/src/rp2_common/hardware_uart/uart.c.obj
 .text.uart_write_lcr_bits_masked
                0x00000000       0x22 CMakeFiles/AHT20.dir/C_/VSARM/sdk/pico/pico-sdk/src/rp2_common/hardware_uart/uart.c.obj
 .text.uart_deinit
                0x00000000       0x20 CMakeFiles/AHT20.dir/C_/VSARM/sdk/pico/pico-sdk/src/rp2_common/hardware_uart/uart.c.obj
 .text.uart_set_baudrate
                0x00000000       0x5c CMakeFiles/AHT20.dir/C_/VSARM/sdk/pico/pico-sdk/src/rp2_common/hardware_uart/uart.c.obj
 .text.uart_set_format
                0x00000000       0x2c CMakeFiles/AHT20.dir/C_/VSARM/sdk/pico/pico-sdk/src/rp2_common/hardware_uart/uart.c.obj
 .text.uart_set_fifo_enabled
                0x00000000       0x10 CMakeFiles/AHT20.dir/C_/VSARM/sdk/pico/pico-sdk/src/rp2_common/hardware_uart/uart.c.obj
 .text.uart_set_break
                0x00000000       0x10 CMakeFiles/AHT20.dir/C_/VSARM/sdk/pico/pico-sdk/src/rp2_common/hardware_uart/uart.c.obj
 .text.uart_set_translate_crlf
                0x00000000       0x28 CMakeFiles/AHT20.dir/C_/VSARM/sdk/pico/pico-sdk/src/rp2_common/hardware_uart/uart.c.obj
 .text.uart_init
                0x00000000       0x80 CMakeFiles/AHT20.dir/C_/VSARM/sdk/pico/pico-sdk/src/rp2_common/hardware_uart/uart.c.obj
 .text.uart_is_readable_within_us
                0x00000000       0x20 CMakeFiles/AHT20.dir/C_/VSARM/sdk/pico/pico-sdk/src/rp2_common/hardware_uart/uart.c.obj
 .bss.uart_char_to_line_feed
                0x00000000        0x4 CMakeFiles/AHT20.dir/C_/VSARM/sdk/pico/pico-sdk/src/rp2_common/hardware_uart/uart.c.obj
 .debug_info    0x00000000      0xd98 CMakeFiles/AHT20.dir/C_/VSARM/sdk/pico/pico-sdk/src/rp2_common/hardware_uart/uart.c.obj
 .debug_abbrev  0x00000000      0x349 CMakeFiles/AHT20.dir/C_/VSARM/sdk/pico/pico-sdk/src/rp2_common/hardware_uart/uart.c.obj
 .debug_loclists
                0x00000000      0x4de CMakeFiles/AHT20.dir/C_/VSARM/sdk/pico/pico-sdk/src/rp2_common/hardware_uart/uart.c.obj
 .debug_aranges
                0x00000000       0x68 CMakeFiles/AHT20.dir/C_/VSARM/sdk/pico/pico-sdk/src/rp2_common/hardware_uart/uart.c.obj
 .debug_rnglists
                0x00000000       0x62 CMakeFiles/AHT20.dir/C_/VSARM/sdk/pico/pico-sdk/src/rp2_common/hardware_uart/uart.c.obj
 .debug_line    0x00000000      0x79e CMakeFiles/AHT20.dir/C_/VSARM/sdk/pico/pico-sdk/src/rp2_common/hardware_uart/uart.c.obj
 .debug_str     0x00000000      0x628 CMakeFiles/AHT20.dir/C_/VSARM/sdk/pico/pico-sdk/src/rp2_common/hardware_uart/uart.c.obj
 .comment       0x00000000       0x46 CMakeFiles/AHT20.dir/C_/VSARM/sdk/pico/pico-sdk/src/rp2_common/hardware_uart/uart.c.obj
 .debug_frame   0x00000000       0xf8 CMakeFiles/AHT20.dir/C_/VSARM/sdk/pico/pico-sdk/src/rp2_common/hardware_uart/uart.c.obj
 .ARM.attributes
                0x00000000       0x2c CMakeFiles/AHT20.dir/C_/VSARM/sdk/pico/pico-sdk/src/rp2_common/hardware_uart/uart.c.obj
 .text          0x00000000        0x0 CMakeFiles/AHT20.dir/C_/VSARM/sdk/pico/pico-sdk/src/rp2_common/hardware_clocks/clocks.c.obj
 .data          0x00000000        0x0 CMakeFiles/AHT20.dir/C_/VSARM/sdk/pico/pico-sdk/src/rp2_common/hardware_clocks/clocks.c.obj
 .bss           0x00000000        0x0 CMakeFiles/AHT20.dir/C_/VSARM/sdk/pico/pico-sdk/src/rp2_common/hardware_clocks/clocks.c.obj
 .text.clock_stop
                0x00000000       0x2c CMakeFiles/AHT20.dir/C_/VSARM/sdk/pico/pico-sdk/src/rp2_common/hardware_clocks/clocks.c.obj
 .text.clock_get_hz
                0x00000000        0xc CMakeFiles/AHT20.dir/C_/VSARM/sdk/pico/pico-sdk/src/rp2_common/hardware_clocks/clocks.c.obj
 .rodata.clocks_handle_resus.str1.4
                0x00000000       0x8b CMakeFiles/AHT20.dir/C_/VSARM/sdk/pico/pico-sdk/src/rp2_common/hardware_clocks/clocks.c.obj
 .text.clocks_handle_resus
                0x00000000       0x7c CMakeFiles/AHT20.dir/C_/VSARM/sdk/pico/pico-sdk/src/rp2_common/hardware_clocks/clocks.c.obj
 .rodata.clocks_irq_handler.str1.4
                0x00000000       0x17 CMakeFiles/AHT20.dir/C_/VSARM/sdk/pico/pico-sdk/src/rp2_common/hardware_clocks/clocks.c.obj
 .text.clocks_irq_handler
                0x00000000       0x2c CMakeFiles/AHT20.dir/C_/VSARM/sdk/pico/pico-sdk/src/rp2_common/hardware_clocks/clocks.c.obj
 .text.clock_set_reported_hz
                0x00000000        0xc CMakeFiles/AHT20.dir/C_/VSARM/sdk/pico/pico-sdk/src/rp2_common/hardware_clocks/clocks.c.obj
 .text.frequency_count_khz
                0x00000000       0x40 CMakeFiles/AHT20.dir/C_/VSARM/sdk/pico/pico-sdk/src/rp2_common/hardware_clocks/clocks.c.obj
 .text.clocks_enable_resus
                0x00000000       0x34 CMakeFiles/AHT20.dir/C_/VSARM/sdk/pico/pico-sdk/src/rp2_common/hardware_clocks/clocks.c.obj
 .text.clock_gpio_init_int_frac
                0x00000000       0x50 CMakeFiles/AHT20.dir/C_/VSARM/sdk/pico/pico-sdk/src/rp2_common/hardware_clocks/clocks.c.obj
 .text.clock_configure_gpin
                0x00000000       0x5c CMakeFiles/AHT20.dir/C_/VSARM/sdk/pico/pico-sdk/src/rp2_common/hardware_clocks/clocks.c.obj
 .rodata.__func__.0
                0x00000000       0x14 CMakeFiles/AHT20.dir/C_/VSARM/sdk/pico/pico-sdk/src/rp2_common/hardware_clocks/clocks.c.obj
 .rodata.gpin0_src
                0x00000000        0xa CMakeFiles/AHT20.dir/C_/VSARM/sdk/pico/pico-sdk/src/rp2_common/hardware_clocks/clocks.c.obj
 .bss._resus_callback
                0x00000000        0x4 CMakeFiles/AHT20.dir/C_/VSARM/sdk/pico/pico-sdk/src/rp2_common/hardware_clocks/clocks.c.obj
 .text          0x00000000        0x0 CMakeFiles/AHT20.dir/C_/VSARM/sdk/pico/pico-sdk/src/rp2_common/hardware_pll/pll.c.obj
 .data          0x00000000        0x0 CMakeFiles/AHT20.dir/C_/VSARM/sdk/pico/pico-sdk/src/rp2_common/hardware_pll/pll.c.obj
 .bss           0x00000000        0x0 CMakeFiles/AHT20.dir/C_/VSARM/sdk/pico/pico-sdk/src/rp2_common/hardware_pll/pll.c.obj
 .text.pll_deinit
                0x00000000        0x6 CMakeFiles/AHT20.dir/C_/VSARM/sdk/pico/pico-sdk/src/rp2_common/hardware_pll/pll.c.obj
 .text          0x00000000        0x0 CMakeFiles/AHT20.dir/C_/VSARM/sdk/pico/pico-sdk/src/rp2_common/hardware_vreg/vreg.c.obj
 .data          0x00000000        0x0 CMakeFiles/AHT20.dir/C_/VSARM/sdk/pico/pico-sdk/src/rp2_common/hardware_vreg/vreg.c.obj
 .bss           0x00000000        0x0 CMakeFiles/AHT20.dir/C_/VSARM/sdk/pico/pico-sdk/src/rp2_common/hardware_vreg/vreg.c.obj
 .text.vreg_set_voltage
                0x00000000       0x1c CMakeFiles/AHT20.dir/C_/VSARM/sdk/pico/pico-sdk/src/rp2_common/hardware_vreg/vreg.c.obj
 .debug_info    0x00000000      0x246 CMakeFiles/AHT20.dir/C_/VSARM/sdk/pico/pico-sdk/src/rp2_common/hardware_vreg/vreg.c.obj
 .debug_abbrev  0x00000000      0x120 CMakeFiles/AHT20.dir/C_/VSARM/sdk/pico/pico-sdk/src/rp2_common/hardware_vreg/vreg.c.obj
 .debug_loclists
                0x00000000       0x66 CMakeFiles/AHT20.dir/C_/VSARM/sdk/pico/pico-sdk/src/rp2_common/hardware_vreg/vreg.c.obj
 .debug_aranges
                0x00000000       0x20 CMakeFiles/AHT20.dir/C_/VSARM/sdk/pico/pico-sdk/src/rp2_common/hardware_vreg/vreg.c.obj
 .debug_rnglists
                0x00000000       0x13 CMakeFiles/AHT20.dir/C_/VSARM/sdk/pico/pico-sdk/src/rp2_common/hardware_vreg/vreg.c.obj
 .debug_line    0x00000000      0x290 CMakeFiles/AHT20.dir/C_/VSARM/sdk/pico/pico-sdk/src/rp2_common/hardware_vreg/vreg.c.obj
 .debug_str     0x00000000      0x32e CMakeFiles/AHT20.dir/C_/VSARM/sdk/pico/pico-sdk/src/rp2_common/hardware_vreg/vreg.c.obj
 .comment       0x00000000       0x46 CMakeFiles/AHT20.dir/C_/VSARM/sdk/pico/pico-sdk/src/rp2_common/hardware_vreg/vreg.c.obj
 .debug_frame   0x00000000       0x20 CMakeFiles/AHT20.dir/C_/VSARM/sdk/pico/pico-sdk/src/rp2_common/hardware_vreg/vreg.c.obj
 .ARM.attributes
                0x00000000       0x2c CMakeFiles/AHT20.dir/C_/VSARM/sdk/pico/pico-sdk/src/rp2_common/hardware_vreg/vreg.c.obj
 .text          0x00000000        0x0 CMakeFiles/AHT20.dir/C_/VSARM/sdk/pico/pico-sdk/src/rp2_common/hardware_watchdog/watchdog.c.obj
 .data          0x00000000        0x0 CMakeFiles/AHT20.dir/C_/VSARM/sdk/pico/pico-sdk/src/rp2_common/hardware_watchdog/watchdog.c.obj
 .bss           0x00000000        0x0 CMakeFiles/AHT20.dir/C_/VSARM/sdk/pico/pico-sdk/src/rp2_common/hardware_watchdog/watchdog.c.obj
 .text.watchdog_get_count
                0x00000000       0x10 CMakeFiles/AHT20.dir/C_/VSARM/sdk/pico/pico-sdk/src/rp2_common/hardware_watchdog/watchdog.c.obj
 .text.watchdog_enable
                0x00000000       0x18 CMakeFiles/AHT20.dir/C_/VSARM/sdk/pico/pico-sdk/src/rp2_common/hardware_watchdog/watchdog.c.obj
 .text.watchdog_caused_reboot
                0x00000000       0x10 CMakeFiles/AHT20.dir/C_/VSARM/sdk/pico/pico-sdk/src/rp2_common/hardware_watchdog/watchdog.c.obj
 .text.watchdog_enable_caused_reboot
                0x00000000       0x28 CMakeFiles/AHT20.dir/C_/VSARM/sdk/pico/pico-sdk/src/rp2_common/hardware_watchdog/watchdog.c.obj
 .text          0x00000000        0x0 CMakeFiles/AHT20.dir/C_/VSARM/sdk/pico/pico-sdk/src/rp2_common/hardware_xosc/xosc.c.obj
 .data          0x00000000        0x0 CMakeFiles/AHT20.dir/C_/VSARM/sdk/pico/pico-sdk/src/rp2_common/hardware_xosc/xosc.c.obj
 .bss           0x00000000        0x0 CMakeFiles/AHT20.dir/C_/VSARM/sdk/pico/pico-sdk/src/rp2_common/hardware_xosc/xosc.c.obj
 .text.xosc_disable
                0x00000000       0x24 CMakeFiles/AHT20.dir/C_/VSARM/sdk/pico/pico-sdk/src/rp2_common/hardware_xosc/xosc.c.obj
 .text.xosc_dormant
                0x00000000       0x18 CMakeFiles/AHT20.dir/C_/VSARM/sdk/pico/pico-sdk/src/rp2_common/hardware_xosc/xosc.c.obj
 .text          0x00000000        0x0 CMakeFiles/AHT20.dir/C_/VSARM/sdk/pico/pico-sdk/src/rp2_common/hardware_divider/divider.S.obj
 .data          0x00000000        0x0 CMakeFiles/AHT20.dir/C_/VSARM/sdk/pico/pico-sdk/src/rp2_common/hardware_divider/divider.S.obj
 .bss           0x00000000        0x0 CMakeFiles/AHT20.dir/C_/VSARM/sdk/pico/pico-sdk/src/rp2_common/hardware_divider/divider.S.obj
 .text.hw_divider_divmod_s32
                0x00000000        0xc CMakeFiles/AHT20.dir/C_/VSARM/sdk/pico/pico-sdk/src/rp2_common/hardware_divider/divider.S.obj
 .text.hw_divider_divmod_u32
                0x00000000        0xc CMakeFiles/AHT20.dir/C_/VSARM/sdk/pico/pico-sdk/src/rp2_common/hardware_divider/divider.S.obj
 .text.hw_divider_divmod_return
                0x00000000        0xc CMakeFiles/AHT20.dir/C_/VSARM/sdk/pico/pico-sdk/src/rp2_common/hardware_divider/divider.S.obj
 .text.hw_divider_save_state
                0x00000000       0x14 CMakeFiles/AHT20.dir/C_/VSARM/sdk/pico/pico-sdk/src/rp2_common/hardware_divider/divider.S.obj
 .text.hw_divider_restore_state
                0x00000000       0x14 CMakeFiles/AHT20.dir/C_/VSARM/sdk/pico/pico-sdk/src/rp2_common/hardware_divider/divider.S.obj
 .debug_line    0x00000000       0xa4 CMakeFiles/AHT20.dir/C_/VSARM/sdk/pico/pico-sdk/src/rp2_common/hardware_divider/divider.S.obj
 .debug_line_str
                0x00000000       0x6f CMakeFiles/AHT20.dir/C_/VSARM/sdk/pico/pico-sdk/src/rp2_common/hardware_divider/divider.S.obj
 .debug_info    0x00000000       0x23 CMakeFiles/AHT20.dir/C_/VSARM/sdk/pico/pico-sdk/src/rp2_common/hardware_divider/divider.S.obj
 .debug_abbrev  0x00000000       0x12 CMakeFiles/AHT20.dir/C_/VSARM/sdk/pico/pico-sdk/src/rp2_common/hardware_divider/divider.S.obj
 .debug_aranges
                0x00000000       0x40 CMakeFiles/AHT20.dir/C_/VSARM/sdk/pico/pico-sdk/src/rp2_common/hardware_divider/divider.S.obj
 .debug_str     0x00000000       0x7d CMakeFiles/AHT20.dir/C_/VSARM/sdk/pico/pico-sdk/src/rp2_common/hardware_divider/divider.S.obj
 .debug_rnglists
                0x00000000       0x2b CMakeFiles/AHT20.dir/C_/VSARM/sdk/pico/pico-sdk/src/rp2_common/hardware_divider/divider.S.obj
 .ARM.attributes
                0x00000000       0x22 CMakeFiles/AHT20.dir/C_/VSARM/sdk/pico/pico-sdk/src/rp2_common/hardware_divider/divider.S.obj
 .text          0x00000000        0x0 CMakeFiles/AHT20.dir/C_/VSARM/sdk/pico/pico-sdk/src/rp2_common/pico_runtime/runtime.c.obj
 .data          0x00000000        0x0 CMakeFiles/AHT20.dir/C_/VSARM/sdk/pico/pico-sdk/src/rp2_common/pico_runtime/runtime.c.obj
 .bss           0x00000000        0x0 CMakeFiles/AHT20.dir/C_/VSARM/sdk/pico/pico-sdk/src/rp2_common/pico_runtime/runtime.c.obj
 .text.runtime_install_stack_guard
                0x00000000       0x40 CMakeFiles/AHT20.dir/C_/VSARM/sdk/pico/pico-sdk/src/rp2_common/pico_runtime/runtime.c.obj
 .text._sbrk    0x00000000       0x38 CMakeFiles/AHT20.dir/C_/VSARM/sdk/pico/pico-sdk/src/rp2_common/pico_runtime/runtime.c.obj
 .text._getpid  0x00000000        0x4 CMakeFiles/AHT20.dir/C_/VSARM/sdk/pico/pico-sdk/src/rp2_common/pico_runtime/runtime.c.obj
 .text._kill    0x00000000        0x6 CMakeFiles/AHT20.dir/C_/VSARM/sdk/pico/pico-sdk/src/rp2_common/pico_runtime/runtime.c.obj
 .rodata.update_us_since_boot.str1.4
                0x00000000       0x61 CMakeFiles/AHT20.dir/C_/VSARM/sdk/pico/pico-sdk/src/rp2_common/pico_runtime/runtime.c.obj
 .text.update_us_since_boot
                0x00000000       0x24 CMakeFiles/AHT20.dir/C_/VSARM/sdk/pico/pico-sdk/src/rp2_common/pico_runtime/runtime.c.obj
 .text.get_absolute_time
                0x00000000       0x22 CMakeFiles/AHT20.dir/C_/VSARM/sdk/pico/pico-sdk/src/rp2_common/pico_runtime/runtime.c.obj
 .text._gettimeofday
                0x00000000       0x48 CMakeFiles/AHT20.dir/C_/VSARM/sdk/pico/pico-sdk/src/rp2_common/pico_runtime/runtime.c.obj
 .text.settimeofday
                0x00000000       0x64 CMakeFiles/AHT20.dir/C_/VSARM/sdk/pico/pico-sdk/src/rp2_common/pico_runtime/runtime.c.obj
 .text._times   0x00000000       0x2c CMakeFiles/AHT20.dir/C_/VSARM/sdk/pico/pico-sdk/src/rp2_common/pico_runtime/runtime.c.obj
 .rodata.panic_unsupported.str1.4
                0x00000000        0xe CMakeFiles/AHT20.dir/C_/VSARM/sdk/pico/pico-sdk/src/rp2_common/pico_runtime/runtime.c.obj
 .text.panic_unsupported
                0x00000000        0xc CMakeFiles/AHT20.dir/C_/VSARM/sdk/pico/pico-sdk/src/rp2_common/pico_runtime/runtime.c.obj
 .rodata.hard_assertion_failure.str1.4
                0x00000000        0xc CMakeFiles/AHT20.dir/C_/VSARM/sdk/pico/pico-sdk/src/rp2_common/pico_runtime/runtime.c.obj
 .text.hard_assertion_failure
                0x00000000        0xc CMakeFiles/AHT20.dir/C_/VSARM/sdk/pico/pico-sdk/src/rp2_common/pico_runtime/runtime.c.obj
 .rodata.__func__.0
                0x00000000       0x15 CMakeFiles/AHT20.dir/C_/VSARM/sdk/pico/pico-sdk/src/rp2_common/pico_runtime/runtime.c.obj
 .bss.heap_end.1
                0x00000000        0x4 CMakeFiles/AHT20.dir/C_/VSARM/sdk/pico/pico-sdk/src/rp2_common/pico_runtime/runtime.c.obj
 .bss.epoch_time_us_since_boot
                0x00000000        0x8 CMakeFiles/AHT20.dir/C_/VSARM/sdk/pico/pico-sdk/src/rp2_common/pico_runtime/runtime.c.obj
 .text          0x00000000        0x0 CMakeFiles/AHT20.dir/C_/VSARM/sdk/pico/pico-sdk/src/rp2_common/pico_printf/printf.c.obj
 .data          0x00000000        0x0 CMakeFiles/AHT20.dir/C_/VSARM/sdk/pico/pico-sdk/src/rp2_common/pico_printf/printf.c.obj
 .bss           0x00000000        0x0 CMakeFiles/AHT20.dir/C_/VSARM/sdk/pico/pico-sdk/src/rp2_common/pico_printf/printf.c.obj
 .text._out_buffer
                0x00000000        0x8 CMakeFiles/AHT20.dir/C_/VSARM/sdk/pico/pico-sdk/src/rp2_common/pico_printf/printf.c.obj
 .text.__wrap_sprintf
                0x00000000       0x2c CMakeFiles/AHT20.dir/C_/VSARM/sdk/pico/pico-sdk/src/rp2_common/pico_printf/printf.c.obj
 .text.__wrap_snprintf
                0x00000000       0x28 CMakeFiles/AHT20.dir/C_/VSARM/sdk/pico/pico-sdk/src/rp2_common/pico_printf/printf.c.obj
 .text.__wrap_vsnprintf
                0x00000000       0x1c CMakeFiles/AHT20.dir/C_/VSARM/sdk/pico/pico-sdk/src/rp2_common/pico_printf/printf.c.obj
 .data          0x00000000        0x0 CMakeFiles/AHT20.dir/C_/VSARM/sdk/pico/pico-sdk/src/rp2_common/pico_bit_ops/bit_ops_aeabi.S.obj
 .bss           0x00000000        0x0 CMakeFiles/AHT20.dir/C_/VSARM/sdk/pico/pico-sdk/src/rp2_common/pico_bit_ops/bit_ops_aeabi.S.obj
 .text.clzsi    0x00000000        0xc CMakeFiles/AHT20.dir/C_/VSARM/sdk/pico/pico-sdk/src/rp2_common/pico_bit_ops/bit_ops_aeabi.S.obj
 .text.ctzsi    0x00000000        0xc CMakeFiles/AHT20.dir/C_/VSARM/sdk/pico/pico-sdk/src/rp2_common/pico_bit_ops/bit_ops_aeabi.S.obj
 .text.popcountsi
                0x00000000        0xc CMakeFiles/AHT20.dir/C_/VSARM/sdk/pico/pico-sdk/src/rp2_common/pico_bit_ops/bit_ops_aeabi.S.obj
 .text.clzdi    0x00000000       0x18 CMakeFiles/AHT20.dir/C_/VSARM/sdk/pico/pico-sdk/src/rp2_common/pico_bit_ops/bit_ops_aeabi.S.obj
 .text.ctzdi    0x00000000       0x18 CMakeFiles/AHT20.dir/C_/VSARM/sdk/pico/pico-sdk/src/rp2_common/pico_bit_ops/bit_ops_aeabi.S.obj
 .text.popcountdi
                0x00000000       0x18 CMakeFiles/AHT20.dir/C_/VSARM/sdk/pico/pico-sdk/src/rp2_common/pico_bit_ops/bit_ops_aeabi.S.obj
 .text.reverse32
                0x00000000        0xc CMakeFiles/AHT20.dir/C_/VSARM/sdk/pico/pico-sdk/src/rp2_common/pico_bit_ops/bit_ops_aeabi.S.obj
 .text.__rev    0x00000000        0xc CMakeFiles/AHT20.dir/C_/VSARM/sdk/pico/pico-sdk/src/rp2_common/pico_bit_ops/bit_ops_aeabi.S.obj
 .text.__revll  0x00000000       0x18 CMakeFiles/AHT20.dir/C_/VSARM/sdk/pico/pico-sdk/src/rp2_common/pico_bit_ops/bit_ops_aeabi.S.obj
 .text          0x00000000        0x0 CMakeFiles/AHT20.dir/C_/VSARM/sdk/pico/pico-sdk/src/rp2_common/pico_bootrom/bootrom.c.obj
 .data          0x00000000        0x0 CMakeFiles/AHT20.dir/C_/VSARM/sdk/pico/pico-sdk/src/rp2_common/pico_bootrom/bootrom.c.obj
 .bss           0x00000000        0x0 CMakeFiles/AHT20.dir/C_/VSARM/sdk/pico/pico-sdk/src/rp2_common/pico_bootrom/bootrom.c.obj
 .text          0x00000000        0x0 CMakeFiles/AHT20.dir/C_/VSARM/sdk/pico/pico-sdk/src/rp2_common/pico_divider/divider.S.obj
 .data          0x00000000        0x0 CMakeFiles/AHT20.dir/C_/VSARM/sdk/pico/pico-sdk/src/rp2_common/pico_divider/divider.S.obj
 .bss           0x00000000        0x0 CMakeFiles/AHT20.dir/C_/VSARM/sdk/pico/pico-sdk/src/rp2_common/pico_divider/divider.S.obj
 .text.divmod_s64s64_rem
                0x00000000        0xc CMakeFiles/AHT20.dir/C_/VSARM/sdk/pico/pico-sdk/src/rp2_common/pico_divider/divider.S.obj
 .text.divmod_u64u64_rem
                0x00000000        0xc CMakeFiles/AHT20.dir/C_/VSARM/sdk/pico/pico-sdk/src/rp2_common/pico_divider/divider.S.obj
 .text          0x00000000        0x0 CMakeFiles/AHT20.dir/C_/VSARM/sdk/pico/pico-sdk/src/rp2_common/pico_double/double_aeabi.S.obj
 .data          0x00000000        0x0 CMakeFiles/AHT20.dir/C_/VSARM/sdk/pico/pico-sdk/src/rp2_common/pico_double/double_aeabi.S.obj
 .bss           0x00000000        0x0 CMakeFiles/AHT20.dir/C_/VSARM/sdk/pico/pico-sdk/src/rp2_common/pico_double/double_aeabi.S.obj
 .text.push_r8_r11
                0x00000000        0xc CMakeFiles/AHT20.dir/C_/VSARM/sdk/pico/pico-sdk/src/rp2_common/pico_double/double_aeabi.S.obj
 .text.pop_r8_r11
                0x00000000        0xc CMakeFiles/AHT20.dir/C_/VSARM/sdk/pico/pico-sdk/src/rp2_common/pico_double/double_aeabi.S.obj
 .text.__wrap___aeabi_dcmpeq
                0x00000000       0x10 CMakeFiles/AHT20.dir/C_/VSARM/sdk/pico/pico-sdk/src/rp2_common/pico_double/double_aeabi.S.obj
 .text.__wrap___aeabi_ui2d
                0x00000000       0x10 CMakeFiles/AHT20.dir/C_/VSARM/sdk/pico/pico-sdk/src/rp2_common/pico_double/double_aeabi.S.obj
 .text.double2int
                0x00000000       0x10 CMakeFiles/AHT20.dir/C_/VSARM/sdk/pico/pico-sdk/src/rp2_common/pico_double/double_aeabi.S.obj
 .text.fix2double
                0x00000000       0x10 CMakeFiles/AHT20.dir/C_/VSARM/sdk/pico/pico-sdk/src/rp2_common/pico_double/double_aeabi.S.obj
 .text.ufix2double
                0x00000000       0x18 CMakeFiles/AHT20.dir/C_/VSARM/sdk/pico/pico-sdk/src/rp2_common/pico_double/double_aeabi.S.obj
 .text.fix642double
                0x00000000       0x10 CMakeFiles/AHT20.dir/C_/VSARM/sdk/pico/pico-sdk/src/rp2_common/pico_double/double_aeabi.S.obj
 .text.__wrap___aeabi_l2d
                0x00000000       0x10 CMakeFiles/AHT20.dir/C_/VSARM/sdk/pico/pico-sdk/src/rp2_common/pico_double/double_aeabi.S.obj
 .text.__wrap___aeabi_ul2d
                0x00000000       0x10 CMakeFiles/AHT20.dir/C_/VSARM/sdk/pico/pico-sdk/src/rp2_common/pico_double/double_aeabi.S.obj
 .text.__wrap___aeabi_d2lz
                0x00000000       0x26 CMakeFiles/AHT20.dir/C_/VSARM/sdk/pico/pico-sdk/src/rp2_common/pico_double/double_aeabi.S.obj
 .text.double2int64
                0x00000000       0x10 CMakeFiles/AHT20.dir/C_/VSARM/sdk/pico/pico-sdk/src/rp2_common/pico_double/double_aeabi.S.obj
 .text.__wrap___aeabi_d2ulz
                0x00000000       0x10 CMakeFiles/AHT20.dir/C_/VSARM/sdk/pico/pico-sdk/src/rp2_common/pico_double/double_aeabi.S.obj
 .text.double2fix64
                0x00000000       0x10 CMakeFiles/AHT20.dir/C_/VSARM/sdk/pico/pico-sdk/src/rp2_common/pico_double/double_aeabi.S.obj
 .text.double2ufix64
                0x00000000       0x10 CMakeFiles/AHT20.dir/C_/VSARM/sdk/pico/pico-sdk/src/rp2_common/pico_double/double_aeabi.S.obj
 .text.double2fix
                0x00000000       0x10 CMakeFiles/AHT20.dir/C_/VSARM/sdk/pico/pico-sdk/src/rp2_common/pico_double/double_aeabi.S.obj
 .text.double2ufix
                0x00000000       0x10 CMakeFiles/AHT20.dir/C_/VSARM/sdk/pico/pico-sdk/src/rp2_common/pico_double/double_aeabi.S.obj
 .text.__wrap___aeabi_d2f
                0x00000000       0x10 CMakeFiles/AHT20.dir/C_/VSARM/sdk/pico/pico-sdk/src/rp2_common/pico_double/double_aeabi.S.obj
 .text.__wrap_srqt
                0x00000000       0x10 CMakeFiles/AHT20.dir/C_/VSARM/sdk/pico/pico-sdk/src/rp2_common/pico_double/double_aeabi.S.obj
 .text.__wrap_sincostan_remainder
                0x00000000       0x14 CMakeFiles/AHT20.dir/C_/VSARM/sdk/pico/pico-sdk/src/rp2_common/pico_double/double_aeabi.S.obj
 .text.__wrap_cos
                0x00000000       0x24 CMakeFiles/AHT20.dir/C_/VSARM/sdk/pico/pico-sdk/src/rp2_common/pico_double/double_aeabi.S.obj
 .text.__wrap_sin
                0x00000000       0x24 CMakeFiles/AHT20.dir/C_/VSARM/sdk/pico/pico-sdk/src/rp2_common/pico_double/double_aeabi.S.obj
 .text.__wrap_sincos
                0x00000000       0x8c CMakeFiles/AHT20.dir/C_/VSARM/sdk/pico/pico-sdk/src/rp2_common/pico_double/double_aeabi.S.obj
 .text.__wrap_tan
                0x00000000       0x54 CMakeFiles/AHT20.dir/C_/VSARM/sdk/pico/pico-sdk/src/rp2_common/pico_double/double_aeabi.S.obj
 .text.__wrap_atan2
                0x00000000       0x10 CMakeFiles/AHT20.dir/C_/VSARM/sdk/pico/pico-sdk/src/rp2_common/pico_double/double_aeabi.S.obj
 .text.__wrap_exp
                0x00000000       0x10 CMakeFiles/AHT20.dir/C_/VSARM/sdk/pico/pico-sdk/src/rp2_common/pico_double/double_aeabi.S.obj
 .text.__wrap_log
                0x00000000       0x10 CMakeFiles/AHT20.dir/C_/VSARM/sdk/pico/pico-sdk/src/rp2_common/pico_double/double_aeabi.S.obj
 .text          0x00000000        0x0 CMakeFiles/AHT20.dir/C_/VSARM/sdk/pico/pico-sdk/src/rp2_common/pico_double/double_init_rom.c.obj
 .data          0x00000000        0x0 CMakeFiles/AHT20.dir/C_/VSARM/sdk/pico/pico-sdk/src/rp2_common/pico_double/double_init_rom.c.obj
 .bss           0x00000000        0x0 CMakeFiles/AHT20.dir/C_/VSARM/sdk/pico/pico-sdk/src/rp2_common/pico_double/double_init_rom.c.obj
 .text          0x00000000        0x0 CMakeFiles/AHT20.dir/C_/VSARM/sdk/pico/pico-sdk/src/rp2_common/pico_double/double_math.c.obj
 .data          0x00000000        0x0 CMakeFiles/AHT20.dir/C_/VSARM/sdk/pico/pico-sdk/src/rp2_common/pico_double/double_math.c.obj
 .bss           0x00000000        0x0 CMakeFiles/AHT20.dir/C_/VSARM/sdk/pico/pico-sdk/src/rp2_common/pico_double/double_math.c.obj
 .text.dldexp   0x00000000       0x50 CMakeFiles/AHT20.dir/C_/VSARM/sdk/pico/pico-sdk/src/rp2_common/pico_double/double_math.c.obj
 .text.disint   0x00000000       0x60 CMakeFiles/AHT20.dir/C_/VSARM/sdk/pico/pico-sdk/src/rp2_common/pico_double/double_math.c.obj
 .text.disoddint
                0x00000000       0x7c CMakeFiles/AHT20.dir/C_/VSARM/sdk/pico/pico-sdk/src/rp2_common/pico_double/double_math.c.obj
 .text.dispo2   0x00000000       0x28 CMakeFiles/AHT20.dir/C_/VSARM/sdk/pico/pico-sdk/src/rp2_common/pico_double/double_math.c.obj
 .text.dpow_int2
                0x00000000       0x2c CMakeFiles/AHT20.dir/C_/VSARM/sdk/pico/pico-sdk/src/rp2_common/pico_double/double_math.c.obj
 .text.dpowint_1
                0x00000000       0x24 CMakeFiles/AHT20.dir/C_/VSARM/sdk/pico/pico-sdk/src/rp2_common/pico_double/double_math.c.obj
 .text.drem_0   0x00000000      0x122 CMakeFiles/AHT20.dir/C_/VSARM/sdk/pico/pico-sdk/src/rp2_common/pico_double/double_math.c.obj
 .text.dpow_1   0x00000000      0x1dc CMakeFiles/AHT20.dir/C_/VSARM/sdk/pico/pico-sdk/src/rp2_common/pico_double/double_math.c.obj
 .text.dpowint_0
                0x00000000       0xb4 CMakeFiles/AHT20.dir/C_/VSARM/sdk/pico/pico-sdk/src/rp2_common/pico_double/double_math.c.obj
 .text.dpow_0   0x00000000       0xd8 CMakeFiles/AHT20.dir/C_/VSARM/sdk/pico/pico-sdk/src/rp2_common/pico_double/double_math.c.obj
 .text.__wrap_ldexp
                0x00000000        0x8 CMakeFiles/AHT20.dir/C_/VSARM/sdk/pico/pico-sdk/src/rp2_common/pico_double/double_math.c.obj
 .text.__wrap_copysign
                0x00000000       0x10 CMakeFiles/AHT20.dir/C_/VSARM/sdk/pico/pico-sdk/src/rp2_common/pico_double/double_math.c.obj
 .text.__wrap_trunc
                0x00000000       0x58 CMakeFiles/AHT20.dir/C_/VSARM/sdk/pico/pico-sdk/src/rp2_common/pico_double/double_math.c.obj
 .text.__wrap_round
                0x00000000       0x98 CMakeFiles/AHT20.dir/C_/VSARM/sdk/pico/pico-sdk/src/rp2_common/pico_double/double_math.c.obj
 .text.__wrap_floor
                0x00000000       0x98 CMakeFiles/AHT20.dir/C_/VSARM/sdk/pico/pico-sdk/src/rp2_common/pico_double/double_math.c.obj
 .text.__wrap_ceil
                0x00000000       0x98 CMakeFiles/AHT20.dir/C_/VSARM/sdk/pico/pico-sdk/src/rp2_common/pico_double/double_math.c.obj
 .text.__wrap_asin
                0x00000000       0x58 CMakeFiles/AHT20.dir/C_/VSARM/sdk/pico/pico-sdk/src/rp2_common/pico_double/double_math.c.obj
 .text.__wrap_acos
                0x00000000       0x54 CMakeFiles/AHT20.dir/C_/VSARM/sdk/pico/pico-sdk/src/rp2_common/pico_double/double_math.c.obj
 .text.__wrap_atan
                0x00000000       0x40 CMakeFiles/AHT20.dir/C_/VSARM/sdk/pico/pico-sdk/src/rp2_common/pico_double/double_math.c.obj
 .text.__wrap_sinh
                0x00000000       0x30 CMakeFiles/AHT20.dir/C_/VSARM/sdk/pico/pico-sdk/src/rp2_common/pico_double/double_math.c.obj
 .text.__wrap_cosh
                0x00000000       0x30 CMakeFiles/AHT20.dir/C_/VSARM/sdk/pico/pico-sdk/src/rp2_common/pico_double/double_math.c.obj
 .text.__wrap_tanh
                0x00000000       0x60 CMakeFiles/AHT20.dir/C_/VSARM/sdk/pico/pico-sdk/src/rp2_common/pico_double/double_math.c.obj
 .text.__wrap_asinh
                0x00000000       0xb0 CMakeFiles/AHT20.dir/C_/VSARM/sdk/pico/pico-sdk/src/rp2_common/pico_double/double_math.c.obj
 .text.__wrap_acosh
                0x00000000       0x78 CMakeFiles/AHT20.dir/C_/VSARM/sdk/pico/pico-sdk/src/rp2_common/pico_double/double_math.c.obj
 .text.__wrap_atanh
                0x00000000       0x3c CMakeFiles/AHT20.dir/C_/VSARM/sdk/pico/pico-sdk/src/rp2_common/pico_double/double_math.c.obj
 .text.__wrap_exp2
                0x00000000       0x88 CMakeFiles/AHT20.dir/C_/VSARM/sdk/pico/pico-sdk/src/rp2_common/pico_double/double_math.c.obj
 .text.__wrap_log2
                0x00000000       0x18 CMakeFiles/AHT20.dir/C_/VSARM/sdk/pico/pico-sdk/src/rp2_common/pico_double/double_math.c.obj
 .text.__wrap_exp10
                0x00000000       0x14 CMakeFiles/AHT20.dir/C_/VSARM/sdk/pico/pico-sdk/src/rp2_common/pico_double/double_math.c.obj
 .text.__wrap_log10
                0x00000000       0x18 CMakeFiles/AHT20.dir/C_/VSARM/sdk/pico/pico-sdk/src/rp2_common/pico_double/double_math.c.obj
 .text.__wrap_expm1
                0x00000000       0x14 CMakeFiles/AHT20.dir/C_/VSARM/sdk/pico/pico-sdk/src/rp2_common/pico_double/double_math.c.obj
 .text.__wrap_log1p
                0x00000000       0x14 CMakeFiles/AHT20.dir/C_/VSARM/sdk/pico/pico-sdk/src/rp2_common/pico_double/double_math.c.obj
 .text.__wrap_fma
                0x00000000       0x10 CMakeFiles/AHT20.dir/C_/VSARM/sdk/pico/pico-sdk/src/rp2_common/pico_double/double_math.c.obj
 .text.__wrap_powint
                0x00000000       0xb8 CMakeFiles/AHT20.dir/C_/VSARM/sdk/pico/pico-sdk/src/rp2_common/pico_double/double_math.c.obj
 .text.__wrap_pow
                0x00000000      0x168 CMakeFiles/AHT20.dir/C_/VSARM/sdk/pico/pico-sdk/src/rp2_common/pico_double/double_math.c.obj
 .text.__wrap_hypot
                0x00000000      0x108 CMakeFiles/AHT20.dir/C_/VSARM/sdk/pico/pico-sdk/src/rp2_common/pico_double/double_math.c.obj
 .text.__wrap_cbrt
                0x00000000       0x74 CMakeFiles/AHT20.dir/C_/VSARM/sdk/pico/pico-sdk/src/rp2_common/pico_double/double_math.c.obj
 .text.__wrap_fmod
                0x00000000       0xa8 CMakeFiles/AHT20.dir/C_/VSARM/sdk/pico/pico-sdk/src/rp2_common/pico_double/double_math.c.obj
 .text.__wrap_remquo
                0x00000000      0x164 CMakeFiles/AHT20.dir/C_/VSARM/sdk/pico/pico-sdk/src/rp2_common/pico_double/double_math.c.obj
 .text.__wrap_drem
                0x00000000       0x10 CMakeFiles/AHT20.dir/C_/VSARM/sdk/pico/pico-sdk/src/rp2_common/pico_double/double_math.c.obj
 .text.__wrap_remainder
                0x00000000       0x10 CMakeFiles/AHT20.dir/C_/VSARM/sdk/pico/pico-sdk/src/rp2_common/pico_double/double_math.c.obj
 .debug_info    0x00000000     0x3be6 CMakeFiles/AHT20.dir/C_/VSARM/sdk/pico/pico-sdk/src/rp2_common/pico_double/double_math.c.obj
 .debug_abbrev  0x00000000      0x2b3 CMakeFiles/AHT20.dir/C_/VSARM/sdk/pico/pico-sdk/src/rp2_common/pico_double/double_math.c.obj
 .debug_loclists
                0x00000000     0x3016 CMakeFiles/AHT20.dir/C_/VSARM/sdk/pico/pico-sdk/src/rp2_common/pico_double/double_math.c.obj
 .debug_aranges
                0x00000000      0x158 CMakeFiles/AHT20.dir/C_/VSARM/sdk/pico/pico-sdk/src/rp2_common/pico_double/double_math.c.obj
 .debug_rnglists
                0x00000000      0x10b CMakeFiles/AHT20.dir/C_/VSARM/sdk/pico/pico-sdk/src/rp2_common/pico_double/double_math.c.obj
 .debug_line    0x00000000     0x1f06 CMakeFiles/AHT20.dir/C_/VSARM/sdk/pico/pico-sdk/src/rp2_common/pico_double/double_math.c.obj
 .debug_str     0x00000000      0x510 CMakeFiles/AHT20.dir/C_/VSARM/sdk/pico/pico-sdk/src/rp2_common/pico_double/double_math.c.obj
 .comment       0x00000000       0x46 CMakeFiles/AHT20.dir/C_/VSARM/sdk/pico/pico-sdk/src/rp2_common/pico_double/double_math.c.obj
 .debug_frame   0x00000000      0x4c8 CMakeFiles/AHT20.dir/C_/VSARM/sdk/pico/pico-sdk/src/rp2_common/pico_double/double_math.c.obj
 .ARM.attributes
                0x00000000       0x2c CMakeFiles/AHT20.dir/C_/VSARM/sdk/pico/pico-sdk/src/rp2_common/pico_double/double_math.c.obj
 .text          0x00000000        0x0 CMakeFiles/AHT20.dir/C_/VSARM/sdk/pico/pico-sdk/src/rp2_common/pico_double/double_v1_rom_shim.S.obj
 .data          0x00000000        0x0 CMakeFiles/AHT20.dir/C_/VSARM/sdk/pico/pico-sdk/src/rp2_common/pico_double/double_v1_rom_shim.S.obj
 .bss           0x00000000        0x0 CMakeFiles/AHT20.dir/C_/VSARM/sdk/pico/pico-sdk/src/rp2_common/pico_double/double_v1_rom_shim.S.obj
 .text          0x00000000        0x0 CMakeFiles/AHT20.dir/C_/VSARM/sdk/pico/pico-sdk/src/rp2_common/pico_int64_ops/pico_int64_ops_aeabi.S.obj
 .data          0x00000000        0x0 CMakeFiles/AHT20.dir/C_/VSARM/sdk/pico/pico-sdk/src/rp2_common/pico_int64_ops/pico_int64_ops_aeabi.S.obj
 .bss           0x00000000        0x0 CMakeFiles/AHT20.dir/C_/VSARM/sdk/pico/pico-sdk/src/rp2_common/pico_int64_ops/pico_int64_ops_aeabi.S.obj
 .text          0x00000000        0x0 CMakeFiles/AHT20.dir/C_/VSARM/sdk/pico/pico-sdk/src/rp2_common/pico_float/float_aeabi.S.obj
 .data          0x00000000        0x0 CMakeFiles/AHT20.dir/C_/VSARM/sdk/pico/pico-sdk/src/rp2_common/pico_float/float_aeabi.S.obj
 .bss           0x00000000        0x0 CMakeFiles/AHT20.dir/C_/VSARM/sdk/pico/pico-sdk/src/rp2_common/pico_float/float_aeabi.S.obj
 .text.__wrap___aeabi_farithmetic
                0x00000000       0x48 CMakeFiles/AHT20.dir/C_/VSARM/sdk/pico/pico-sdk/src/rp2_common/pico_float/float_aeabi.S.obj
 .text.__wrap___aeabi_cfcmple
                0x00000000       0x50 CMakeFiles/AHT20.dir/C_/VSARM/sdk/pico/pico-sdk/src/rp2_common/pico_float/float_aeabi.S.obj
 .text.__wrap___aeabi_fcmpeq
                0x00000000       0x10 CMakeFiles/AHT20.dir/C_/VSARM/sdk/pico/pico-sdk/src/rp2_common/pico_float/float_aeabi.S.obj
 .text.__wrap___aeabi_fcmplt
                0x00000000        0xc CMakeFiles/AHT20.dir/C_/VSARM/sdk/pico/pico-sdk/src/rp2_common/pico_float/float_aeabi.S.obj
 .text.__wrap___aeabi_fcmple
                0x00000000       0x10 CMakeFiles/AHT20.dir/C_/VSARM/sdk/pico/pico-sdk/src/rp2_common/pico_float/float_aeabi.S.obj
 .text.__wrap___aeabi_fcmpge
                0x00000000       0x10 CMakeFiles/AHT20.dir/C_/VSARM/sdk/pico/pico-sdk/src/rp2_common/pico_float/float_aeabi.S.obj
 .text.__wrap___aeabi_fcmpgt
                0x00000000        0xa CMakeFiles/AHT20.dir/C_/VSARM/sdk/pico/pico-sdk/src/rp2_common/pico_float/float_aeabi.S.obj
 .text.__wrap___aeabi_fcmpun
                0x00000000       0x18 CMakeFiles/AHT20.dir/C_/VSARM/sdk/pico/pico-sdk/src/rp2_common/pico_float/float_aeabi.S.obj
 .text.__wrap___aeabi_ui2f
                0x00000000        0xa CMakeFiles/AHT20.dir/C_/VSARM/sdk/pico/pico-sdk/src/rp2_common/pico_float/float_aeabi.S.obj
 .text.__wrap___aeabi_i2f
                0x00000000       0x44 CMakeFiles/AHT20.dir/C_/VSARM/sdk/pico/pico-sdk/src/rp2_common/pico_float/float_aeabi.S.obj
 .text.__wrap___aeabi_f2iz
                0x00000000       0x4e CMakeFiles/AHT20.dir/C_/VSARM/sdk/pico/pico-sdk/src/rp2_common/pico_float/float_aeabi.S.obj
 .text.float2int
                0x00000000        0xc CMakeFiles/AHT20.dir/C_/VSARM/sdk/pico/pico-sdk/src/rp2_common/pico_float/float_aeabi.S.obj
 .text.float2fix
                0x00000000        0xc CMakeFiles/AHT20.dir/C_/VSARM/sdk/pico/pico-sdk/src/rp2_common/pico_float/float_aeabi.S.obj
 .text.float2ufix
                0x00000000        0xc CMakeFiles/AHT20.dir/C_/VSARM/sdk/pico/pico-sdk/src/rp2_common/pico_float/float_aeabi.S.obj
 .text.__wrap___aeabi_f2uiz
                0x00000000        0xc CMakeFiles/AHT20.dir/C_/VSARM/sdk/pico/pico-sdk/src/rp2_common/pico_float/float_aeabi.S.obj
 .text.fix2float
                0x00000000        0xc CMakeFiles/AHT20.dir/C_/VSARM/sdk/pico/pico-sdk/src/rp2_common/pico_float/float_aeabi.S.obj
 .text.ufix2float
                0x00000000        0xc CMakeFiles/AHT20.dir/C_/VSARM/sdk/pico/pico-sdk/src/rp2_common/pico_float/float_aeabi.S.obj
 .text.fix642float
                0x00000000        0xc CMakeFiles/AHT20.dir/C_/VSARM/sdk/pico/pico-sdk/src/rp2_common/pico_float/float_aeabi.S.obj
 .text.ufix642float
                0x00000000        0xc CMakeFiles/AHT20.dir/C_/VSARM/sdk/pico/pico-sdk/src/rp2_common/pico_float/float_aeabi.S.obj
 .text.__wrap___aeabi_l2f
                0x00000000       0x18 CMakeFiles/AHT20.dir/C_/VSARM/sdk/pico/pico-sdk/src/rp2_common/pico_float/float_aeabi.S.obj
 .text.__wrap___aeabi_ul2f
                0x00000000       0x18 CMakeFiles/AHT20.dir/C_/VSARM/sdk/pico/pico-sdk/src/rp2_common/pico_float/float_aeabi.S.obj
 .text.__wrap___aeabi_f2lz
                0x00000000       0x26 CMakeFiles/AHT20.dir/C_/VSARM/sdk/pico/pico-sdk/src/rp2_common/pico_float/float_aeabi.S.obj
 .text.float2int64
                0x00000000        0xc CMakeFiles/AHT20.dir/C_/VSARM/sdk/pico/pico-sdk/src/rp2_common/pico_float/float_aeabi.S.obj
 .text.float2fix64
                0x00000000        0xc CMakeFiles/AHT20.dir/C_/VSARM/sdk/pico/pico-sdk/src/rp2_common/pico_float/float_aeabi.S.obj
 .text.__wrap___aeabi_f2ulz
                0x00000000        0xc CMakeFiles/AHT20.dir/C_/VSARM/sdk/pico/pico-sdk/src/rp2_common/pico_float/float_aeabi.S.obj
 .text.float2ufix64
                0x00000000        0xc CMakeFiles/AHT20.dir/C_/VSARM/sdk/pico/pico-sdk/src/rp2_common/pico_float/float_aeabi.S.obj
 .text.__wrap___aeabi_f2d
                0x00000000        0xc CMakeFiles/AHT20.dir/C_/VSARM/sdk/pico/pico-sdk/src/rp2_common/pico_float/float_aeabi.S.obj
 .text.__wrap_sqrtf
                0x00000000        0xc CMakeFiles/AHT20.dir/C_/VSARM/sdk/pico/pico-sdk/src/rp2_common/pico_float/float_aeabi.S.obj
 .text.__wrap_cosf
                0x00000000       0x24 CMakeFiles/AHT20.dir/C_/VSARM/sdk/pico/pico-sdk/src/rp2_common/pico_float/float_aeabi.S.obj
 .text.__wrap_sinf
                0x00000000       0x24 CMakeFiles/AHT20.dir/C_/VSARM/sdk/pico/pico-sdk/src/rp2_common/pico_float/float_aeabi.S.obj
 .text.__wrap_sincosf
                0x00000000       0x30 CMakeFiles/AHT20.dir/C_/VSARM/sdk/pico/pico-sdk/src/rp2_common/pico_float/float_aeabi.S.obj
 .text.__wrap_tanf
                0x00000000       0x4c CMakeFiles/AHT20.dir/C_/VSARM/sdk/pico/pico-sdk/src/rp2_common/pico_float/float_aeabi.S.obj
 .text.__wrap_atan2f
                0x00000000        0xc CMakeFiles/AHT20.dir/C_/VSARM/sdk/pico/pico-sdk/src/rp2_common/pico_float/float_aeabi.S.obj
 .text.__wrap_expf
                0x00000000        0xc CMakeFiles/AHT20.dir/C_/VSARM/sdk/pico/pico-sdk/src/rp2_common/pico_float/float_aeabi.S.obj
 .text.__wrap_logf
                0x00000000        0xc CMakeFiles/AHT20.dir/C_/VSARM/sdk/pico/pico-sdk/src/rp2_common/pico_float/float_aeabi.S.obj
 .text          0x00000000        0x0 CMakeFiles/AHT20.dir/C_/VSARM/sdk/pico/pico-sdk/src/rp2_common/pico_float/float_init_rom.c.obj
 .data          0x00000000        0x0 CMakeFiles/AHT20.dir/C_/VSARM/sdk/pico/pico-sdk/src/rp2_common/pico_float/float_init_rom.c.obj
 .bss           0x00000000        0x0 CMakeFiles/AHT20.dir/C_/VSARM/sdk/pico/pico-sdk/src/rp2_common/pico_float/float_init_rom.c.obj
 .bss.sf_clz_func
                0x00000000        0x4 CMakeFiles/AHT20.dir/C_/VSARM/sdk/pico/pico-sdk/src/rp2_common/pico_float/float_init_rom.c.obj
 .text          0x00000000        0x0 CMakeFiles/AHT20.dir/C_/VSARM/sdk/pico/pico-sdk/src/rp2_common/pico_float/float_math.c.obj
 .data          0x00000000        0x0 CMakeFiles/AHT20.dir/C_/VSARM/sdk/pico/pico-sdk/src/rp2_common/pico_float/float_math.c.obj
 .bss           0x00000000        0x0 CMakeFiles/AHT20.dir/C_/VSARM/sdk/pico/pico-sdk/src/rp2_common/pico_float/float_math.c.obj
 .text.fldexp   0x00000000       0x34 CMakeFiles/AHT20.dir/C_/VSARM/sdk/pico/pico-sdk/src/rp2_common/pico_float/float_math.c.obj
 .text.fisint   0x00000000       0x38 CMakeFiles/AHT20.dir/C_/VSARM/sdk/pico/pico-sdk/src/rp2_common/pico_float/float_math.c.obj
 .text.fisoddint
                0x00000000       0x36 CMakeFiles/AHT20.dir/C_/VSARM/sdk/pico/pico-sdk/src/rp2_common/pico_float/float_math.c.obj
 .text.fispo2   0x00000000       0x20 CMakeFiles/AHT20.dir/C_/VSARM/sdk/pico/pico-sdk/src/rp2_common/pico_float/float_math.c.obj
 .text.fpow_int2
                0x00000000       0x26 CMakeFiles/AHT20.dir/C_/VSARM/sdk/pico/pico-sdk/src/rp2_common/pico_float/float_math.c.obj
 .text.fpowint_1
                0x00000000       0x1c CMakeFiles/AHT20.dir/C_/VSARM/sdk/pico/pico-sdk/src/rp2_common/pico_float/float_math.c.obj
 .text.frem_0   0x00000000       0x7c CMakeFiles/AHT20.dir/C_/VSARM/sdk/pico/pico-sdk/src/rp2_common/pico_float/float_math.c.obj
 .text.fpow_1   0x00000000       0x2c CMakeFiles/AHT20.dir/C_/VSARM/sdk/pico/pico-sdk/src/rp2_common/pico_float/float_math.c.obj
 .text.fpowint_0
                0x00000000       0xb0 CMakeFiles/AHT20.dir/C_/VSARM/sdk/pico/pico-sdk/src/rp2_common/pico_float/float_math.c.obj
 .text.fpow_0   0x00000000       0xb0 CMakeFiles/AHT20.dir/C_/VSARM/sdk/pico/pico-sdk/src/rp2_common/pico_float/float_math.c.obj
 .text.__wrap_ldexpf
                0x00000000        0x8 CMakeFiles/AHT20.dir/C_/VSARM/sdk/pico/pico-sdk/src/rp2_common/pico_float/float_math.c.obj
 .text.__wrap_copysignf
                0x00000000        0xc CMakeFiles/AHT20.dir/C_/VSARM/sdk/pico/pico-sdk/src/rp2_common/pico_float/float_math.c.obj
 .text.__wrap_truncf
                0x00000000       0x22 CMakeFiles/AHT20.dir/C_/VSARM/sdk/pico/pico-sdk/src/rp2_common/pico_float/float_math.c.obj
 .text.__wrap_roundf
                0x00000000       0x3e CMakeFiles/AHT20.dir/C_/VSARM/sdk/pico/pico-sdk/src/rp2_common/pico_float/float_math.c.obj
 .text.__wrap_floorf
                0x00000000       0x44 CMakeFiles/AHT20.dir/C_/VSARM/sdk/pico/pico-sdk/src/rp2_common/pico_float/float_math.c.obj
 .text.__wrap_ceilf
                0x00000000       0x44 CMakeFiles/AHT20.dir/C_/VSARM/sdk/pico/pico-sdk/src/rp2_common/pico_float/float_math.c.obj
 .text.__wrap_asinf
                0x00000000       0x42 CMakeFiles/AHT20.dir/C_/VSARM/sdk/pico/pico-sdk/src/rp2_common/pico_float/float_math.c.obj
 .text.__wrap_acosf
                0x00000000       0x40 CMakeFiles/AHT20.dir/C_/VSARM/sdk/pico/pico-sdk/src/rp2_common/pico_float/float_math.c.obj
 .text.__wrap_atanf
                0x00000000       0x2c CMakeFiles/AHT20.dir/C_/VSARM/sdk/pico/pico-sdk/src/rp2_common/pico_float/float_math.c.obj
 .text.__wrap_sinhf
                0x00000000       0x26 CMakeFiles/AHT20.dir/C_/VSARM/sdk/pico/pico-sdk/src/rp2_common/pico_float/float_math.c.obj
 .text.__wrap_coshf
                0x00000000       0x26 CMakeFiles/AHT20.dir/C_/VSARM/sdk/pico/pico-sdk/src/rp2_common/pico_float/float_math.c.obj
 .text.__wrap_tanhf
                0x00000000       0x48 CMakeFiles/AHT20.dir/C_/VSARM/sdk/pico/pico-sdk/src/rp2_common/pico_float/float_math.c.obj
 .text.__wrap_asinhf
                0x00000000       0xb8 CMakeFiles/AHT20.dir/C_/VSARM/sdk/pico/pico-sdk/src/rp2_common/pico_float/float_math.c.obj
 .text.__wrap_acoshf
                0x00000000       0x74 CMakeFiles/AHT20.dir/C_/VSARM/sdk/pico/pico-sdk/src/rp2_common/pico_float/float_math.c.obj
 .text.__wrap_atanhf
                0x00000000       0x2e CMakeFiles/AHT20.dir/C_/VSARM/sdk/pico/pico-sdk/src/rp2_common/pico_float/float_math.c.obj
 .text.__wrap_exp2f
                0x00000000       0x20 CMakeFiles/AHT20.dir/C_/VSARM/sdk/pico/pico-sdk/src/rp2_common/pico_float/float_math.c.obj
 .text.__wrap_log2f
                0x00000000       0x14 CMakeFiles/AHT20.dir/C_/VSARM/sdk/pico/pico-sdk/src/rp2_common/pico_float/float_math.c.obj
 .text.__wrap_exp10f
                0x00000000       0x20 CMakeFiles/AHT20.dir/C_/VSARM/sdk/pico/pico-sdk/src/rp2_common/pico_float/float_math.c.obj
 .text.__wrap_log10f
                0x00000000       0x14 CMakeFiles/AHT20.dir/C_/VSARM/sdk/pico/pico-sdk/src/rp2_common/pico_float/float_math.c.obj
 .text.__wrap_expm1f
                0x00000000       0x1c CMakeFiles/AHT20.dir/C_/VSARM/sdk/pico/pico-sdk/src/rp2_common/pico_float/float_math.c.obj
 .text.__wrap_log1pf
                0x00000000       0x1c CMakeFiles/AHT20.dir/C_/VSARM/sdk/pico/pico-sdk/src/rp2_common/pico_float/float_math.c.obj
 .text.__wrap_fmaf
                0x00000000       0x3c CMakeFiles/AHT20.dir/C_/VSARM/sdk/pico/pico-sdk/src/rp2_common/pico_float/float_math.c.obj
 .text.__wrap_powintf
                0x00000000       0xa0 CMakeFiles/AHT20.dir/C_/VSARM/sdk/pico/pico-sdk/src/rp2_common/pico_float/float_math.c.obj
 .text.__wrap_powf
                0x00000000      0x118 CMakeFiles/AHT20.dir/C_/VSARM/sdk/pico/pico-sdk/src/rp2_common/pico_float/float_math.c.obj
 .text.__wrap_hypotf
                0x00000000       0xb2 CMakeFiles/AHT20.dir/C_/VSARM/sdk/pico/pico-sdk/src/rp2_common/pico_float/float_math.c.obj
 .text.__wrap_cbrtf
                0x00000000       0x68 CMakeFiles/AHT20.dir/C_/VSARM/sdk/pico/pico-sdk/src/rp2_common/pico_float/float_math.c.obj
 .text.__wrap_fmodf
                0x00000000       0x64 CMakeFiles/AHT20.dir/C_/VSARM/sdk/pico/pico-sdk/src/rp2_common/pico_float/float_math.c.obj
 .text.__wrap_remquof
                0x00000000       0xda CMakeFiles/AHT20.dir/C_/VSARM/sdk/pico/pico-sdk/src/rp2_common/pico_float/float_math.c.obj
 .text.__wrap_dremf
                0x00000000        0xa CMakeFiles/AHT20.dir/C_/VSARM/sdk/pico/pico-sdk/src/rp2_common/pico_float/float_math.c.obj
 .text.__wrap_remainderf
                0x00000000        0xa CMakeFiles/AHT20.dir/C_/VSARM/sdk/pico/pico-sdk/src/rp2_common/pico_float/float_math.c.obj
 .debug_info    0x00000000     0x3c1c CMakeFiles/AHT20.dir/C_/VSARM/sdk/pico/pico-sdk/src/rp2_common/pico_float/float_math.c.obj
 .debug_abbrev  0x00000000      0x29a CMakeFiles/AHT20.dir/C_/VSARM/sdk/pico/pico-sdk/src/rp2_common/pico_float/float_math.c.obj
 .debug_loclists
                0x00000000     0x26cf CMakeFiles/AHT20.dir/C_/VSARM/sdk/pico/pico-sdk/src/rp2_common/pico_float/float_math.c.obj
 .debug_aranges
                0x00000000      0x158 CMakeFiles/AHT20.dir/C_/VSARM/sdk/pico/pico-sdk/src/rp2_common/pico_float/float_math.c.obj
 .debug_rnglists
                0x00000000      0x104 CMakeFiles/AHT20.dir/C_/VSARM/sdk/pico/pico-sdk/src/rp2_common/pico_float/float_math.c.obj
 .debug_line    0x00000000     0x1dbd CMakeFiles/AHT20.dir/C_/VSARM/sdk/pico/pico-sdk/src/rp2_common/pico_float/float_math.c.obj
 .debug_str     0x00000000      0x523 CMakeFiles/AHT20.dir/C_/VSARM/sdk/pico/pico-sdk/src/rp2_common/pico_float/float_math.c.obj
 .comment       0x00000000       0x46 CMakeFiles/AHT20.dir/C_/VSARM/sdk/pico/pico-sdk/src/rp2_common/pico_float/float_math.c.obj
 .debug_frame   0x00000000      0x414 CMakeFiles/AHT20.dir/C_/VSARM/sdk/pico/pico-sdk/src/rp2_common/pico_float/float_math.c.obj
 .ARM.attributes
                0x00000000       0x2c CMakeFiles/AHT20.dir/C_/VSARM/sdk/pico/pico-sdk/src/rp2_common/pico_float/float_math.c.obj
 .text          0x00000000        0x0 CMakeFiles/AHT20.dir/C_/VSARM/sdk/pico/pico-sdk/src/rp2_common/pico_float/float_v1_rom_shim.S.obj
 .data          0x00000000        0x0 CMakeFiles/AHT20.dir/C_/VSARM/sdk/pico/pico-sdk/src/rp2_common/pico_float/float_v1_rom_shim.S.obj
 .bss           0x00000000        0x0 CMakeFiles/AHT20.dir/C_/VSARM/sdk/pico/pico-sdk/src/rp2_common/pico_float/float_v1_rom_shim.S.obj
 .ARM.attributes
                0x00000000       0x1c CMakeFiles/AHT20.dir/C_/VSARM/sdk/pico/pico-sdk/src/rp2_common/pico_float/float_v1_rom_shim.S.obj
 .text          0x00000000        0x0 CMakeFiles/AHT20.dir/C_/VSARM/sdk/pico/pico-sdk/src/rp2_common/pico_malloc/pico_malloc.c.obj
 .data          0x00000000        0x0 CMakeFiles/AHT20.dir/C_/VSARM/sdk/pico/pico-sdk/src/rp2_common/pico_malloc/pico_malloc.c.obj
 .bss           0x00000000        0x0 CMakeFiles/AHT20.dir/C_/VSARM/sdk/pico/pico-sdk/src/rp2_common/pico_malloc/pico_malloc.c.obj
 .rodata.check_alloc.str1.4
                0x00000000        0xe CMakeFiles/AHT20.dir/C_/VSARM/sdk/pico/pico-sdk/src/rp2_common/pico_malloc/pico_malloc.c.obj
 .text.check_alloc
                0x00000000       0x20 CMakeFiles/AHT20.dir/C_/VSARM/sdk/pico/pico-sdk/src/rp2_common/pico_malloc/pico_malloc.c.obj
 .text.__wrap_malloc
                0x00000000       0x14 CMakeFiles/AHT20.dir/C_/VSARM/sdk/pico/pico-sdk/src/rp2_common/pico_malloc/pico_malloc.c.obj
 .text.__wrap_calloc
                0x00000000       0x14 CMakeFiles/AHT20.dir/C_/VSARM/sdk/pico/pico-sdk/src/rp2_common/pico_malloc/pico_malloc.c.obj
 .text.__wrap_realloc
                0x00000000       0x14 CMakeFiles/AHT20.dir/C_/VSARM/sdk/pico/pico-sdk/src/rp2_common/pico_malloc/pico_malloc.c.obj
 .text.__wrap_free
                0x00000000        0x8 CMakeFiles/AHT20.dir/C_/VSARM/sdk/pico/pico-sdk/src/rp2_common/pico_malloc/pico_malloc.c.obj
 .debug_info    0x00000000      0x308 CMakeFiles/AHT20.dir/C_/VSARM/sdk/pico/pico-sdk/src/rp2_common/pico_malloc/pico_malloc.c.obj
 .debug_abbrev  0x00000000      0x163 CMakeFiles/AHT20.dir/C_/VSARM/sdk/pico/pico-sdk/src/rp2_common/pico_malloc/pico_malloc.c.obj
 .debug_loclists
                0x00000000      0x12a CMakeFiles/AHT20.dir/C_/VSARM/sdk/pico/pico-sdk/src/rp2_common/pico_malloc/pico_malloc.c.obj
 .debug_aranges
                0x00000000       0x40 CMakeFiles/AHT20.dir/C_/VSARM/sdk/pico/pico-sdk/src/rp2_common/pico_malloc/pico_malloc.c.obj
 .debug_rnglists
                0x00000000       0x2b CMakeFiles/AHT20.dir/C_/VSARM/sdk/pico/pico-sdk/src/rp2_common/pico_malloc/pico_malloc.c.obj
 .debug_line    0x00000000      0x213 CMakeFiles/AHT20.dir/C_/VSARM/sdk/pico/pico-sdk/src/rp2_common/pico_malloc/pico_malloc.c.obj
 .debug_str     0x00000000      0x232 CMakeFiles/AHT20.dir/C_/VSARM/sdk/pico/pico-sdk/src/rp2_common/pico_malloc/pico_malloc.c.obj
 .comment       0x00000000       0x46 CMakeFiles/AHT20.dir/C_/VSARM/sdk/pico/pico-sdk/src/rp2_common/pico_malloc/pico_malloc.c.obj
 .debug_frame   0x00000000       0x94 CMakeFiles/AHT20.dir/C_/VSARM/sdk/pico/pico-sdk/src/rp2_common/pico_malloc/pico_malloc.c.obj
 .ARM.attributes
                0x00000000       0x2c CMakeFiles/AHT20.dir/C_/VSARM/sdk/pico/pico-sdk/src/rp2_common/pico_malloc/pico_malloc.c.obj
 .data          0x00000000        0x0 CMakeFiles/AHT20.dir/C_/VSARM/sdk/pico/pico-sdk/src/rp2_common/pico_mem_ops/mem_ops_aeabi.S.obj
 .bss           0x00000000        0x0 CMakeFiles/AHT20.dir/C_/VSARM/sdk/pico/pico-sdk/src/rp2_common/pico_mem_ops/mem_ops_aeabi.S.obj
 .text.aeabi_memset_memcpy
                0x00000000       0x24 CMakeFiles/AHT20.dir/C_/VSARM/sdk/pico/pico-sdk/src/rp2_common/pico_mem_ops/mem_ops_aeabi.S.obj
 .text          0x00000000        0x0 CMakeFiles/AHT20.dir/C_/VSARM/sdk/pico/pico-sdk/src/rp2_common/pico_standard_link/crt0.S.obj
 .data          0x00000000        0x0 CMakeFiles/AHT20.dir/C_/VSARM/sdk/pico/pico-sdk/src/rp2_common/pico_standard_link/crt0.S.obj
 .bss           0x00000000        0x0 CMakeFiles/AHT20.dir/C_/VSARM/sdk/pico/pico-sdk/src/rp2_common/pico_standard_link/crt0.S.obj
 .text          0x00000000        0x0 CMakeFiles/AHT20.dir/C_/VSARM/sdk/pico/pico-sdk/src/rp2_common/pico_standard_link/new_delete.cpp.obj
 .data          0x00000000        0x0 CMakeFiles/AHT20.dir/C_/VSARM/sdk/pico/pico-sdk/src/rp2_common/pico_standard_link/new_delete.cpp.obj
 .bss           0x00000000        0x0 CMakeFiles/AHT20.dir/C_/VSARM/sdk/pico/pico-sdk/src/rp2_common/pico_standard_link/new_delete.cpp.obj
 .text._Znwj    0x00000000        0x8 CMakeFiles/AHT20.dir/C_/VSARM/sdk/pico/pico-sdk/src/rp2_common/pico_standard_link/new_delete.cpp.obj
 .text._Znaj    0x00000000        0x8 CMakeFiles/AHT20.dir/C_/VSARM/sdk/pico/pico-sdk/src/rp2_common/pico_standard_link/new_delete.cpp.obj
 .text._ZdlPv   0x00000000        0x8 CMakeFiles/AHT20.dir/C_/VSARM/sdk/pico/pico-sdk/src/rp2_common/pico_standard_link/new_delete.cpp.obj
 .text._ZdaPv   0x00000000        0x8 CMakeFiles/AHT20.dir/C_/VSARM/sdk/pico/pico-sdk/src/rp2_common/pico_standard_link/new_delete.cpp.obj
 .text._ZdlPvj  0x00000000        0x8 CMakeFiles/AHT20.dir/C_/VSARM/sdk/pico/pico-sdk/src/rp2_common/pico_standard_link/new_delete.cpp.obj
 .text._ZdaPvj  0x00000000        0x8 CMakeFiles/AHT20.dir/C_/VSARM/sdk/pico/pico-sdk/src/rp2_common/pico_standard_link/new_delete.cpp.obj
 .debug_info    0x00000000      0x722 CMakeFiles/AHT20.dir/C_/VSARM/sdk/pico/pico-sdk/src/rp2_common/pico_standard_link/new_delete.cpp.obj
 .debug_abbrev  0x00000000      0x1df CMakeFiles/AHT20.dir/C_/VSARM/sdk/pico/pico-sdk/src/rp2_common/pico_standard_link/new_delete.cpp.obj
 .debug_loclists
                0x00000000       0xc4 CMakeFiles/AHT20.dir/C_/VSARM/sdk/pico/pico-sdk/src/rp2_common/pico_standard_link/new_delete.cpp.obj
 .debug_aranges
                0x00000000       0x48 CMakeFiles/AHT20.dir/C_/VSARM/sdk/pico/pico-sdk/src/rp2_common/pico_standard_link/new_delete.cpp.obj
 .debug_rnglists
                0x00000000       0x31 CMakeFiles/AHT20.dir/C_/VSARM/sdk/pico/pico-sdk/src/rp2_common/pico_standard_link/new_delete.cpp.obj
 .debug_line    0x00000000      0x262 CMakeFiles/AHT20.dir/C_/VSARM/sdk/pico/pico-sdk/src/rp2_common/pico_standard_link/new_delete.cpp.obj
 .debug_str     0x00000000      0x388 CMakeFiles/AHT20.dir/C_/VSARM/sdk/pico/pico-sdk/src/rp2_common/pico_standard_link/new_delete.cpp.obj
 .comment       0x00000000       0x46 CMakeFiles/AHT20.dir/C_/VSARM/sdk/pico/pico-sdk/src/rp2_common/pico_standard_link/new_delete.cpp.obj
 .debug_frame   0x00000000       0xa0 CMakeFiles/AHT20.dir/C_/VSARM/sdk/pico/pico-sdk/src/rp2_common/pico_standard_link/new_delete.cpp.obj
 .ARM.attributes
                0x00000000       0x2c CMakeFiles/AHT20.dir/C_/VSARM/sdk/pico/pico-sdk/src/rp2_common/pico_standard_link/new_delete.cpp.obj
 .text          0x00000000        0x0 CMakeFiles/AHT20.dir/C_/VSARM/sdk/pico/pico-sdk/src/rp2_common/pico_standard_link/binary_info.c.obj
 .data          0x00000000        0x0 CMakeFiles/AHT20.dir/C_/VSARM/sdk/pico/pico-sdk/src/rp2_common/pico_standard_link/binary_info.c.obj
 .bss           0x00000000        0x0 CMakeFiles/AHT20.dir/C_/VSARM/sdk/pico/pico-sdk/src/rp2_common/pico_standard_link/binary_info.c.obj
 .text          0x00000000        0x0 CMakeFiles/AHT20.dir/C_/VSARM/sdk/pico/pico-sdk/src/rp2_common/pico_stdio/stdio.c.obj
 .data          0x00000000        0x0 CMakeFiles/AHT20.dir/C_/VSARM/sdk/pico/pico-sdk/src/rp2_common/pico_stdio/stdio.c.obj
 .bss           0x00000000        0x0 CMakeFiles/AHT20.dir/C_/VSARM/sdk/pico/pico-sdk/src/rp2_common/pico_stdio/stdio.c.obj
 .text.time_reached
                0x00000000       0x28 CMakeFiles/AHT20.dir/C_/VSARM/sdk/pico/pico-sdk/src/rp2_common/pico_stdio/stdio.c.obj
 .text.delayed_by_us
                0x00000000       0x34 CMakeFiles/AHT20.dir/C_/VSARM/sdk/pico/pico-sdk/src/rp2_common/pico_stdio/stdio.c.obj
 .text.make_timeout_time_us
                0x00000000       0x24 CMakeFiles/AHT20.dir/C_/VSARM/sdk/pico/pico-sdk/src/rp2_common/pico_stdio/stdio.c.obj
 .text.stdio_get_until
                0x00000000       0x64 CMakeFiles/AHT20.dir/C_/VSARM/sdk/pico/pico-sdk/src/rp2_common/pico_stdio/stdio.c.obj
 .text.__wrap_putchar
                0x00000000       0x1c CMakeFiles/AHT20.dir/C_/VSARM/sdk/pico/pico-sdk/src/rp2_common/pico_stdio/stdio.c.obj
 .text.putchar_raw
                0x00000000       0x1c CMakeFiles/AHT20.dir/C_/VSARM/sdk/pico/pico-sdk/src/rp2_common/pico_stdio/stdio.c.obj
 .text._read    0x00000000       0x24 CMakeFiles/AHT20.dir/C_/VSARM/sdk/pico/pico-sdk/src/rp2_common/pico_stdio/stdio.c.obj
 .text._write   0x00000000       0x22 CMakeFiles/AHT20.dir/C_/VSARM/sdk/pico/pico-sdk/src/rp2_common/pico_stdio/stdio.c.obj
 .text._open    0x00000000        0xa CMakeFiles/AHT20.dir/C_/VSARM/sdk/pico/pico-sdk/src/rp2_common/pico_stdio/stdio.c.obj
 .text._close   0x00000000        0x6 CMakeFiles/AHT20.dir/C_/VSARM/sdk/pico/pico-sdk/src/rp2_common/pico_stdio/stdio.c.obj
 .text._lseek   0x00000000        0x6 CMakeFiles/AHT20.dir/C_/VSARM/sdk/pico/pico-sdk/src/rp2_common/pico_stdio/stdio.c.obj
 .text._fstat   0x00000000        0x6 CMakeFiles/AHT20.dir/C_/VSARM/sdk/pico/pico-sdk/src/rp2_common/pico_stdio/stdio.c.obj
 .text._isatty  0x00000000        0xc CMakeFiles/AHT20.dir/C_/VSARM/sdk/pico/pico-sdk/src/rp2_common/pico_stdio/stdio.c.obj
 .text.puts_raw
                0x00000000       0x1e CMakeFiles/AHT20.dir/C_/VSARM/sdk/pico/pico-sdk/src/rp2_common/pico_stdio/stdio.c.obj
 .rodata.__wrap_getchar.str1.4
                0x00000000       0x49 CMakeFiles/AHT20.dir/C_/VSARM/sdk/pico/pico-sdk/src/rp2_common/pico_stdio/stdio.c.obj
 .text.__wrap_getchar
                0x00000000       0x40 CMakeFiles/AHT20.dir/C_/VSARM/sdk/pico/pico-sdk/src/rp2_common/pico_stdio/stdio.c.obj
 .rodata.getchar_timeout_us.str1.4
                0x00000000        0x3 CMakeFiles/AHT20.dir/C_/VSARM/sdk/pico/pico-sdk/src/rp2_common/pico_stdio/stdio.c.obj
 .text.getchar_timeout_us
                0x00000000       0x44 CMakeFiles/AHT20.dir/C_/VSARM/sdk/pico/pico-sdk/src/rp2_common/pico_stdio/stdio.c.obj
 .text.stdio_filter_driver
                0x00000000        0xc CMakeFiles/AHT20.dir/C_/VSARM/sdk/pico/pico-sdk/src/rp2_common/pico_stdio/stdio.c.obj
 .text.stdio_set_translate_crlf
                0x00000000       0x10 CMakeFiles/AHT20.dir/C_/VSARM/sdk/pico/pico-sdk/src/rp2_common/pico_stdio/stdio.c.obj
 .text.stdio_set_chars_available_callback
                0x00000000       0x28 CMakeFiles/AHT20.dir/C_/VSARM/sdk/pico/pico-sdk/src/rp2_common/pico_stdio/stdio.c.obj
 .rodata.__func__.0
                0x00000000       0x13 CMakeFiles/AHT20.dir/C_/VSARM/sdk/pico/pico-sdk/src/rp2_common/pico_stdio/stdio.c.obj
 .rodata.__func__.1
                0x00000000        0xf CMakeFiles/AHT20.dir/C_/VSARM/sdk/pico/pico-sdk/src/rp2_common/pico_stdio/stdio.c.obj
 .text          0x00000000        0x0 CMakeFiles/AHT20.dir/C_/VSARM/sdk/pico/pico-sdk/src/rp2_common/pico_stdio_usb/reset_interface.c.obj
 .data          0x00000000        0x0 CMakeFiles/AHT20.dir/C_/VSARM/sdk/pico/pico-sdk/src/rp2_common/pico_stdio_usb/reset_interface.c.obj
 .bss           0x00000000        0x0 CMakeFiles/AHT20.dir/C_/VSARM/sdk/pico/pico-sdk/src/rp2_common/pico_stdio_usb/reset_interface.c.obj
 .text          0x00000000        0x0 CMakeFiles/AHT20.dir/C_/VSARM/sdk/pico/pico-sdk/src/rp2_common/pico_stdio_usb/stdio_usb.c.obj
 .data          0x00000000        0x0 CMakeFiles/AHT20.dir/C_/VSARM/sdk/pico/pico-sdk/src/rp2_common/pico_stdio_usb/stdio_usb.c.obj
 .bss           0x00000000        0x0 CMakeFiles/AHT20.dir/C_/VSARM/sdk/pico/pico-sdk/src/rp2_common/pico_stdio_usb/stdio_usb.c.obj
 .text          0x00000000        0x0 CMakeFiles/AHT20.dir/C_/VSARM/sdk/pico/pico-sdk/src/rp2_common/pico_stdio_usb/stdio_usb_descriptors.c.obj
 .data          0x00000000        0x0 CMakeFiles/AHT20.dir/C_/VSARM/sdk/pico/pico-sdk/src/rp2_common/pico_stdio_usb/stdio_usb_descriptors.c.obj
 .bss           0x00000000        0x0 CMakeFiles/AHT20.dir/C_/VSARM/sdk/pico/pico-sdk/src/rp2_common/pico_stdio_usb/stdio_usb_descriptors.c.obj
 .text          0x00000000        0x0 CMakeFiles/AHT20.dir/C_/VSARM/sdk/pico/pico-sdk/src/rp2_common/pico_unique_id/unique_id.c.obj
 .data          0x00000000        0x0 CMakeFiles/AHT20.dir/C_/VSARM/sdk/pico/pico-sdk/src/rp2_common/pico_unique_id/unique_id.c.obj
 .bss           0x00000000        0x0 CMakeFiles/AHT20.dir/C_/VSARM/sdk/pico/pico-sdk/src/rp2_common/pico_unique_id/unique_id.c.obj
 .text.pico_get_unique_board_id
                0x00000000       0x10 CMakeFiles/AHT20.dir/C_/VSARM/sdk/pico/pico-sdk/src/rp2_common/pico_unique_id/unique_id.c.obj
 .text          0x00000000        0x0 CMakeFiles/AHT20.dir/C_/VSARM/sdk/pico/pico-sdk/src/rp2_common/hardware_flash/flash.c.obj
 .data          0x00000000        0x0 CMakeFiles/AHT20.dir/C_/VSARM/sdk/pico/pico-sdk/src/rp2_common/hardware_flash/flash.c.obj
 .bss           0x00000000        0x0 CMakeFiles/AHT20.dir/C_/VSARM/sdk/pico/pico-sdk/src/rp2_common/hardware_flash/flash.c.obj
 .time_critical.flash_range_erase
                0x00000000       0xb8 CMakeFiles/AHT20.dir/C_/VSARM/sdk/pico/pico-sdk/src/rp2_common/hardware_flash/flash.c.obj
 .time_critical.flash_range_program
                0x00000000       0xb8 CMakeFiles/AHT20.dir/C_/VSARM/sdk/pico/pico-sdk/src/rp2_common/hardware_flash/flash.c.obj
 .rodata.__func__.1
                0x00000000       0x14 CMakeFiles/AHT20.dir/C_/VSARM/sdk/pico/pico-sdk/src/rp2_common/hardware_flash/flash.c.obj
 .rodata.__func__.2
                0x00000000       0x12 CMakeFiles/AHT20.dir/C_/VSARM/sdk/pico/pico-sdk/src/rp2_common/hardware_flash/flash.c.obj
 .text          0x00000000        0x0 CMakeFiles/AHT20.dir/C_/VSARM/sdk/pico/pico-sdk/lib/tinyusb/src/portable/raspberrypi/rp2040/dcd_rp2040.c.obj
 .data          0x00000000        0x0 CMakeFiles/AHT20.dir/C_/VSARM/sdk/pico/pico-sdk/lib/tinyusb/src/portable/raspberrypi/rp2040/dcd_rp2040.c.obj
 .bss           0x00000000        0x0 CMakeFiles/AHT20.dir/C_/VSARM/sdk/pico/pico-sdk/lib/tinyusb/src/portable/raspberrypi/rp2040/dcd_rp2040.c.obj
 .text._hw_endpoint_close
                0x00000000       0x4c CMakeFiles/AHT20.dir/C_/VSARM/sdk/pico/pico-sdk/lib/tinyusb/src/portable/raspberrypi/rp2040/dcd_rp2040.c.obj
 .text.hw_endpoint_close
                0x00000000        0xc CMakeFiles/AHT20.dir/C_/VSARM/sdk/pico/pico-sdk/lib/tinyusb/src/portable/raspberrypi/rp2040/dcd_rp2040.c.obj
 .text.dcd_int_disable
                0x00000000       0x2c CMakeFiles/AHT20.dir/C_/VSARM/sdk/pico/pico-sdk/lib/tinyusb/src/portable/raspberrypi/rp2040/dcd_rp2040.c.obj
 .text.dcd_remote_wakeup
                0x00000000       0x38 CMakeFiles/AHT20.dir/C_/VSARM/sdk/pico/pico-sdk/lib/tinyusb/src/portable/raspberrypi/rp2040/dcd_rp2040.c.obj
 .text.dcd_disconnect
                0x00000000       0x10 CMakeFiles/AHT20.dir/C_/VSARM/sdk/pico/pico-sdk/lib/tinyusb/src/portable/raspberrypi/rp2040/dcd_rp2040.c.obj
 .text.dcd_sof_enable
                0x00000000       0x1c CMakeFiles/AHT20.dir/C_/VSARM/sdk/pico/pico-sdk/lib/tinyusb/src/portable/raspberrypi/rp2040/dcd_rp2040.c.obj
 .text.dcd_edpt_close
                0x00000000        0xa CMakeFiles/AHT20.dir/C_/VSARM/sdk/pico/pico-sdk/lib/tinyusb/src/portable/raspberrypi/rp2040/dcd_rp2040.c.obj
 .time_critical.dcd_int_handler
                0x00000000        0x8 CMakeFiles/AHT20.dir/C_/VSARM/sdk/pico/pico-sdk/lib/tinyusb/src/portable/raspberrypi/rp2040/dcd_rp2040.c.obj
 .rodata.__func__.2
                0x00000000       0x12 CMakeFiles/AHT20.dir/C_/VSARM/sdk/pico/pico-sdk/lib/tinyusb/src/portable/raspberrypi/rp2040/dcd_rp2040.c.obj
 .rodata.__func__.4
                0x00000000       0x10 CMakeFiles/AHT20.dir/C_/VSARM/sdk/pico/pico-sdk/lib/tinyusb/src/portable/raspberrypi/rp2040/dcd_rp2040.c.obj
 .text          0x00000000        0x0 CMakeFiles/AHT20.dir/C_/VSARM/sdk/pico/pico-sdk/lib/tinyusb/src/portable/raspberrypi/rp2040/rp2040_usb.c.obj
 .data          0x00000000        0x0 CMakeFiles/AHT20.dir/C_/VSARM/sdk/pico/pico-sdk/lib/tinyusb/src/portable/raspberrypi/rp2040/rp2040_usb.c.obj
 .bss           0x00000000        0x0 CMakeFiles/AHT20.dir/C_/VSARM/sdk/pico/pico-sdk/lib/tinyusb/src/portable/raspberrypi/rp2040/rp2040_usb.c.obj
 .text          0x00000000        0x0 CMakeFiles/AHT20.dir/C_/VSARM/sdk/pico/pico-sdk/lib/tinyusb/src/device/usbd.c.obj
 .data          0x00000000        0x0 CMakeFiles/AHT20.dir/C_/VSARM/sdk/pico/pico-sdk/lib/tinyusb/src/device/usbd.c.obj
 .bss           0x00000000        0x0 CMakeFiles/AHT20.dir/C_/VSARM/sdk/pico/pico-sdk/lib/tinyusb/src/device/usbd.c.obj
 .text.tud_speed_get
                0x00000000        0xc CMakeFiles/AHT20.dir/C_/VSARM/sdk/pico/pico-sdk/lib/tinyusb/src/device/usbd.c.obj
 .text.tud_connected
                0x00000000       0x10 CMakeFiles/AHT20.dir/C_/VSARM/sdk/pico/pico-sdk/lib/tinyusb/src/device/usbd.c.obj
 .text.tud_remote_wakeup
                0x00000000       0x34 CMakeFiles/AHT20.dir/C_/VSARM/sdk/pico/pico-sdk/lib/tinyusb/src/device/usbd.c.obj
 .text.tud_disconnect
                0x00000000       0x20 CMakeFiles/AHT20.dir/C_/VSARM/sdk/pico/pico-sdk/lib/tinyusb/src/device/usbd.c.obj
 .text.tud_connect
                0x00000000       0x20 CMakeFiles/AHT20.dir/C_/VSARM/sdk/pico/pico-sdk/lib/tinyusb/src/device/usbd.c.obj
 .text.tud_task_event_ready
                0x00000000       0x20 CMakeFiles/AHT20.dir/C_/VSARM/sdk/pico/pico-sdk/lib/tinyusb/src/device/usbd.c.obj
 .text.usbd_int_set
                0x00000000       0x20 CMakeFiles/AHT20.dir/C_/VSARM/sdk/pico/pico-sdk/lib/tinyusb/src/device/usbd.c.obj
 .text.usbd_edpt_xfer_fifo
                0x00000000       0x78 CMakeFiles/AHT20.dir/C_/VSARM/sdk/pico/pico-sdk/lib/tinyusb/src/device/usbd.c.obj
 .text.usbd_edpt_busy
                0x00000000       0x1c CMakeFiles/AHT20.dir/C_/VSARM/sdk/pico/pico-sdk/lib/tinyusb/src/device/usbd.c.obj
 .text.usbd_edpt_close
                0x00000000       0x48 CMakeFiles/AHT20.dir/C_/VSARM/sdk/pico/pico-sdk/lib/tinyusb/src/device/usbd.c.obj
 .text.usbd_sof_enable
                0x00000000       0x10 CMakeFiles/AHT20.dir/C_/VSARM/sdk/pico/pico-sdk/lib/tinyusb/src/device/usbd.c.obj
 .text          0x00000000        0x0 CMakeFiles/AHT20.dir/C_/VSARM/sdk/pico/pico-sdk/lib/tinyusb/src/device/usbd_control.c.obj
 .data          0x00000000        0x0 CMakeFiles/AHT20.dir/C_/VSARM/sdk/pico/pico-sdk/lib/tinyusb/src/device/usbd_control.c.obj
 .bss           0x00000000        0x0 CMakeFiles/AHT20.dir/C_/VSARM/sdk/pico/pico-sdk/lib/tinyusb/src/device/usbd_control.c.obj
 .text          0x00000000        0x0 CMakeFiles/AHT20.dir/C_/VSARM/sdk/pico/pico-sdk/lib/tinyusb/src/class/audio/audio_device.c.obj
 .data          0x00000000        0x0 CMakeFiles/AHT20.dir/C_/VSARM/sdk/pico/pico-sdk/lib/tinyusb/src/class/audio/audio_device.c.obj
 .bss           0x00000000        0x0 CMakeFiles/AHT20.dir/C_/VSARM/sdk/pico/pico-sdk/lib/tinyusb/src/class/audio/audio_device.c.obj
 .debug_info    0x00000000       0x6c CMakeFiles/AHT20.dir/C_/VSARM/sdk/pico/pico-sdk/lib/tinyusb/src/class/audio/audio_device.c.obj
 .debug_abbrev  0x00000000       0x26 CMakeFiles/AHT20.dir/C_/VSARM/sdk/pico/pico-sdk/lib/tinyusb/src/class/audio/audio_device.c.obj
 .debug_aranges
                0x00000000       0x18 CMakeFiles/AHT20.dir/C_/VSARM/sdk/pico/pico-sdk/lib/tinyusb/src/class/audio/audio_device.c.obj
 .debug_line    0x00000000       0x66 CMakeFiles/AHT20.dir/C_/VSARM/sdk/pico/pico-sdk/lib/tinyusb/src/class/audio/audio_device.c.obj
 .debug_str     0x00000000      0x18b CMakeFiles/AHT20.dir/C_/VSARM/sdk/pico/pico-sdk/lib/tinyusb/src/class/audio/audio_device.c.obj
 .comment       0x00000000       0x46 CMakeFiles/AHT20.dir/C_/VSARM/sdk/pico/pico-sdk/lib/tinyusb/src/class/audio/audio_device.c.obj
 .ARM.attributes
                0x00000000       0x2c CMakeFiles/AHT20.dir/C_/VSARM/sdk/pico/pico-sdk/lib/tinyusb/src/class/audio/audio_device.c.obj
 .text          0x00000000        0x0 CMakeFiles/AHT20.dir/C_/VSARM/sdk/pico/pico-sdk/lib/tinyusb/src/class/cdc/cdc_device.c.obj
 .data          0x00000000        0x0 CMakeFiles/AHT20.dir/C_/VSARM/sdk/pico/pico-sdk/lib/tinyusb/src/class/cdc/cdc_device.c.obj
 .bss           0x00000000        0x0 CMakeFiles/AHT20.dir/C_/VSARM/sdk/pico/pico-sdk/lib/tinyusb/src/class/cdc/cdc_device.c.obj
 .text.tud_cdc_n_get_line_state
                0x00000000       0x14 CMakeFiles/AHT20.dir/C_/VSARM/sdk/pico/pico-sdk/lib/tinyusb/src/class/cdc/cdc_device.c.obj
 .text.tud_cdc_n_get_line_coding
                0x00000000       0x20 CMakeFiles/AHT20.dir/C_/VSARM/sdk/pico/pico-sdk/lib/tinyusb/src/class/cdc/cdc_device.c.obj
 .text.tud_cdc_n_set_wanted_char
                0x00000000       0x14 CMakeFiles/AHT20.dir/C_/VSARM/sdk/pico/pico-sdk/lib/tinyusb/src/class/cdc/cdc_device.c.obj
 .text.tud_cdc_n_peek
                0x00000000       0x18 CMakeFiles/AHT20.dir/C_/VSARM/sdk/pico/pico-sdk/lib/tinyusb/src/class/cdc/cdc_device.c.obj
 .text.tud_cdc_n_read_flush
                0x00000000       0x20 CMakeFiles/AHT20.dir/C_/VSARM/sdk/pico/pico-sdk/lib/tinyusb/src/class/cdc/cdc_device.c.obj
 .text.tud_cdc_n_write_clear
                0x00000000       0x1c CMakeFiles/AHT20.dir/C_/VSARM/sdk/pico/pico-sdk/lib/tinyusb/src/class/cdc/cdc_device.c.obj
 .text          0x00000000        0x0 CMakeFiles/AHT20.dir/C_/VSARM/sdk/pico/pico-sdk/lib/tinyusb/src/class/dfu/dfu_device.c.obj
 .data          0x00000000        0x0 CMakeFiles/AHT20.dir/C_/VSARM/sdk/pico/pico-sdk/lib/tinyusb/src/class/dfu/dfu_device.c.obj
 .bss           0x00000000        0x0 CMakeFiles/AHT20.dir/C_/VSARM/sdk/pico/pico-sdk/lib/tinyusb/src/class/dfu/dfu_device.c.obj
 .debug_info    0x00000000       0x6c CMakeFiles/AHT20.dir/C_/VSARM/sdk/pico/pico-sdk/lib/tinyusb/src/class/dfu/dfu_device.c.obj
 .debug_abbrev  0x00000000       0x26 CMakeFiles/AHT20.dir/C_/VSARM/sdk/pico/pico-sdk/lib/tinyusb/src/class/dfu/dfu_device.c.obj
 .debug_aranges
                0x00000000       0x18 CMakeFiles/AHT20.dir/C_/VSARM/sdk/pico/pico-sdk/lib/tinyusb/src/class/dfu/dfu_device.c.obj
 .debug_line    0x00000000       0x62 CMakeFiles/AHT20.dir/C_/VSARM/sdk/pico/pico-sdk/lib/tinyusb/src/class/dfu/dfu_device.c.obj
 .debug_str     0x00000000      0x187 CMakeFiles/AHT20.dir/C_/VSARM/sdk/pico/pico-sdk/lib/tinyusb/src/class/dfu/dfu_device.c.obj
 .comment       0x00000000       0x46 CMakeFiles/AHT20.dir/C_/VSARM/sdk/pico/pico-sdk/lib/tinyusb/src/class/dfu/dfu_device.c.obj
 .ARM.attributes
                0x00000000       0x2c CMakeFiles/AHT20.dir/C_/VSARM/sdk/pico/pico-sdk/lib/tinyusb/src/class/dfu/dfu_device.c.obj
 .text          0x00000000        0x0 CMakeFiles/AHT20.dir/C_/VSARM/sdk/pico/pico-sdk/lib/tinyusb/src/class/dfu/dfu_rt_device.c.obj
 .data          0x00000000        0x0 CMakeFiles/AHT20.dir/C_/VSARM/sdk/pico/pico-sdk/lib/tinyusb/src/class/dfu/dfu_rt_device.c.obj
 .bss           0x00000000        0x0 CMakeFiles/AHT20.dir/C_/VSARM/sdk/pico/pico-sdk/lib/tinyusb/src/class/dfu/dfu_rt_device.c.obj
 .debug_info    0x00000000       0x6c CMakeFiles/AHT20.dir/C_/VSARM/sdk/pico/pico-sdk/lib/tinyusb/src/class/dfu/dfu_rt_device.c.obj
 .debug_abbrev  0x00000000       0x26 CMakeFiles/AHT20.dir/C_/VSARM/sdk/pico/pico-sdk/lib/tinyusb/src/class/dfu/dfu_rt_device.c.obj
 .debug_aranges
                0x00000000       0x18 CMakeFiles/AHT20.dir/C_/VSARM/sdk/pico/pico-sdk/lib/tinyusb/src/class/dfu/dfu_rt_device.c.obj
 .debug_line    0x00000000       0x65 CMakeFiles/AHT20.dir/C_/VSARM/sdk/pico/pico-sdk/lib/tinyusb/src/class/dfu/dfu_rt_device.c.obj
 .debug_str     0x00000000      0x18a CMakeFiles/AHT20.dir/C_/VSARM/sdk/pico/pico-sdk/lib/tinyusb/src/class/dfu/dfu_rt_device.c.obj
 .comment       0x00000000       0x46 CMakeFiles/AHT20.dir/C_/VSARM/sdk/pico/pico-sdk/lib/tinyusb/src/class/dfu/dfu_rt_device.c.obj
 .ARM.attributes
                0x00000000       0x2c CMakeFiles/AHT20.dir/C_/VSARM/sdk/pico/pico-sdk/lib/tinyusb/src/class/dfu/dfu_rt_device.c.obj
 .text          0x00000000        0x0 CMakeFiles/AHT20.dir/C_/VSARM/sdk/pico/pico-sdk/lib/tinyusb/src/class/hid/hid_device.c.obj
 .data          0x00000000        0x0 CMakeFiles/AHT20.dir/C_/VSARM/sdk/pico/pico-sdk/lib/tinyusb/src/class/hid/hid_device.c.obj
 .bss           0x00000000        0x0 CMakeFiles/AHT20.dir/C_/VSARM/sdk/pico/pico-sdk/lib/tinyusb/src/class/hid/hid_device.c.obj
 .debug_info    0x00000000       0x6c CMakeFiles/AHT20.dir/C_/VSARM/sdk/pico/pico-sdk/lib/tinyusb/src/class/hid/hid_device.c.obj
 .debug_abbrev  0x00000000       0x26 CMakeFiles/AHT20.dir/C_/VSARM/sdk/pico/pico-sdk/lib/tinyusb/src/class/hid/hid_device.c.obj
 .debug_aranges
                0x00000000       0x18 CMakeFiles/AHT20.dir/C_/VSARM/sdk/pico/pico-sdk/lib/tinyusb/src/class/hid/hid_device.c.obj
 .debug_line    0x00000000       0x62 CMakeFiles/AHT20.dir/C_/VSARM/sdk/pico/pico-sdk/lib/tinyusb/src/class/hid/hid_device.c.obj
 .debug_str     0x00000000      0x187 CMakeFiles/AHT20.dir/C_/VSARM/sdk/pico/pico-sdk/lib/tinyusb/src/class/hid/hid_device.c.obj
 .comment       0x00000000       0x46 CMakeFiles/AHT20.dir/C_/VSARM/sdk/pico/pico-sdk/lib/tinyusb/src/class/hid/hid_device.c.obj
 .ARM.attributes
                0x00000000       0x2c CMakeFiles/AHT20.dir/C_/VSARM/sdk/pico/pico-sdk/lib/tinyusb/src/class/hid/hid_device.c.obj
 .text          0x00000000        0x0 CMakeFiles/AHT20.dir/C_/VSARM/sdk/pico/pico-sdk/lib/tinyusb/src/class/midi/midi_device.c.obj
 .data          0x00000000        0x0 CMakeFiles/AHT20.dir/C_/VSARM/sdk/pico/pico-sdk/lib/tinyusb/src/class/midi/midi_device.c.obj
 .bss           0x00000000        0x0 CMakeFiles/AHT20.dir/C_/VSARM/sdk/pico/pico-sdk/lib/tinyusb/src/class/midi/midi_device.c.obj
 .debug_info    0x00000000       0x6c CMakeFiles/AHT20.dir/C_/VSARM/sdk/pico/pico-sdk/lib/tinyusb/src/class/midi/midi_device.c.obj
 .debug_abbrev  0x00000000       0x26 CMakeFiles/AHT20.dir/C_/VSARM/sdk/pico/pico-sdk/lib/tinyusb/src/class/midi/midi_device.c.obj
 .debug_aranges
                0x00000000       0x18 CMakeFiles/AHT20.dir/C_/VSARM/sdk/pico/pico-sdk/lib/tinyusb/src/class/midi/midi_device.c.obj
 .debug_line    0x00000000       0x64 CMakeFiles/AHT20.dir/C_/VSARM/sdk/pico/pico-sdk/lib/tinyusb/src/class/midi/midi_device.c.obj
 .debug_str     0x00000000      0x189 CMakeFiles/AHT20.dir/C_/VSARM/sdk/pico/pico-sdk/lib/tinyusb/src/class/midi/midi_device.c.obj
 .comment       0x00000000       0x46 CMakeFiles/AHT20.dir/C_/VSARM/sdk/pico/pico-sdk/lib/tinyusb/src/class/midi/midi_device.c.obj
 .ARM.attributes
                0x00000000       0x2c CMakeFiles/AHT20.dir/C_/VSARM/sdk/pico/pico-sdk/lib/tinyusb/src/class/midi/midi_device.c.obj
 .text          0x00000000        0x0 CMakeFiles/AHT20.dir/C_/VSARM/sdk/pico/pico-sdk/lib/tinyusb/src/class/msc/msc_device.c.obj
 .data          0x00000000        0x0 CMakeFiles/AHT20.dir/C_/VSARM/sdk/pico/pico-sdk/lib/tinyusb/src/class/msc/msc_device.c.obj
 .bss           0x00000000        0x0 CMakeFiles/AHT20.dir/C_/VSARM/sdk/pico/pico-sdk/lib/tinyusb/src/class/msc/msc_device.c.obj
 .debug_info    0x00000000       0x6c CMakeFiles/AHT20.dir/C_/VSARM/sdk/pico/pico-sdk/lib/tinyusb/src/class/msc/msc_device.c.obj
 .debug_abbrev  0x00000000       0x26 CMakeFiles/AHT20.dir/C_/VSARM/sdk/pico/pico-sdk/lib/tinyusb/src/class/msc/msc_device.c.obj
 .debug_aranges
                0x00000000       0x18 CMakeFiles/AHT20.dir/C_/VSARM/sdk/pico/pico-sdk/lib/tinyusb/src/class/msc/msc_device.c.obj
 .debug_line    0x00000000       0x62 CMakeFiles/AHT20.dir/C_/VSARM/sdk/pico/pico-sdk/lib/tinyusb/src/class/msc/msc_device.c.obj
 .debug_str     0x00000000      0x187 CMakeFiles/AHT20.dir/C_/VSARM/sdk/pico/pico-sdk/lib/tinyusb/src/class/msc/msc_device.c.obj
 .comment       0x00000000       0x46 CMakeFiles/AHT20.dir/C_/VSARM/sdk/pico/pico-sdk/lib/tinyusb/src/class/msc/msc_device.c.obj
 .ARM.attributes
                0x00000000       0x2c CMakeFiles/AHT20.dir/C_/VSARM/sdk/pico/pico-sdk/lib/tinyusb/src/class/msc/msc_device.c.obj
 .text          0x00000000        0x0 CMakeFiles/AHT20.dir/C_/VSARM/sdk/pico/pico-sdk/lib/tinyusb/src/class/net/ecm_rndis_device.c.obj
 .data          0x00000000        0x0 CMakeFiles/AHT20.dir/C_/VSARM/sdk/pico/pico-sdk/lib/tinyusb/src/class/net/ecm_rndis_device.c.obj
 .bss           0x00000000        0x0 CMakeFiles/AHT20.dir/C_/VSARM/sdk/pico/pico-sdk/lib/tinyusb/src/class/net/ecm_rndis_device.c.obj
 .debug_info    0x00000000       0x6c CMakeFiles/AHT20.dir/C_/VSARM/sdk/pico/pico-sdk/lib/tinyusb/src/class/net/ecm_rndis_device.c.obj
 .debug_abbrev  0x00000000       0x26 CMakeFiles/AHT20.dir/C_/VSARM/sdk/pico/pico-sdk/lib/tinyusb/src/class/net/ecm_rndis_device.c.obj
 .debug_aranges
                0x00000000       0x18 CMakeFiles/AHT20.dir/C_/VSARM/sdk/pico/pico-sdk/lib/tinyusb/src/class/net/ecm_rndis_device.c.obj
 .debug_line    0x00000000       0x68 CMakeFiles/AHT20.dir/C_/VSARM/sdk/pico/pico-sdk/lib/tinyusb/src/class/net/ecm_rndis_device.c.obj
 .debug_str     0x00000000      0x18d CMakeFiles/AHT20.dir/C_/VSARM/sdk/pico/pico-sdk/lib/tinyusb/src/class/net/ecm_rndis_device.c.obj
 .comment       0x00000000       0x46 CMakeFiles/AHT20.dir/C_/VSARM/sdk/pico/pico-sdk/lib/tinyusb/src/class/net/ecm_rndis_device.c.obj
 .ARM.attributes
                0x00000000       0x2c CMakeFiles/AHT20.dir/C_/VSARM/sdk/pico/pico-sdk/lib/tinyusb/src/class/net/ecm_rndis_device.c.obj
 .text          0x00000000        0x0 CMakeFiles/AHT20.dir/C_/VSARM/sdk/pico/pico-sdk/lib/tinyusb/src/class/net/ncm_device.c.obj
 .data          0x00000000        0x0 CMakeFiles/AHT20.dir/C_/VSARM/sdk/pico/pico-sdk/lib/tinyusb/src/class/net/ncm_device.c.obj
 .bss           0x00000000        0x0 CMakeFiles/AHT20.dir/C_/VSARM/sdk/pico/pico-sdk/lib/tinyusb/src/class/net/ncm_device.c.obj
 .debug_info    0x00000000       0x6c CMakeFiles/AHT20.dir/C_/VSARM/sdk/pico/pico-sdk/lib/tinyusb/src/class/net/ncm_device.c.obj
 .debug_abbrev  0x00000000       0x26 CMakeFiles/AHT20.dir/C_/VSARM/sdk/pico/pico-sdk/lib/tinyusb/src/class/net/ncm_device.c.obj
 .debug_aranges
                0x00000000       0x18 CMakeFiles/AHT20.dir/C_/VSARM/sdk/pico/pico-sdk/lib/tinyusb/src/class/net/ncm_device.c.obj
 .debug_line    0x00000000       0x62 CMakeFiles/AHT20.dir/C_/VSARM/sdk/pico/pico-sdk/lib/tinyusb/src/class/net/ncm_device.c.obj
 .debug_str     0x00000000      0x187 CMakeFiles/AHT20.dir/C_/VSARM/sdk/pico/pico-sdk/lib/tinyusb/src/class/net/ncm_device.c.obj
 .comment       0x00000000       0x46 CMakeFiles/AHT20.dir/C_/VSARM/sdk/pico/pico-sdk/lib/tinyusb/src/class/net/ncm_device.c.obj
 .ARM.attributes
                0x00000000       0x2c CMakeFiles/AHT20.dir/C_/VSARM/sdk/pico/pico-sdk/lib/tinyusb/src/class/net/ncm_device.c.obj
 .text          0x00000000        0x0 CMakeFiles/AHT20.dir/C_/VSARM/sdk/pico/pico-sdk/lib/tinyusb/src/class/usbtmc/usbtmc_device.c.obj
 .data          0x00000000        0x0 CMakeFiles/AHT20.dir/C_/VSARM/sdk/pico/pico-sdk/lib/tinyusb/src/class/usbtmc/usbtmc_device.c.obj
 .bss           0x00000000        0x0 CMakeFiles/AHT20.dir/C_/VSARM/sdk/pico/pico-sdk/lib/tinyusb/src/class/usbtmc/usbtmc_device.c.obj
 .debug_info    0x00000000       0x6c CMakeFiles/AHT20.dir/C_/VSARM/sdk/pico/pico-sdk/lib/tinyusb/src/class/usbtmc/usbtmc_device.c.obj
 .debug_abbrev  0x00000000       0x26 CMakeFiles/AHT20.dir/C_/VSARM/sdk/pico/pico-sdk/lib/tinyusb/src/class/usbtmc/usbtmc_device.c.obj
 .debug_aranges
                0x00000000       0x18 CMakeFiles/AHT20.dir/C_/VSARM/sdk/pico/pico-sdk/lib/tinyusb/src/class/usbtmc/usbtmc_device.c.obj
 .debug_line    0x00000000       0x68 CMakeFiles/AHT20.dir/C_/VSARM/sdk/pico/pico-sdk/lib/tinyusb/src/class/usbtmc/usbtmc_device.c.obj
 .debug_str     0x00000000      0x18d CMakeFiles/AHT20.dir/C_/VSARM/sdk/pico/pico-sdk/lib/tinyusb/src/class/usbtmc/usbtmc_device.c.obj
 .comment       0x00000000       0x46 CMakeFiles/AHT20.dir/C_/VSARM/sdk/pico/pico-sdk/lib/tinyusb/src/class/usbtmc/usbtmc_device.c.obj
 .ARM.attributes
                0x00000000       0x2c CMakeFiles/AHT20.dir/C_/VSARM/sdk/pico/pico-sdk/lib/tinyusb/src/class/usbtmc/usbtmc_device.c.obj
 .text          0x00000000        0x0 CMakeFiles/AHT20.dir/C_/VSARM/sdk/pico/pico-sdk/lib/tinyusb/src/class/vendor/vendor_device.c.obj
 .data          0x00000000        0x0 CMakeFiles/AHT20.dir/C_/VSARM/sdk/pico/pico-sdk/lib/tinyusb/src/class/vendor/vendor_device.c.obj
 .bss           0x00000000        0x0 CMakeFiles/AHT20.dir/C_/VSARM/sdk/pico/pico-sdk/lib/tinyusb/src/class/vendor/vendor_device.c.obj
 .debug_info    0x00000000       0x6c CMakeFiles/AHT20.dir/C_/VSARM/sdk/pico/pico-sdk/lib/tinyusb/src/class/vendor/vendor_device.c.obj
 .debug_abbrev  0x00000000       0x26 CMakeFiles/AHT20.dir/C_/VSARM/sdk/pico/pico-sdk/lib/tinyusb/src/class/vendor/vendor_device.c.obj
 .debug_aranges
                0x00000000       0x18 CMakeFiles/AHT20.dir/C_/VSARM/sdk/pico/pico-sdk/lib/tinyusb/src/class/vendor/vendor_device.c.obj
 .debug_line    0x00000000       0x68 CMakeFiles/AHT20.dir/C_/VSARM/sdk/pico/pico-sdk/lib/tinyusb/src/class/vendor/vendor_device.c.obj
 .debug_str     0x00000000      0x18d CMakeFiles/AHT20.dir/C_/VSARM/sdk/pico/pico-sdk/lib/tinyusb/src/class/vendor/vendor_device.c.obj
 .comment       0x00000000       0x46 CMakeFiles/AHT20.dir/C_/VSARM/sdk/pico/pico-sdk/lib/tinyusb/src/class/vendor/vendor_device.c.obj
 .ARM.attributes
                0x00000000       0x2c CMakeFiles/AHT20.dir/C_/VSARM/sdk/pico/pico-sdk/lib/tinyusb/src/class/vendor/vendor_device.c.obj
 .text          0x00000000        0x0 CMakeFiles/AHT20.dir/C_/VSARM/sdk/pico/pico-sdk/lib/tinyusb/src/class/video/video_device.c.obj
 .data          0x00000000        0x0 CMakeFiles/AHT20.dir/C_/VSARM/sdk/pico/pico-sdk/lib/tinyusb/src/class/video/video_device.c.obj
 .bss           0x00000000        0x0 CMakeFiles/AHT20.dir/C_/VSARM/sdk/pico/pico-sdk/lib/tinyusb/src/class/video/video_device.c.obj
 .debug_info    0x00000000       0x6c CMakeFiles/AHT20.dir/C_/VSARM/sdk/pico/pico-sdk/lib/tinyusb/src/class/video/video_device.c.obj
 .debug_abbrev  0x00000000       0x26 CMakeFiles/AHT20.dir/C_/VSARM/sdk/pico/pico-sdk/lib/tinyusb/src/class/video/video_device.c.obj
 .debug_aranges
                0x00000000       0x18 CMakeFiles/AHT20.dir/C_/VSARM/sdk/pico/pico-sdk/lib/tinyusb/src/class/video/video_device.c.obj
 .debug_line    0x00000000       0x66 CMakeFiles/AHT20.dir/C_/VSARM/sdk/pico/pico-sdk/lib/tinyusb/src/class/video/video_device.c.obj
 .debug_str     0x00000000      0x18b CMakeFiles/AHT20.dir/C_/VSARM/sdk/pico/pico-sdk/lib/tinyusb/src/class/video/video_device.c.obj
 .comment       0x00000000       0x46 CMakeFiles/AHT20.dir/C_/VSARM/sdk/pico/pico-sdk/lib/tinyusb/src/class/video/video_device.c.obj
 .ARM.attributes
                0x00000000       0x2c CMakeFiles/AHT20.dir/C_/VSARM/sdk/pico/pico-sdk/lib/tinyusb/src/class/video/video_device.c.obj
 .text          0x00000000        0x0 CMakeFiles/AHT20.dir/C_/VSARM/sdk/pico/pico-sdk/lib/tinyusb/src/tusb.c.obj
 .data          0x00000000        0x0 CMakeFiles/AHT20.dir/C_/VSARM/sdk/pico/pico-sdk/lib/tinyusb/src/tusb.c.obj
 .bss           0x00000000        0x0 CMakeFiles/AHT20.dir/C_/VSARM/sdk/pico/pico-sdk/lib/tinyusb/src/tusb.c.obj
 .text.tu_desc_find
                0x00000000       0x18 CMakeFiles/AHT20.dir/C_/VSARM/sdk/pico/pico-sdk/lib/tinyusb/src/tusb.c.obj
 .text.tu_desc_find2
                0x00000000       0x20 CMakeFiles/AHT20.dir/C_/VSARM/sdk/pico/pico-sdk/lib/tinyusb/src/tusb.c.obj
 .text.tu_desc_find3
                0x00000000       0x2a CMakeFiles/AHT20.dir/C_/VSARM/sdk/pico/pico-sdk/lib/tinyusb/src/tusb.c.obj
 .text.tu_desc_get_interface_total_len
                0x00000000       0x3e CMakeFiles/AHT20.dir/C_/VSARM/sdk/pico/pico-sdk/lib/tinyusb/src/tusb.c.obj
 .text.tu_edpt_stream_init
                0x00000000       0x6c CMakeFiles/AHT20.dir/C_/VSARM/sdk/pico/pico-sdk/lib/tinyusb/src/tusb.c.obj
 .text.tu_edpt_stream_write_zlp_if_needed
                0x00000000       0x58 CMakeFiles/AHT20.dir/C_/VSARM/sdk/pico/pico-sdk/lib/tinyusb/src/tusb.c.obj
 .text.tu_edpt_stream_write_xfer
                0x00000000       0x6c CMakeFiles/AHT20.dir/C_/VSARM/sdk/pico/pico-sdk/lib/tinyusb/src/tusb.c.obj
 .text.tu_edpt_stream_write
                0x00000000       0x34 CMakeFiles/AHT20.dir/C_/VSARM/sdk/pico/pico-sdk/lib/tinyusb/src/tusb.c.obj
 .text.tu_edpt_stream_read_xfer
                0x00000000       0x88 CMakeFiles/AHT20.dir/C_/VSARM/sdk/pico/pico-sdk/lib/tinyusb/src/tusb.c.obj
 .text.tu_edpt_stream_read
                0x00000000       0x18 CMakeFiles/AHT20.dir/C_/VSARM/sdk/pico/pico-sdk/lib/tinyusb/src/tusb.c.obj
 .text          0x00000000        0x0 CMakeFiles/AHT20.dir/C_/VSARM/sdk/pico/pico-sdk/lib/tinyusb/src/common/tusb_fifo.c.obj
 .data          0x00000000        0x0 CMakeFiles/AHT20.dir/C_/VSARM/sdk/pico/pico-sdk/lib/tinyusb/src/common/tusb_fifo.c.obj
 .bss           0x00000000        0x0 CMakeFiles/AHT20.dir/C_/VSARM/sdk/pico/pico-sdk/lib/tinyusb/src/common/tusb_fifo.c.obj
 .text.tu_fifo_overflowed
                0x00000000       0x26 CMakeFiles/AHT20.dir/C_/VSARM/sdk/pico/pico-sdk/lib/tinyusb/src/common/tusb_fifo.c.obj
 .text.tu_fifo_correct_read_pointer
                0x00000000       0x34 CMakeFiles/AHT20.dir/C_/VSARM/sdk/pico/pico-sdk/lib/tinyusb/src/common/tusb_fifo.c.obj
 .text.tu_fifo_read_n_const_addr_full_words
                0x00000000        0xa CMakeFiles/AHT20.dir/C_/VSARM/sdk/pico/pico-sdk/lib/tinyusb/src/common/tusb_fifo.c.obj
 .text.tu_fifo_peek
                0x00000000       0x34 CMakeFiles/AHT20.dir/C_/VSARM/sdk/pico/pico-sdk/lib/tinyusb/src/common/tusb_fifo.c.obj
 .text.tu_fifo_peek_n
                0x00000000       0x40 CMakeFiles/AHT20.dir/C_/VSARM/sdk/pico/pico-sdk/lib/tinyusb/src/common/tusb_fifo.c.obj
 .text.tu_fifo_write_n_const_addr_full_words
                0x00000000        0xa CMakeFiles/AHT20.dir/C_/VSARM/sdk/pico/pico-sdk/lib/tinyusb/src/common/tusb_fifo.c.obj
 .text.tu_fifo_advance_write_pointer
                0x00000000       0x14 CMakeFiles/AHT20.dir/C_/VSARM/sdk/pico/pico-sdk/lib/tinyusb/src/common/tusb_fifo.c.obj
 .text.tu_fifo_advance_read_pointer
                0x00000000       0x14 CMakeFiles/AHT20.dir/C_/VSARM/sdk/pico/pico-sdk/lib/tinyusb/src/common/tusb_fifo.c.obj
 .text.tu_fifo_get_read_info
                0x00000000       0xa0 CMakeFiles/AHT20.dir/C_/VSARM/sdk/pico/pico-sdk/lib/tinyusb/src/common/tusb_fifo.c.obj
 .text.tu_fifo_get_write_info
                0x00000000       0x72 CMakeFiles/AHT20.dir/C_/VSARM/sdk/pico/pico-sdk/lib/tinyusb/src/common/tusb_fifo.c.obj
 .text          0x00000000        0x0 CMakeFiles/AHT20.dir/C_/VSARM/sdk/pico/pico-sdk/src/rp2_common/pico_fix/rp2040_usb_device_enumeration/rp2040_usb_device_enumeration.c.obj
 .data          0x00000000        0x0 CMakeFiles/AHT20.dir/C_/VSARM/sdk/pico/pico-sdk/src/rp2_common/pico_fix/rp2040_usb_device_enumeration/rp2040_usb_device_enumeration.c.obj
 .bss           0x00000000        0x0 CMakeFiles/AHT20.dir/C_/VSARM/sdk/pico/pico-sdk/src/rp2_common/pico_fix/rp2040_usb_device_enumeration/rp2040_usb_device_enumeration.c.obj
 .text.rp2040_usb_device_enumeration_fix
                0x00000000        0x2 CMakeFiles/AHT20.dir/C_/VSARM/sdk/pico/pico-sdk/src/rp2_common/pico_fix/rp2040_usb_device_enumeration/rp2040_usb_device_enumeration.c.obj
 .debug_info    0x00000000       0x8d CMakeFiles/AHT20.dir/C_/VSARM/sdk/pico/pico-sdk/src/rp2_common/pico_fix/rp2040_usb_device_enumeration/rp2040_usb_device_enumeration.c.obj
 .debug_abbrev  0x00000000       0x43 CMakeFiles/AHT20.dir/C_/VSARM/sdk/pico/pico-sdk/src/rp2_common/pico_fix/rp2040_usb_device_enumeration/rp2040_usb_device_enumeration.c.obj
 .debug_aranges
                0x00000000       0x20 CMakeFiles/AHT20.dir/C_/VSARM/sdk/pico/pico-sdk/src/rp2_common/pico_fix/rp2040_usb_device_enumeration/rp2040_usb_device_enumeration.c.obj
 .debug_rnglists
                0x00000000       0x13 CMakeFiles/AHT20.dir/C_/VSARM/sdk/pico/pico-sdk/src/rp2_common/pico_fix/rp2040_usb_device_enumeration/rp2040_usb_device_enumeration.c.obj
 .debug_line    0x00000000       0xa6 CMakeFiles/AHT20.dir/C_/VSARM/sdk/pico/pico-sdk/src/rp2_common/pico_fix/rp2040_usb_device_enumeration/rp2040_usb_device_enumeration.c.obj
 .debug_str     0x00000000      0x1de CMakeFiles/AHT20.dir/C_/VSARM/sdk/pico/pico-sdk/src/rp2_common/pico_fix/rp2040_usb_device_enumeration/rp2040_usb_device_enumeration.c.obj
 .comment       0x00000000       0x46 CMakeFiles/AHT20.dir/C_/VSARM/sdk/pico/pico-sdk/src/rp2_common/pico_fix/rp2040_usb_device_enumeration/rp2040_usb_device_enumeration.c.obj
 .debug_frame   0x00000000       0x20 CMakeFiles/AHT20.dir/C_/VSARM/sdk/pico/pico-sdk/src/rp2_common/pico_fix/rp2040_usb_device_enumeration/rp2040_usb_device_enumeration.c.obj
 .ARM.attributes
                0x00000000       0x2c CMakeFiles/AHT20.dir/C_/VSARM/sdk/pico/pico-sdk/src/rp2_common/pico_fix/rp2040_usb_device_enumeration/rp2040_usb_device_enumeration.c.obj
 .text          0x00000000        0x0 CMakeFiles/AHT20.dir/C_/VSARM/sdk/pico/pico-sdk/src/rp2_common/hardware_i2c/i2c.c.obj
 .data          0x00000000        0x0 CMakeFiles/AHT20.dir/C_/VSARM/sdk/pico/pico-sdk/src/rp2_common/hardware_i2c/i2c.c.obj
 .bss           0x00000000        0x0 CMakeFiles/AHT20.dir/C_/VSARM/sdk/pico/pico-sdk/src/rp2_common/hardware_i2c/i2c.c.obj
 .text.i2c_write_blocking_internal
                0x00000000      0x146 CMakeFiles/AHT20.dir/C_/VSARM/sdk/pico/pico-sdk/src/rp2_common/hardware_i2c/i2c.c.obj
 .text.i2c_read_blocking_internal
                0x00000000       0xe6 CMakeFiles/AHT20.dir/C_/VSARM/sdk/pico/pico-sdk/src/rp2_common/hardware_i2c/i2c.c.obj
 .text.i2c_deinit
                0x00000000       0x1c CMakeFiles/AHT20.dir/C_/VSARM/sdk/pico/pico-sdk/src/rp2_common/hardware_i2c/i2c.c.obj
 .rodata.i2c_set_baudrate.str1.4
                0x00000000       0x5d CMakeFiles/AHT20.dir/C_/VSARM/sdk/pico/pico-sdk/src/rp2_common/hardware_i2c/i2c.c.obj
 .text.i2c_set_baudrate
                0x00000000       0xf0 CMakeFiles/AHT20.dir/C_/VSARM/sdk/pico/pico-sdk/src/rp2_common/hardware_i2c/i2c.c.obj
 .text.i2c_init
                0x00000000       0x58 CMakeFiles/AHT20.dir/C_/VSARM/sdk/pico/pico-sdk/src/rp2_common/hardware_i2c/i2c.c.obj
 .text.i2c_set_slave_mode
                0x00000000       0x48 CMakeFiles/AHT20.dir/C_/VSARM/sdk/pico/pico-sdk/src/rp2_common/hardware_i2c/i2c.c.obj
 .text.i2c_write_blocking
                0x00000000       0x18 CMakeFiles/AHT20.dir/C_/VSARM/sdk/pico/pico-sdk/src/rp2_common/hardware_i2c/i2c.c.obj
 .text.i2c_write_blocking_until
                0x00000000       0x3e CMakeFiles/AHT20.dir/C_/VSARM/sdk/pico/pico-sdk/src/rp2_common/hardware_i2c/i2c.c.obj
 .text.i2c_write_timeout_per_char_us
                0x00000000       0x3e CMakeFiles/AHT20.dir/C_/VSARM/sdk/pico/pico-sdk/src/rp2_common/hardware_i2c/i2c.c.obj
 .text.i2c_read_blocking
                0x00000000       0x18 CMakeFiles/AHT20.dir/C_/VSARM/sdk/pico/pico-sdk/src/rp2_common/hardware_i2c/i2c.c.obj
 .text.i2c_read_blocking_until
                0x00000000       0x3e CMakeFiles/AHT20.dir/C_/VSARM/sdk/pico/pico-sdk/src/rp2_common/hardware_i2c/i2c.c.obj
 .text.i2c_read_timeout_per_char_us
                0x00000000       0x3e CMakeFiles/AHT20.dir/C_/VSARM/sdk/pico/pico-sdk/src/rp2_common/hardware_i2c/i2c.c.obj
 .rodata.__func__.0
                0x00000000       0x11 CMakeFiles/AHT20.dir/C_/VSARM/sdk/pico/pico-sdk/src/rp2_common/hardware_i2c/i2c.c.obj
 .data.i2c1_inst
                0x00000000        0x8 CMakeFiles/AHT20.dir/C_/VSARM/sdk/pico/pico-sdk/src/rp2_common/hardware_i2c/i2c.c.obj
 .data.i2c0_inst
                0x00000000        0x8 CMakeFiles/AHT20.dir/C_/VSARM/sdk/pico/pico-sdk/src/rp2_common/hardware_i2c/i2c.c.obj
 .debug_info    0x00000000     0x15ac CMakeFiles/AHT20.dir/C_/VSARM/sdk/pico/pico-sdk/src/rp2_common/hardware_i2c/i2c.c.obj
 .debug_abbrev  0x00000000      0x4a8 CMakeFiles/AHT20.dir/C_/VSARM/sdk/pico/pico-sdk/src/rp2_common/hardware_i2c/i2c.c.obj
 .debug_loclists
                0x00000000      0xc21 CMakeFiles/AHT20.dir/C_/VSARM/sdk/pico/pico-sdk/src/rp2_common/hardware_i2c/i2c.c.obj
 .debug_aranges
                0x00000000       0x78 CMakeFiles/AHT20.dir/C_/VSARM/sdk/pico/pico-sdk/src/rp2_common/hardware_i2c/i2c.c.obj
 .debug_rnglists
                0x00000000       0x8d CMakeFiles/AHT20.dir/C_/VSARM/sdk/pico/pico-sdk/src/rp2_common/hardware_i2c/i2c.c.obj
 .debug_line    0x00000000      0xbe3 CMakeFiles/AHT20.dir/C_/VSARM/sdk/pico/pico-sdk/src/rp2_common/hardware_i2c/i2c.c.obj
 .debug_str     0x00000000      0x91f CMakeFiles/AHT20.dir/C_/VSARM/sdk/pico/pico-sdk/src/rp2_common/hardware_i2c/i2c.c.obj
 .comment       0x00000000       0x46 CMakeFiles/AHT20.dir/C_/VSARM/sdk/pico/pico-sdk/src/rp2_common/hardware_i2c/i2c.c.obj
 .debug_frame   0x00000000      0x1a8 CMakeFiles/AHT20.dir/C_/VSARM/sdk/pico/pico-sdk/src/rp2_common/hardware_i2c/i2c.c.obj
 .ARM.attributes
                0x00000000       0x2c CMakeFiles/AHT20.dir/C_/VSARM/sdk/pico/pico-sdk/src/rp2_common/hardware_i2c/i2c.c.obj
 .text          0x00000000        0x0 CMakeFiles/AHT20.dir/C_/VSARM/sdk/pico/pico-sdk/src/rp2_common/pico_lwip/lwip_nosys.c.obj
 .data          0x00000000        0x0 CMakeFiles/AHT20.dir/C_/VSARM/sdk/pico/pico-sdk/src/rp2_common/pico_lwip/lwip_nosys.c.obj
 .bss           0x00000000        0x0 CMakeFiles/AHT20.dir/C_/VSARM/sdk/pico/pico-sdk/src/rp2_common/pico_lwip/lwip_nosys.c.obj
 .text.to_ms_since_boot
                0x00000000       0x1c CMakeFiles/AHT20.dir/C_/VSARM/sdk/pico/pico-sdk/src/rp2_common/pico_lwip/lwip_nosys.c.obj
 .rodata.update_us_since_boot.str1.4
                0x00000000       0x61 CMakeFiles/AHT20.dir/C_/VSARM/sdk/pico/pico-sdk/src/rp2_common/pico_lwip/lwip_nosys.c.obj
 .text.update_us_since_boot
                0x00000000       0x24 CMakeFiles/AHT20.dir/C_/VSARM/sdk/pico/pico-sdk/src/rp2_common/pico_lwip/lwip_nosys.c.obj
 .text.delayed_by_ms
                0x00000000       0x44 CMakeFiles/AHT20.dir/C_/VSARM/sdk/pico/pico-sdk/src/rp2_common/pico_lwip/lwip_nosys.c.obj
 .rodata.lwip_timeout_reached.str1.4
                0x00000000       0x61 CMakeFiles/AHT20.dir/C_/VSARM/sdk/pico/pico-sdk/src/rp2_common/pico_lwip/lwip_nosys.c.obj
 .text.lwip_timeout_reached
                0x00000000       0x2c CMakeFiles/AHT20.dir/C_/VSARM/sdk/pico/pico-sdk/src/rp2_common/pico_lwip/lwip_nosys.c.obj
 .text.get_absolute_time
                0x00000000       0x22 CMakeFiles/AHT20.dir/C_/VSARM/sdk/pico/pico-sdk/src/rp2_common/pico_lwip/lwip_nosys.c.obj
 .text.make_timeout_time_ms
                0x00000000       0x20 CMakeFiles/AHT20.dir/C_/VSARM/sdk/pico/pico-sdk/src/rp2_common/pico_lwip/lwip_nosys.c.obj
 .rodata.update_next_timeout.str1.4
                0x00000000       0x30 CMakeFiles/AHT20.dir/C_/VSARM/sdk/pico/pico-sdk/src/rp2_common/pico_lwip/lwip_nosys.c.obj
 .text.update_next_timeout
                0x00000000       0x6c CMakeFiles/AHT20.dir/C_/VSARM/sdk/pico/pico-sdk/src/rp2_common/pico_lwip/lwip_nosys.c.obj
 .text.lwip_nosys_init
                0x00000000       0x34 CMakeFiles/AHT20.dir/C_/VSARM/sdk/pico/pico-sdk/src/rp2_common/pico_lwip/lwip_nosys.c.obj
 .text.lwip_nosys_deinit
                0x00000000       0x20 CMakeFiles/AHT20.dir/C_/VSARM/sdk/pico/pico-sdk/src/rp2_common/pico_lwip/lwip_nosys.c.obj
 .text.sys_arch_protect
                0x00000000        0x4 CMakeFiles/AHT20.dir/C_/VSARM/sdk/pico/pico-sdk/src/rp2_common/pico_lwip/lwip_nosys.c.obj
 .text.sys_arch_unprotect
                0x00000000        0x2 CMakeFiles/AHT20.dir/C_/VSARM/sdk/pico/pico-sdk/src/rp2_common/pico_lwip/lwip_nosys.c.obj
 .text.sys_now  0x00000000       0x16 CMakeFiles/AHT20.dir/C_/VSARM/sdk/pico/pico-sdk/src/rp2_common/pico_lwip/lwip_nosys.c.obj
 .rodata.__func__.0
                0x00000000       0x15 CMakeFiles/AHT20.dir/C_/VSARM/sdk/pico/pico-sdk/src/rp2_common/pico_lwip/lwip_nosys.c.obj
 .rodata.__func__.1
                0x00000000       0x15 CMakeFiles/AHT20.dir/C_/VSARM/sdk/pico/pico-sdk/src/rp2_common/pico_lwip/lwip_nosys.c.obj
 .rodata.__func__.2
                0x00000000       0x14 CMakeFiles/AHT20.dir/C_/VSARM/sdk/pico/pico-sdk/src/rp2_common/pico_lwip/lwip_nosys.c.obj
 .bss.done_lwip_init.3
                0x00000000        0x1 CMakeFiles/AHT20.dir/C_/VSARM/sdk/pico/pico-sdk/src/rp2_common/pico_lwip/lwip_nosys.c.obj
 .data.lwip_timeout_worker
                0x00000000       0x18 CMakeFiles/AHT20.dir/C_/VSARM/sdk/pico/pico-sdk/src/rp2_common/pico_lwip/lwip_nosys.c.obj
 .data.always_pending_update_timeout_worker
                0x00000000       0x10 CMakeFiles/AHT20.dir/C_/VSARM/sdk/pico/pico-sdk/src/rp2_common/pico_lwip/lwip_nosys.c.obj
 .debug_info    0x00000000      0xb03 CMakeFiles/AHT20.dir/C_/VSARM/sdk/pico/pico-sdk/src/rp2_common/pico_lwip/lwip_nosys.c.obj
 .debug_abbrev  0x00000000      0x2fd CMakeFiles/AHT20.dir/C_/VSARM/sdk/pico/pico-sdk/src/rp2_common/pico_lwip/lwip_nosys.c.obj
 .debug_loclists
                0x00000000      0x2a4 CMakeFiles/AHT20.dir/C_/VSARM/sdk/pico/pico-sdk/src/rp2_common/pico_lwip/lwip_nosys.c.obj
 .debug_aranges
                0x00000000       0x78 CMakeFiles/AHT20.dir/C_/VSARM/sdk/pico/pico-sdk/src/rp2_common/pico_lwip/lwip_nosys.c.obj
 .debug_rnglists
                0x00000000       0x55 CMakeFiles/AHT20.dir/C_/VSARM/sdk/pico/pico-sdk/src/rp2_common/pico_lwip/lwip_nosys.c.obj
 .debug_line    0x00000000      0x5c1 CMakeFiles/AHT20.dir/C_/VSARM/sdk/pico/pico-sdk/src/rp2_common/pico_lwip/lwip_nosys.c.obj
 .debug_str     0x00000000      0x69b CMakeFiles/AHT20.dir/C_/VSARM/sdk/pico/pico-sdk/src/rp2_common/pico_lwip/lwip_nosys.c.obj
 .comment       0x00000000       0x46 CMakeFiles/AHT20.dir/C_/VSARM/sdk/pico/pico-sdk/src/rp2_common/pico_lwip/lwip_nosys.c.obj
 .debug_frame   0x00000000      0x134 CMakeFiles/AHT20.dir/C_/VSARM/sdk/pico/pico-sdk/src/rp2_common/pico_lwip/lwip_nosys.c.obj
 .ARM.attributes
                0x00000000       0x2c CMakeFiles/AHT20.dir/C_/VSARM/sdk/pico/pico-sdk/src/rp2_common/pico_lwip/lwip_nosys.c.obj
 .text          0x00000000        0x0 CMakeFiles/AHT20.dir/C_/VSARM/sdk/pico/pico-sdk/src/rp2_common/pico_async_context/async_context_base.c.obj
 .data          0x00000000        0x0 CMakeFiles/AHT20.dir/C_/VSARM/sdk/pico/pico-sdk/src/rp2_common/pico_async_context/async_context_base.c.obj
 .bss           0x00000000        0x0 CMakeFiles/AHT20.dir/C_/VSARM/sdk/pico/pico-sdk/src/rp2_common/pico_async_context/async_context_base.c.obj
 .text.is_at_the_end_of_time
                0x00000000       0x1c CMakeFiles/AHT20.dir/C_/VSARM/sdk/pico/pico-sdk/src/rp2_common/pico_async_context/async_context_base.c.obj
 .rodata.update_us_since_boot.str1.4
                0x00000000       0x61 CMakeFiles/AHT20.dir/C_/VSARM/sdk/pico/pico-sdk/src/rp2_common/pico_async_context/async_context_base.c.obj
 .text.update_us_since_boot
                0x00000000       0x24 CMakeFiles/AHT20.dir/C_/VSARM/sdk/pico/pico-sdk/src/rp2_common/pico_async_context/async_context_base.c.obj
 .text.get_absolute_time
                0x00000000       0x22 CMakeFiles/AHT20.dir/C_/VSARM/sdk/pico/pico-sdk/src/rp2_common/pico_async_context/async_context_base.c.obj
 .text.async_context_base_add_at_time_worker
                0x00000000       0x1c CMakeFiles/AHT20.dir/C_/VSARM/sdk/pico/pico-sdk/src/rp2_common/pico_async_context/async_context_base.c.obj
 .text.async_context_base_remove_at_time_worker
                0x00000000       0x1c CMakeFiles/AHT20.dir/C_/VSARM/sdk/pico/pico-sdk/src/rp2_common/pico_async_context/async_context_base.c.obj
 .text.async_context_base_add_when_pending_worker
                0x00000000       0x1c CMakeFiles/AHT20.dir/C_/VSARM/sdk/pico/pico-sdk/src/rp2_common/pico_async_context/async_context_base.c.obj
 .text.async_context_base_remove_when_pending_worker
                0x00000000       0x1c CMakeFiles/AHT20.dir/C_/VSARM/sdk/pico/pico-sdk/src/rp2_common/pico_async_context/async_context_base.c.obj
 .rodata.async_context_base_remove_ready_at_time_worker.str1.4
                0x00000000       0x76 CMakeFiles/AHT20.dir/C_/VSARM/sdk/pico/pico-sdk/src/rp2_common/pico_async_context/async_context_base.c.obj
 .text.async_context_base_remove_ready_at_time_worker
                0x00000000       0x78 CMakeFiles/AHT20.dir/C_/VSARM/sdk/pico/pico-sdk/src/rp2_common/pico_async_context/async_context_base.c.obj
 .text.async_context_base_refresh_next_timeout
                0x00000000       0x3c CMakeFiles/AHT20.dir/C_/VSARM/sdk/pico/pico-sdk/src/rp2_common/pico_async_context/async_context_base.c.obj
 .text.async_context_base_execute_once
                0x00000000       0x48 CMakeFiles/AHT20.dir/C_/VSARM/sdk/pico/pico-sdk/src/rp2_common/pico_async_context/async_context_base.c.obj
 .text.async_context_base_needs_servicing
                0x00000000       0x56 CMakeFiles/AHT20.dir/C_/VSARM/sdk/pico/pico-sdk/src/rp2_common/pico_async_context/async_context_base.c.obj
 .rodata.__func__.0
                0x00000000       0x15 CMakeFiles/AHT20.dir/C_/VSARM/sdk/pico/pico-sdk/src/rp2_common/pico_async_context/async_context_base.c.obj
 .rodata.__func__.1
                0x00000000       0x2f CMakeFiles/AHT20.dir/C_/VSARM/sdk/pico/pico-sdk/src/rp2_common/pico_async_context/async_context_base.c.obj
 .debug_info    0x00000000      0xa95 CMakeFiles/AHT20.dir/C_/VSARM/sdk/pico/pico-sdk/src/rp2_common/pico_async_context/async_context_base.c.obj
 .debug_abbrev  0x00000000      0x2b9 CMakeFiles/AHT20.dir/C_/VSARM/sdk/pico/pico-sdk/src/rp2_common/pico_async_context/async_context_base.c.obj
 .debug_loclists
                0x00000000      0x2fa CMakeFiles/AHT20.dir/C_/VSARM/sdk/pico/pico-sdk/src/rp2_common/pico_async_context/async_context_base.c.obj
 .debug_aranges
                0x00000000       0x70 CMakeFiles/AHT20.dir/C_/VSARM/sdk/pico/pico-sdk/src/rp2_common/pico_async_context/async_context_base.c.obj
 .debug_rnglists
                0x00000000       0x97 CMakeFiles/AHT20.dir/C_/VSARM/sdk/pico/pico-sdk/src/rp2_common/pico_async_context/async_context_base.c.obj
 .debug_line    0x00000000      0x6b5 CMakeFiles/AHT20.dir/C_/VSARM/sdk/pico/pico-sdk/src/rp2_common/pico_async_context/async_context_base.c.obj
 .debug_str     0x00000000      0x63b CMakeFiles/AHT20.dir/C_/VSARM/sdk/pico/pico-sdk/src/rp2_common/pico_async_context/async_context_base.c.obj
 .comment       0x00000000       0x46 CMakeFiles/AHT20.dir/C_/VSARM/sdk/pico/pico-sdk/src/rp2_common/pico_async_context/async_context_base.c.obj
 .debug_frame   0x00000000      0x118 CMakeFiles/AHT20.dir/C_/VSARM/sdk/pico/pico-sdk/src/rp2_common/pico_async_context/async_context_base.c.obj
 .ARM.attributes
                0x00000000       0x2c CMakeFiles/AHT20.dir/C_/VSARM/sdk/pico/pico-sdk/src/rp2_common/pico_async_context/async_context_base.c.obj
 .text          0x00000000        0x0 CMakeFiles/AHT20.dir/C_/VSARM/sdk/pico/pico-sdk/src/rp2_common/pico_rand/rand.c.obj
 .data          0x00000000        0x0 CMakeFiles/AHT20.dir/C_/VSARM/sdk/pico/pico-sdk/src/rp2_common/pico_rand/rand.c.obj
 .bss           0x00000000        0x0 CMakeFiles/AHT20.dir/C_/VSARM/sdk/pico/pico-sdk/src/rp2_common/pico_rand/rand.c.obj
 .text.splitmix64
                0x00000000       0x58 CMakeFiles/AHT20.dir/C_/VSARM/sdk/pico/pico-sdk/src/rp2_common/pico_rand/rand.c.obj
 .text.sdbm_hash64_sram
                0x00000000       0x64 CMakeFiles/AHT20.dir/C_/VSARM/sdk/pico/pico-sdk/src/rp2_common/pico_rand/rand.c.obj
 .text.xoroshiro128ss
                0x00000000       0xb8 CMakeFiles/AHT20.dir/C_/VSARM/sdk/pico/pico-sdk/src/rp2_common/pico_rand/rand.c.obj
 .rodata.update_us_since_boot.str1.4
                0x00000000       0x61 CMakeFiles/AHT20.dir/C_/VSARM/sdk/pico/pico-sdk/src/rp2_common/pico_rand/rand.c.obj
 .text.update_us_since_boot
                0x00000000       0x24 CMakeFiles/AHT20.dir/C_/VSARM/sdk/pico/pico-sdk/src/rp2_common/pico_rand/rand.c.obj
 .text.get_absolute_time
                0x00000000       0x22 CMakeFiles/AHT20.dir/C_/VSARM/sdk/pico/pico-sdk/src/rp2_common/pico_rand/rand.c.obj
 .text.delayed_by_us
                0x00000000       0x34 CMakeFiles/AHT20.dir/C_/VSARM/sdk/pico/pico-sdk/src/rp2_common/pico_rand/rand.c.obj
 .text.make_timeout_time_us
                0x00000000       0x24 CMakeFiles/AHT20.dir/C_/VSARM/sdk/pico/pico-sdk/src/rp2_common/pico_rand/rand.c.obj
 .rodata.capture_additional_rosc_samples.str1.4
                0x00000000      0x106 CMakeFiles/AHT20.dir/C_/VSARM/sdk/pico/pico-sdk/src/rp2_common/pico_rand/rand.c.obj
 .text.capture_additional_rosc_samples
                0x00000000      0x164 CMakeFiles/AHT20.dir/C_/VSARM/sdk/pico/pico-sdk/src/rp2_common/pico_rand/rand.c.obj
 .rodata.initialise_rand.str1.4
                0x00000000        0xa CMakeFiles/AHT20.dir/C_/VSARM/sdk/pico/pico-sdk/src/rp2_common/pico_rand/rand.c.obj
 .text.initialise_rand
                0x00000000      0x110 CMakeFiles/AHT20.dir/C_/VSARM/sdk/pico/pico-sdk/src/rp2_common/pico_rand/rand.c.obj
 .text.get_rand_64
                0x00000000      0x10c CMakeFiles/AHT20.dir/C_/VSARM/sdk/pico/pico-sdk/src/rp2_common/pico_rand/rand.c.obj
 .text.get_rand_128
                0x00000000       0x16 CMakeFiles/AHT20.dir/C_/VSARM/sdk/pico/pico-sdk/src/rp2_common/pico_rand/rand.c.obj
 .text.get_rand_32
                0x00000000        0x8 CMakeFiles/AHT20.dir/C_/VSARM/sdk/pico/pico-sdk/src/rp2_common/pico_rand/rand.c.obj
 .rodata.__func__.0
                0x00000000       0x15 CMakeFiles/AHT20.dir/C_/VSARM/sdk/pico/pico-sdk/src/rp2_common/pico_rand/rand.c.obj
 .bss.next_sample_time.1
                0x00000000        0x8 CMakeFiles/AHT20.dir/C_/VSARM/sdk/pico/pico-sdk/src/rp2_common/pico_rand/rand.c.obj
 .rodata.__func__.2
                0x00000000       0x20 CMakeFiles/AHT20.dir/C_/VSARM/sdk/pico/pico-sdk/src/rp2_common/pico_rand/rand.c.obj
 .rodata.__func__.3
                0x00000000       0x10 CMakeFiles/AHT20.dir/C_/VSARM/sdk/pico/pico-sdk/src/rp2_common/pico_rand/rand.c.obj
 .bss.check_byte.4
                0x00000000        0x1 CMakeFiles/AHT20.dir/C_/VSARM/sdk/pico/pico-sdk/src/rp2_common/pico_rand/rand.c.obj
 .bss.bus_counter_idx
                0x00000000        0x1 CMakeFiles/AHT20.dir/C_/VSARM/sdk/pico/pico-sdk/src/rp2_common/pico_rand/rand.c.obj
 .uninitialized_data.rosc_samples
                0x00000000        0x8 CMakeFiles/AHT20.dir/C_/VSARM/sdk/pico/pico-sdk/src/rp2_common/pico_rand/rand.c.obj
 .uninitialized_data.ram_hash
                0x00000000        0x8 CMakeFiles/AHT20.dir/C_/VSARM/sdk/pico/pico-sdk/src/rp2_common/pico_rand/rand.c.obj
 .uninitialized_data.rng_state
                0x00000000       0x10 CMakeFiles/AHT20.dir/C_/VSARM/sdk/pico/pico-sdk/src/rp2_common/pico_rand/rand.c.obj
 .bss.rng_initialised
                0x00000000        0x1 CMakeFiles/AHT20.dir/C_/VSARM/sdk/pico/pico-sdk/src/rp2_common/pico_rand/rand.c.obj
 .debug_info    0x00000000     0x146f CMakeFiles/AHT20.dir/C_/VSARM/sdk/pico/pico-sdk/src/rp2_common/pico_rand/rand.c.obj
 .debug_abbrev  0x00000000      0x479 CMakeFiles/AHT20.dir/C_/VSARM/sdk/pico/pico-sdk/src/rp2_common/pico_rand/rand.c.obj
 .debug_loclists
                0x00000000      0x624 CMakeFiles/AHT20.dir/C_/VSARM/sdk/pico/pico-sdk/src/rp2_common/pico_rand/rand.c.obj
 .debug_aranges
                0x00000000       0x78 CMakeFiles/AHT20.dir/C_/VSARM/sdk/pico/pico-sdk/src/rp2_common/pico_rand/rand.c.obj
 .debug_rnglists
                0x00000000       0x8f CMakeFiles/AHT20.dir/C_/VSARM/sdk/pico/pico-sdk/src/rp2_common/pico_rand/rand.c.obj
 .debug_line    0x00000000      0xb23 CMakeFiles/AHT20.dir/C_/VSARM/sdk/pico/pico-sdk/src/rp2_common/pico_rand/rand.c.obj
 .debug_str     0x00000000      0xa97 CMakeFiles/AHT20.dir/C_/VSARM/sdk/pico/pico-sdk/src/rp2_common/pico_rand/rand.c.obj
 .comment       0x00000000       0x46 CMakeFiles/AHT20.dir/C_/VSARM/sdk/pico/pico-sdk/src/rp2_common/pico_rand/rand.c.obj
 .debug_frame   0x00000000      0x184 CMakeFiles/AHT20.dir/C_/VSARM/sdk/pico/pico-sdk/src/rp2_common/pico_rand/rand.c.obj
 .ARM.attributes
                0x00000000       0x2c CMakeFiles/AHT20.dir/C_/VSARM/sdk/pico/pico-sdk/src/rp2_common/pico_rand/rand.c.obj
 .text          0x00000000        0x0 CMakeFiles/AHT20.dir/C_/VSARM/sdk/pico/pico-sdk/lib/lwip/src/core/init.c.obj
 .data          0x00000000        0x0 CMakeFiles/AHT20.dir/C_/VSARM/sdk/pico/pico-sdk/lib/lwip/src/core/init.c.obj
 .bss           0x00000000        0x0 CMakeFiles/AHT20.dir/C_/VSARM/sdk/pico/pico-sdk/lib/lwip/src/core/init.c.obj
 .text.lwip_init
                0x00000000       0x24 CMakeFiles/AHT20.dir/C_/VSARM/sdk/pico/pico-sdk/lib/lwip/src/core/init.c.obj
 .debug_info    0x00000000      0x12f CMakeFiles/AHT20.dir/C_/VSARM/sdk/pico/pico-sdk/lib/lwip/src/core/init.c.obj
 .debug_abbrev  0x00000000       0x93 CMakeFiles/AHT20.dir/C_/VSARM/sdk/pico/pico-sdk/lib/lwip/src/core/init.c.obj
 .debug_aranges
                0x00000000       0x20 CMakeFiles/AHT20.dir/C_/VSARM/sdk/pico/pico-sdk/lib/lwip/src/core/init.c.obj
 .debug_rnglists
                0x00000000       0x13 CMakeFiles/AHT20.dir/C_/VSARM/sdk/pico/pico-sdk/lib/lwip/src/core/init.c.obj
 .debug_line    0x00000000      0x19f CMakeFiles/AHT20.dir/C_/VSARM/sdk/pico/pico-sdk/lib/lwip/src/core/init.c.obj
 .debug_str     0x00000000      0x1e8 CMakeFiles/AHT20.dir/C_/VSARM/sdk/pico/pico-sdk/lib/lwip/src/core/init.c.obj
 .comment       0x00000000       0x46 CMakeFiles/AHT20.dir/C_/VSARM/sdk/pico/pico-sdk/lib/lwip/src/core/init.c.obj
 .debug_frame   0x00000000       0x28 CMakeFiles/AHT20.dir/C_/VSARM/sdk/pico/pico-sdk/lib/lwip/src/core/init.c.obj
 .ARM.attributes
                0x00000000       0x2c CMakeFiles/AHT20.dir/C_/VSARM/sdk/pico/pico-sdk/lib/lwip/src/core/init.c.obj
 .text          0x00000000        0x0 CMakeFiles/AHT20.dir/C_/VSARM/sdk/pico/pico-sdk/lib/lwip/src/core/def.c.obj
 .data          0x00000000        0x0 CMakeFiles/AHT20.dir/C_/VSARM/sdk/pico/pico-sdk/lib/lwip/src/core/def.c.obj
 .bss           0x00000000        0x0 CMakeFiles/AHT20.dir/C_/VSARM/sdk/pico/pico-sdk/lib/lwip/src/core/def.c.obj
 .text.lwip_htons
                0x00000000        0xa CMakeFiles/AHT20.dir/C_/VSARM/sdk/pico/pico-sdk/lib/lwip/src/core/def.c.obj
 .text.lwip_htonl
                0x00000000       0x1e CMakeFiles/AHT20.dir/C_/VSARM/sdk/pico/pico-sdk/lib/lwip/src/core/def.c.obj
 .text.lwip_strnstr
                0x00000000       0x58 CMakeFiles/AHT20.dir/C_/VSARM/sdk/pico/pico-sdk/lib/lwip/src/core/def.c.obj
 .text.lwip_stricmp
                0x00000000       0x3a CMakeFiles/AHT20.dir/C_/VSARM/sdk/pico/pico-sdk/lib/lwip/src/core/def.c.obj
 .text.lwip_strnicmp
                0x00000000       0x44 CMakeFiles/AHT20.dir/C_/VSARM/sdk/pico/pico-sdk/lib/lwip/src/core/def.c.obj
 .text.lwip_strnistr
                0x00000000       0x4e CMakeFiles/AHT20.dir/C_/VSARM/sdk/pico/pico-sdk/lib/lwip/src/core/def.c.obj
 .text.lwip_itoa
                0x00000000       0x86 CMakeFiles/AHT20.dir/C_/VSARM/sdk/pico/pico-sdk/lib/lwip/src/core/def.c.obj
 .debug_info    0x00000000      0x514 CMakeFiles/AHT20.dir/C_/VSARM/sdk/pico/pico-sdk/lib/lwip/src/core/def.c.obj
 .debug_abbrev  0x00000000      0x151 CMakeFiles/AHT20.dir/C_/VSARM/sdk/pico/pico-sdk/lib/lwip/src/core/def.c.obj
 .debug_loclists
                0x00000000      0x412 CMakeFiles/AHT20.dir/C_/VSARM/sdk/pico/pico-sdk/lib/lwip/src/core/def.c.obj
 .debug_aranges
                0x00000000       0x50 CMakeFiles/AHT20.dir/C_/VSARM/sdk/pico/pico-sdk/lib/lwip/src/core/def.c.obj
 .debug_rnglists
                0x00000000       0x50 CMakeFiles/AHT20.dir/C_/VSARM/sdk/pico/pico-sdk/lib/lwip/src/core/def.c.obj
 .debug_line    0x00000000      0x4bf CMakeFiles/AHT20.dir/C_/VSARM/sdk/pico/pico-sdk/lib/lwip/src/core/def.c.obj
 .debug_str     0x00000000      0x290 CMakeFiles/AHT20.dir/C_/VSARM/sdk/pico/pico-sdk/lib/lwip/src/core/def.c.obj
 .comment       0x00000000       0x46 CMakeFiles/AHT20.dir/C_/VSARM/sdk/pico/pico-sdk/lib/lwip/src/core/def.c.obj
 .debug_frame   0x00000000       0xd8 CMakeFiles/AHT20.dir/C_/VSARM/sdk/pico/pico-sdk/lib/lwip/src/core/def.c.obj
 .ARM.attributes
                0x00000000       0x2c CMakeFiles/AHT20.dir/C_/VSARM/sdk/pico/pico-sdk/lib/lwip/src/core/def.c.obj
 .text          0x00000000        0x0 CMakeFiles/AHT20.dir/C_/VSARM/sdk/pico/pico-sdk/lib/lwip/src/core/dns.c.obj
 .data          0x00000000        0x0 CMakeFiles/AHT20.dir/C_/VSARM/sdk/pico/pico-sdk/lib/lwip/src/core/dns.c.obj
 .bss           0x00000000        0x0 CMakeFiles/AHT20.dir/C_/VSARM/sdk/pico/pico-sdk/lib/lwip/src/core/dns.c.obj
 .text.dns_backupserver_available
                0x00000000       0x28 CMakeFiles/AHT20.dir/C_/VSARM/sdk/pico/pico-sdk/lib/lwip/src/core/dns.c.obj
 .text.dns_create_txid
                0x00000000       0x3c CMakeFiles/AHT20.dir/C_/VSARM/sdk/pico/pico-sdk/lib/lwip/src/core/dns.c.obj
 .text.dns_call_found
                0x00000000       0xf4 CMakeFiles/AHT20.dir/C_/VSARM/sdk/pico/pico-sdk/lib/lwip/src/core/dns.c.obj
 .text.dns_correct_response
                0x00000000       0x64 CMakeFiles/AHT20.dir/C_/VSARM/sdk/pico/pico-sdk/lib/lwip/src/core/dns.c.obj
 .rodata.dns_send.str1.4
                0x00000000       0x18 CMakeFiles/AHT20.dir/C_/VSARM/sdk/pico/pico-sdk/lib/lwip/src/core/dns.c.obj
 .text.dns_send
                0x00000000      0x17c CMakeFiles/AHT20.dir/C_/VSARM/sdk/pico/pico-sdk/lib/lwip/src/core/dns.c.obj
 .rodata.dns_check_entry.str1.4
                0x00000000       0x3b CMakeFiles/AHT20.dir/C_/VSARM/sdk/pico/pico-sdk/lib/lwip/src/core/dns.c.obj
 .text.dns_check_entry
                0x00000000      0x11c CMakeFiles/AHT20.dir/C_/VSARM/sdk/pico/pico-sdk/lib/lwip/src/core/dns.c.obj
 .text.dns_check_entries
                0x00000000       0x16 CMakeFiles/AHT20.dir/C_/VSARM/sdk/pico/pico-sdk/lib/lwip/src/core/dns.c.obj
 .text.dns_lookup
                0x00000000       0x78 CMakeFiles/AHT20.dir/C_/VSARM/sdk/pico/pico-sdk/lib/lwip/src/core/dns.c.obj
 .text.dns_alloc_random_port
                0x00000000       0x54 CMakeFiles/AHT20.dir/C_/VSARM/sdk/pico/pico-sdk/lib/lwip/src/core/dns.c.obj
 .text.dns_alloc_pcb
                0x00000000       0x70 CMakeFiles/AHT20.dir/C_/VSARM/sdk/pico/pico-sdk/lib/lwip/src/core/dns.c.obj
 .text.dns_enqueue
                0x00000000      0x188 CMakeFiles/AHT20.dir/C_/VSARM/sdk/pico/pico-sdk/lib/lwip/src/core/dns.c.obj
 .text.dns_compare_name
                0x00000000       0xb4 CMakeFiles/AHT20.dir/C_/VSARM/sdk/pico/pico-sdk/lib/lwip/src/core/dns.c.obj
 .text.dns_skip_name
                0x00000000       0x64 CMakeFiles/AHT20.dir/C_/VSARM/sdk/pico/pico-sdk/lib/lwip/src/core/dns.c.obj
 .text.dns_recv
                0x00000000      0x220 CMakeFiles/AHT20.dir/C_/VSARM/sdk/pico/pico-sdk/lib/lwip/src/core/dns.c.obj
 .text.dns_init
                0x00000000        0x2 CMakeFiles/AHT20.dir/C_/VSARM/sdk/pico/pico-sdk/lib/lwip/src/core/dns.c.obj
 .text.dns_setserver
                0x00000000       0x28 CMakeFiles/AHT20.dir/C_/VSARM/sdk/pico/pico-sdk/lib/lwip/src/core/dns.c.obj
 .text.dns_getserver
                0x00000000       0x18 CMakeFiles/AHT20.dir/C_/VSARM/sdk/pico/pico-sdk/lib/lwip/src/core/dns.c.obj
 .text.dns_tmr  0x00000000        0x8 CMakeFiles/AHT20.dir/C_/VSARM/sdk/pico/pico-sdk/lib/lwip/src/core/dns.c.obj
 .text.dns_gethostbyname_addrtype
                0x00000000       0x84 CMakeFiles/AHT20.dir/C_/VSARM/sdk/pico/pico-sdk/lib/lwip/src/core/dns.c.obj
 .text.dns_gethostbyname
                0x00000000       0x10 CMakeFiles/AHT20.dir/C_/VSARM/sdk/pico/pico-sdk/lib/lwip/src/core/dns.c.obj
 .rodata.dns_mquery_v4group
                0x00000000        0x4 CMakeFiles/AHT20.dir/C_/VSARM/sdk/pico/pico-sdk/lib/lwip/src/core/dns.c.obj
 .bss.dns_servers
                0x00000000        0x8 CMakeFiles/AHT20.dir/C_/VSARM/sdk/pico/pico-sdk/lib/lwip/src/core/dns.c.obj
 .bss.dns_requests
                0x00000000       0x30 CMakeFiles/AHT20.dir/C_/VSARM/sdk/pico/pico-sdk/lib/lwip/src/core/dns.c.obj
 .bss.dns_table
                0x00000000      0x440 CMakeFiles/AHT20.dir/C_/VSARM/sdk/pico/pico-sdk/lib/lwip/src/core/dns.c.obj
 .bss.dns_seqno
                0x00000000        0x1 CMakeFiles/AHT20.dir/C_/VSARM/sdk/pico/pico-sdk/lib/lwip/src/core/dns.c.obj
 .bss.dns_last_pcb_idx
                0x00000000        0x1 CMakeFiles/AHT20.dir/C_/VSARM/sdk/pico/pico-sdk/lib/lwip/src/core/dns.c.obj
 .bss.dns_pcbs  0x00000000       0x10 CMakeFiles/AHT20.dir/C_/VSARM/sdk/pico/pico-sdk/lib/lwip/src/core/dns.c.obj
 .debug_info    0x00000000     0x189d CMakeFiles/AHT20.dir/C_/VSARM/sdk/pico/pico-sdk/lib/lwip/src/core/dns.c.obj
 .debug_abbrev  0x00000000      0x379 CMakeFiles/AHT20.dir/C_/VSARM/sdk/pico/pico-sdk/lib/lwip/src/core/dns.c.obj
 .debug_loclists
                0x00000000      0xd39 CMakeFiles/AHT20.dir/C_/VSARM/sdk/pico/pico-sdk/lib/lwip/src/core/dns.c.obj
 .debug_aranges
                0x00000000       0xb8 CMakeFiles/AHT20.dir/C_/VSARM/sdk/pico/pico-sdk/lib/lwip/src/core/dns.c.obj
 .debug_rnglists
                0x00000000       0xd7 CMakeFiles/AHT20.dir/C_/VSARM/sdk/pico/pico-sdk/lib/lwip/src/core/dns.c.obj
 .debug_line    0x00000000     0x1175 CMakeFiles/AHT20.dir/C_/VSARM/sdk/pico/pico-sdk/lib/lwip/src/core/dns.c.obj
 .debug_str     0x00000000      0x9cb CMakeFiles/AHT20.dir/C_/VSARM/sdk/pico/pico-sdk/lib/lwip/src/core/dns.c.obj
 .comment       0x00000000       0x46 CMakeFiles/AHT20.dir/C_/VSARM/sdk/pico/pico-sdk/lib/lwip/src/core/dns.c.obj
 .debug_frame   0x00000000      0x23c CMakeFiles/AHT20.dir/C_/VSARM/sdk/pico/pico-sdk/lib/lwip/src/core/dns.c.obj
 .ARM.attributes
                0x00000000       0x2c CMakeFiles/AHT20.dir/C_/VSARM/sdk/pico/pico-sdk/lib/lwip/src/core/dns.c.obj
 .text          0x00000000        0x0 CMakeFiles/AHT20.dir/C_/VSARM/sdk/pico/pico-sdk/lib/lwip/src/core/inet_chksum.c.obj
 .data          0x00000000        0x0 CMakeFiles/AHT20.dir/C_/VSARM/sdk/pico/pico-sdk/lib/lwip/src/core/inet_chksum.c.obj
 .bss           0x00000000        0x0 CMakeFiles/AHT20.dir/C_/VSARM/sdk/pico/pico-sdk/lib/lwip/src/core/inet_chksum.c.obj
 .text.lwip_standard_chksum
                0x00000000       0xa0 CMakeFiles/AHT20.dir/C_/VSARM/sdk/pico/pico-sdk/lib/lwip/src/core/inet_chksum.c.obj
 .text.inet_cksum_pseudo_base
                0x00000000       0x82 CMakeFiles/AHT20.dir/C_/VSARM/sdk/pico/pico-sdk/lib/lwip/src/core/inet_chksum.c.obj
 .rodata.inet_cksum_pseudo_partial_base.str1.4
                0x00000000        0xa CMakeFiles/AHT20.dir/C_/VSARM/sdk/pico/pico-sdk/lib/lwip/src/core/inet_chksum.c.obj
 .text.inet_cksum_pseudo_partial_base
                0x00000000       0xc8 CMakeFiles/AHT20.dir/C_/VSARM/sdk/pico/pico-sdk/lib/lwip/src/core/inet_chksum.c.obj
 .text.inet_chksum_pseudo
                0x00000000       0x30 CMakeFiles/AHT20.dir/C_/VSARM/sdk/pico/pico-sdk/lib/lwip/src/core/inet_chksum.c.obj
 .text.ip_chksum_pseudo
                0x00000000       0x10 CMakeFiles/AHT20.dir/C_/VSARM/sdk/pico/pico-sdk/lib/lwip/src/core/inet_chksum.c.obj
 .text.inet_chksum_pseudo_partial
                0x00000000       0x38 CMakeFiles/AHT20.dir/C_/VSARM/sdk/pico/pico-sdk/lib/lwip/src/core/inet_chksum.c.obj
 .text.ip_chksum_pseudo_partial
                0x00000000       0x14 CMakeFiles/AHT20.dir/C_/VSARM/sdk/pico/pico-sdk/lib/lwip/src/core/inet_chksum.c.obj
 .text.inet_chksum
                0x00000000        0xc CMakeFiles/AHT20.dir/C_/VSARM/sdk/pico/pico-sdk/lib/lwip/src/core/inet_chksum.c.obj
 .text.inet_chksum_pbuf
                0x00000000       0x52 CMakeFiles/AHT20.dir/C_/VSARM/sdk/pico/pico-sdk/lib/lwip/src/core/inet_chksum.c.obj
 .debug_info    0x00000000      0x84c CMakeFiles/AHT20.dir/C_/VSARM/sdk/pico/pico-sdk/lib/lwip/src/core/inet_chksum.c.obj
 .debug_abbrev  0x00000000      0x211 CMakeFiles/AHT20.dir/C_/VSARM/sdk/pico/pico-sdk/lib/lwip/src/core/inet_chksum.c.obj
 .debug_loclists
                0x00000000      0x6c5 CMakeFiles/AHT20.dir/C_/VSARM/sdk/pico/pico-sdk/lib/lwip/src/core/inet_chksum.c.obj
 .debug_aranges
                0x00000000       0x60 CMakeFiles/AHT20.dir/C_/VSARM/sdk/pico/pico-sdk/lib/lwip/src/core/inet_chksum.c.obj
 .debug_rnglists
                0x00000000       0x46 CMakeFiles/AHT20.dir/C_/VSARM/sdk/pico/pico-sdk/lib/lwip/src/core/inet_chksum.c.obj
 .debug_line    0x00000000      0x6f1 CMakeFiles/AHT20.dir/C_/VSARM/sdk/pico/pico-sdk/lib/lwip/src/core/inet_chksum.c.obj
 .debug_str     0x00000000      0x368 CMakeFiles/AHT20.dir/C_/VSARM/sdk/pico/pico-sdk/lib/lwip/src/core/inet_chksum.c.obj
 .comment       0x00000000       0x46 CMakeFiles/AHT20.dir/C_/VSARM/sdk/pico/pico-sdk/lib/lwip/src/core/inet_chksum.c.obj
 .debug_frame   0x00000000      0x12c CMakeFiles/AHT20.dir/C_/VSARM/sdk/pico/pico-sdk/lib/lwip/src/core/inet_chksum.c.obj
 .ARM.attributes
                0x00000000       0x2c CMakeFiles/AHT20.dir/C_/VSARM/sdk/pico/pico-sdk/lib/lwip/src/core/inet_chksum.c.obj
 .text          0x00000000        0x0 CMakeFiles/AHT20.dir/C_/VSARM/sdk/pico/pico-sdk/lib/lwip/src/core/ip.c.obj
 .data          0x00000000        0x0 CMakeFiles/AHT20.dir/C_/VSARM/sdk/pico/pico-sdk/lib/lwip/src/core/ip.c.obj
 .bss           0x00000000        0x0 CMakeFiles/AHT20.dir/C_/VSARM/sdk/pico/pico-sdk/lib/lwip/src/core/ip.c.obj
 .bss.ip_data   0x00000000       0x18 CMakeFiles/AHT20.dir/C_/VSARM/sdk/pico/pico-sdk/lib/lwip/src/core/ip.c.obj
 .debug_info    0x00000000      0x52d CMakeFiles/AHT20.dir/C_/VSARM/sdk/pico/pico-sdk/lib/lwip/src/core/ip.c.obj
 .debug_abbrev  0x00000000      0x145 CMakeFiles/AHT20.dir/C_/VSARM/sdk/pico/pico-sdk/lib/lwip/src/core/ip.c.obj
 .debug_aranges
                0x00000000       0x18 CMakeFiles/AHT20.dir/C_/VSARM/sdk/pico/pico-sdk/lib/lwip/src/core/ip.c.obj
 .debug_line    0x00000000      0x1b0 CMakeFiles/AHT20.dir/C_/VSARM/sdk/pico/pico-sdk/lib/lwip/src/core/ip.c.obj
 .debug_str     0x00000000      0x4d3 CMakeFiles/AHT20.dir/C_/VSARM/sdk/pico/pico-sdk/lib/lwip/src/core/ip.c.obj
 .comment       0x00000000       0x46 CMakeFiles/AHT20.dir/C_/VSARM/sdk/pico/pico-sdk/lib/lwip/src/core/ip.c.obj
 .ARM.attributes
                0x00000000       0x2c CMakeFiles/AHT20.dir/C_/VSARM/sdk/pico/pico-sdk/lib/lwip/src/core/ip.c.obj
 .text          0x00000000        0x0 CMakeFiles/AHT20.dir/C_/VSARM/sdk/pico/pico-sdk/lib/lwip/src/core/mem.c.obj
 .data          0x00000000        0x0 CMakeFiles/AHT20.dir/C_/VSARM/sdk/pico/pico-sdk/lib/lwip/src/core/mem.c.obj
 .bss           0x00000000        0x0 CMakeFiles/AHT20.dir/C_/VSARM/sdk/pico/pico-sdk/lib/lwip/src/core/mem.c.obj
 .text.ptr_to_mem
                0x00000000        0xc CMakeFiles/AHT20.dir/C_/VSARM/sdk/pico/pico-sdk/lib/lwip/src/core/mem.c.obj
 .text.mem_to_ptr
                0x00000000       0x10 CMakeFiles/AHT20.dir/C_/VSARM/sdk/pico/pico-sdk/lib/lwip/src/core/mem.c.obj
 .text.mem_link_valid
                0x00000000       0x5c CMakeFiles/AHT20.dir/C_/VSARM/sdk/pico/pico-sdk/lib/lwip/src/core/mem.c.obj
 .rodata.plug_holes.str1.4
                0x00000000       0x7a CMakeFiles/AHT20.dir/C_/VSARM/sdk/pico/pico-sdk/lib/lwip/src/core/mem.c.obj
 .text.plug_holes
                0x00000000       0xd0 CMakeFiles/AHT20.dir/C_/VSARM/sdk/pico/pico-sdk/lib/lwip/src/core/mem.c.obj
 .text.mem_init
                0x00000000       0x40 CMakeFiles/AHT20.dir/C_/VSARM/sdk/pico/pico-sdk/lib/lwip/src/core/mem.c.obj
 .rodata.mem_free.str1.4
                0x00000000       0x9a CMakeFiles/AHT20.dir/C_/VSARM/sdk/pico/pico-sdk/lib/lwip/src/core/mem.c.obj
 .text.mem_free
                0x00000000       0x84 CMakeFiles/AHT20.dir/C_/VSARM/sdk/pico/pico-sdk/lib/lwip/src/core/mem.c.obj
 .rodata.mem_trim.str1.4
                0x00000000       0x49 CMakeFiles/AHT20.dir/C_/VSARM/sdk/pico/pico-sdk/lib/lwip/src/core/mem.c.obj
 .text.mem_trim
                0x00000000      0x134 CMakeFiles/AHT20.dir/C_/VSARM/sdk/pico/pico-sdk/lib/lwip/src/core/mem.c.obj
 .rodata.mem_malloc.str1.4
                0x00000000       0x7b CMakeFiles/AHT20.dir/C_/VSARM/sdk/pico/pico-sdk/lib/lwip/src/core/mem.c.obj
 .text.mem_malloc
                0x00000000      0x134 CMakeFiles/AHT20.dir/C_/VSARM/sdk/pico/pico-sdk/lib/lwip/src/core/mem.c.obj
 .text.mem_calloc
                0x00000000       0x28 CMakeFiles/AHT20.dir/C_/VSARM/sdk/pico/pico-sdk/lib/lwip/src/core/mem.c.obj
 .bss.lfree     0x00000000        0x4 CMakeFiles/AHT20.dir/C_/VSARM/sdk/pico/pico-sdk/lib/lwip/src/core/mem.c.obj
 .bss.ram_end   0x00000000        0x4 CMakeFiles/AHT20.dir/C_/VSARM/sdk/pico/pico-sdk/lib/lwip/src/core/mem.c.obj
 .bss.ram       0x00000000        0x4 CMakeFiles/AHT20.dir/C_/VSARM/sdk/pico/pico-sdk/lib/lwip/src/core/mem.c.obj
 .bss.ram_heap  0x00000000      0xfb3 CMakeFiles/AHT20.dir/C_/VSARM/sdk/pico/pico-sdk/lib/lwip/src/core/mem.c.obj
 .debug_info    0x00000000      0x9c3 CMakeFiles/AHT20.dir/C_/VSARM/sdk/pico/pico-sdk/lib/lwip/src/core/mem.c.obj
 .debug_abbrev  0x00000000      0x266 CMakeFiles/AHT20.dir/C_/VSARM/sdk/pico/pico-sdk/lib/lwip/src/core/mem.c.obj
 .debug_loclists
                0x00000000      0x459 CMakeFiles/AHT20.dir/C_/VSARM/sdk/pico/pico-sdk/lib/lwip/src/core/mem.c.obj
 .debug_aranges
                0x00000000       0x60 CMakeFiles/AHT20.dir/C_/VSARM/sdk/pico/pico-sdk/lib/lwip/src/core/mem.c.obj
 .debug_rnglists
                0x00000000       0x5f CMakeFiles/AHT20.dir/C_/VSARM/sdk/pico/pico-sdk/lib/lwip/src/core/mem.c.obj
 .debug_line    0x00000000      0xa57 CMakeFiles/AHT20.dir/C_/VSARM/sdk/pico/pico-sdk/lib/lwip/src/core/mem.c.obj
 .debug_str     0x00000000      0x453 CMakeFiles/AHT20.dir/C_/VSARM/sdk/pico/pico-sdk/lib/lwip/src/core/mem.c.obj
 .comment       0x00000000       0x46 CMakeFiles/AHT20.dir/C_/VSARM/sdk/pico/pico-sdk/lib/lwip/src/core/mem.c.obj
 .debug_frame   0x00000000      0x10c CMakeFiles/AHT20.dir/C_/VSARM/sdk/pico/pico-sdk/lib/lwip/src/core/mem.c.obj
 .ARM.attributes
                0x00000000       0x2c CMakeFiles/AHT20.dir/C_/VSARM/sdk/pico/pico-sdk/lib/lwip/src/core/mem.c.obj
 .text          0x00000000        0x0 CMakeFiles/AHT20.dir/C_/VSARM/sdk/pico/pico-sdk/lib/lwip/src/core/memp.c.obj
 .data          0x00000000        0x0 CMakeFiles/AHT20.dir/C_/VSARM/sdk/pico/pico-sdk/lib/lwip/src/core/memp.c.obj
 .bss           0x00000000        0x0 CMakeFiles/AHT20.dir/C_/VSARM/sdk/pico/pico-sdk/lib/lwip/src/core/memp.c.obj
 .rodata.do_memp_malloc_pool.str1.4
                0x00000000       0x23 CMakeFiles/AHT20.dir/C_/VSARM/sdk/pico/pico-sdk/lib/lwip/src/core/memp.c.obj
 .text.do_memp_malloc_pool
                0x00000000       0x30 CMakeFiles/AHT20.dir/C_/VSARM/sdk/pico/pico-sdk/lib/lwip/src/core/memp.c.obj
 .rodata.do_memp_free_pool.str1.4
                0x00000000       0x20 CMakeFiles/AHT20.dir/C_/VSARM/sdk/pico/pico-sdk/lib/lwip/src/core/memp.c.obj
 .text.do_memp_free_pool
                0x00000000       0x28 CMakeFiles/AHT20.dir/C_/VSARM/sdk/pico/pico-sdk/lib/lwip/src/core/memp.c.obj
 .text.memp_init_pool
                0x00000000       0x2a CMakeFiles/AHT20.dir/C_/VSARM/sdk/pico/pico-sdk/lib/lwip/src/core/memp.c.obj
 .text.memp_init
                0x00000000       0x20 CMakeFiles/AHT20.dir/C_/VSARM/sdk/pico/pico-sdk/lib/lwip/src/core/memp.c.obj
 .rodata.memp_malloc_pool.str1.4
                0x00000000       0x12 CMakeFiles/AHT20.dir/C_/VSARM/sdk/pico/pico-sdk/lib/lwip/src/core/memp.c.obj
 .text.memp_malloc_pool
                0x00000000       0x18 CMakeFiles/AHT20.dir/C_/VSARM/sdk/pico/pico-sdk/lib/lwip/src/core/memp.c.obj
 .rodata.memp_malloc.str1.4
                0x00000000       0x1d CMakeFiles/AHT20.dir/C_/VSARM/sdk/pico/pico-sdk/lib/lwip/src/core/memp.c.obj
 .text.memp_malloc
                0x00000000       0x24 CMakeFiles/AHT20.dir/C_/VSARM/sdk/pico/pico-sdk/lib/lwip/src/core/memp.c.obj
 .text.memp_free_pool
                0x00000000       0x1c CMakeFiles/AHT20.dir/C_/VSARM/sdk/pico/pico-sdk/lib/lwip/src/core/memp.c.obj
 .rodata.memp_free.str1.4
                0x00000000       0x1b CMakeFiles/AHT20.dir/C_/VSARM/sdk/pico/pico-sdk/lib/lwip/src/core/memp.c.obj
 .text.memp_free
                0x00000000       0x28 CMakeFiles/AHT20.dir/C_/VSARM/sdk/pico/pico-sdk/lib/lwip/src/core/memp.c.obj
 .rodata.memp_pools
                0x00000000       0x24 CMakeFiles/AHT20.dir/C_/VSARM/sdk/pico/pico-sdk/lib/lwip/src/core/memp.c.obj
 .rodata.str1.4
                0x00000000       0x64 CMakeFiles/AHT20.dir/C_/VSARM/sdk/pico/pico-sdk/lib/lwip/src/core/memp.c.obj
 .rodata.memp_PBUF_POOL
                0x00000000       0x10 CMakeFiles/AHT20.dir/C_/VSARM/sdk/pico/pico-sdk/lib/lwip/src/core/memp.c.obj
 .bss.memp_tab_PBUF_POOL
                0x00000000        0x4 CMakeFiles/AHT20.dir/C_/VSARM/sdk/pico/pico-sdk/lib/lwip/src/core/memp.c.obj
 .bss.memp_memory_PBUF_POOL_base
                0x00000000     0x8fa3 CMakeFiles/AHT20.dir/C_/VSARM/sdk/pico/pico-sdk/lib/lwip/src/core/memp.c.obj
 .rodata.memp_PBUF
                0x00000000       0x10 CMakeFiles/AHT20.dir/C_/VSARM/sdk/pico/pico-sdk/lib/lwip/src/core/memp.c.obj
 .bss.memp_tab_PBUF
                0x00000000        0x4 CMakeFiles/AHT20.dir/C_/VSARM/sdk/pico/pico-sdk/lib/lwip/src/core/memp.c.obj
 .bss.memp_memory_PBUF_base
                0x00000000      0x103 CMakeFiles/AHT20.dir/C_/VSARM/sdk/pico/pico-sdk/lib/lwip/src/core/memp.c.obj
 .rodata.memp_SYS_TIMEOUT
                0x00000000       0x10 CMakeFiles/AHT20.dir/C_/VSARM/sdk/pico/pico-sdk/lib/lwip/src/core/memp.c.obj
 .bss.memp_tab_SYS_TIMEOUT
                0x00000000        0x4 CMakeFiles/AHT20.dir/C_/VSARM/sdk/pico/pico-sdk/lib/lwip/src/core/memp.c.obj
 .bss.memp_memory_SYS_TIMEOUT_base
                0x00000000       0x63 CMakeFiles/AHT20.dir/C_/VSARM/sdk/pico/pico-sdk/lib/lwip/src/core/memp.c.obj
 .rodata.memp_REASSDATA
                0x00000000       0x10 CMakeFiles/AHT20.dir/C_/VSARM/sdk/pico/pico-sdk/lib/lwip/src/core/memp.c.obj
 .bss.memp_tab_REASSDATA
                0x00000000        0x4 CMakeFiles/AHT20.dir/C_/VSARM/sdk/pico/pico-sdk/lib/lwip/src/core/memp.c.obj
 .bss.memp_memory_REASSDATA_base
                0x00000000       0xa3 CMakeFiles/AHT20.dir/C_/VSARM/sdk/pico/pico-sdk/lib/lwip/src/core/memp.c.obj
 .rodata.memp_TCP_SEG
                0x00000000       0x10 CMakeFiles/AHT20.dir/C_/VSARM/sdk/pico/pico-sdk/lib/lwip/src/core/memp.c.obj
 .bss.memp_tab_TCP_SEG
                0x00000000        0x4 CMakeFiles/AHT20.dir/C_/VSARM/sdk/pico/pico-sdk/lib/lwip/src/core/memp.c.obj
 .bss.memp_memory_TCP_SEG_base
                0x00000000      0x283 CMakeFiles/AHT20.dir/C_/VSARM/sdk/pico/pico-sdk/lib/lwip/src/core/memp.c.obj
 .rodata.memp_TCP_PCB_LISTEN
                0x00000000       0x10 CMakeFiles/AHT20.dir/C_/VSARM/sdk/pico/pico-sdk/lib/lwip/src/core/memp.c.obj
 .bss.memp_tab_TCP_PCB_LISTEN
                0x00000000        0x4 CMakeFiles/AHT20.dir/C_/VSARM/sdk/pico/pico-sdk/lib/lwip/src/core/memp.c.obj
 .bss.memp_memory_TCP_PCB_LISTEN_base
                0x00000000       0xe3 CMakeFiles/AHT20.dir/C_/VSARM/sdk/pico/pico-sdk/lib/lwip/src/core/memp.c.obj
 .rodata.memp_TCP_PCB
                0x00000000       0x10 CMakeFiles/AHT20.dir/C_/VSARM/sdk/pico/pico-sdk/lib/lwip/src/core/memp.c.obj
 .bss.memp_tab_TCP_PCB
                0x00000000        0x4 CMakeFiles/AHT20.dir/C_/VSARM/sdk/pico/pico-sdk/lib/lwip/src/core/memp.c.obj
 .bss.memp_memory_TCP_PCB_base
                0x00000000      0x337 CMakeFiles/AHT20.dir/C_/VSARM/sdk/pico/pico-sdk/lib/lwip/src/core/memp.c.obj
 .rodata.memp_UDP_PCB
                0x00000000       0x10 CMakeFiles/AHT20.dir/C_/VSARM/sdk/pico/pico-sdk/lib/lwip/src/core/memp.c.obj
 .bss.memp_tab_UDP_PCB
                0x00000000        0x4 CMakeFiles/AHT20.dir/C_/VSARM/sdk/pico/pico-sdk/lib/lwip/src/core/memp.c.obj
 .bss.memp_memory_UDP_PCB_base
                0x00000000       0x83 CMakeFiles/AHT20.dir/C_/VSARM/sdk/pico/pico-sdk/lib/lwip/src/core/memp.c.obj
 .rodata.memp_RAW_PCB
                0x00000000       0x10 CMakeFiles/AHT20.dir/C_/VSARM/sdk/pico/pico-sdk/lib/lwip/src/core/memp.c.obj
 .bss.memp_tab_RAW_PCB
                0x00000000        0x4 CMakeFiles/AHT20.dir/C_/VSARM/sdk/pico/pico-sdk/lib/lwip/src/core/memp.c.obj
 .bss.memp_memory_RAW_PCB_base
                0x00000000       0x73 CMakeFiles/AHT20.dir/C_/VSARM/sdk/pico/pico-sdk/lib/lwip/src/core/memp.c.obj
 .debug_info    0x00000000      0x7f6 CMakeFiles/AHT20.dir/C_/VSARM/sdk/pico/pico-sdk/lib/lwip/src/core/memp.c.obj
 .debug_abbrev  0x00000000      0x2db CMakeFiles/AHT20.dir/C_/VSARM/sdk/pico/pico-sdk/lib/lwip/src/core/memp.c.obj
 .debug_loclists
                0x00000000      0x218 CMakeFiles/AHT20.dir/C_/VSARM/sdk/pico/pico-sdk/lib/lwip/src/core/memp.c.obj
 .debug_aranges
                0x00000000       0x58 CMakeFiles/AHT20.dir/C_/VSARM/sdk/pico/pico-sdk/lib/lwip/src/core/memp.c.obj
 .debug_rnglists
                0x00000000       0x3d CMakeFiles/AHT20.dir/C_/VSARM/sdk/pico/pico-sdk/lib/lwip/src/core/memp.c.obj
 .debug_line    0x00000000      0x5a4 CMakeFiles/AHT20.dir/C_/VSARM/sdk/pico/pico-sdk/lib/lwip/src/core/memp.c.obj
 .debug_str     0x00000000      0x5e2 CMakeFiles/AHT20.dir/C_/VSARM/sdk/pico/pico-sdk/lib/lwip/src/core/memp.c.obj
 .comment       0x00000000       0x46 CMakeFiles/AHT20.dir/C_/VSARM/sdk/pico/pico-sdk/lib/lwip/src/core/memp.c.obj
 .debug_frame   0x00000000       0xcc CMakeFiles/AHT20.dir/C_/VSARM/sdk/pico/pico-sdk/lib/lwip/src/core/memp.c.obj
 .ARM.attributes
                0x00000000       0x2c CMakeFiles/AHT20.dir/C_/VSARM/sdk/pico/pico-sdk/lib/lwip/src/core/memp.c.obj
 .text          0x00000000        0x0 CMakeFiles/AHT20.dir/C_/VSARM/sdk/pico/pico-sdk/lib/lwip/src/core/netif.c.obj
 .data          0x00000000        0x0 CMakeFiles/AHT20.dir/C_/VSARM/sdk/pico/pico-sdk/lib/lwip/src/core/netif.c.obj
 .bss           0x00000000        0x0 CMakeFiles/AHT20.dir/C_/VSARM/sdk/pico/pico-sdk/lib/lwip/src/core/netif.c.obj
 .text.netif_do_set_netmask
                0x00000000       0x12 CMakeFiles/AHT20.dir/C_/VSARM/sdk/pico/pico-sdk/lib/lwip/src/core/netif.c.obj
 .text.netif_do_set_gw
                0x00000000       0x12 CMakeFiles/AHT20.dir/C_/VSARM/sdk/pico/pico-sdk/lib/lwip/src/core/netif.c.obj
 .text.netif_null_output_ip4
                0x00000000        0x6 CMakeFiles/AHT20.dir/C_/VSARM/sdk/pico/pico-sdk/lib/lwip/src/core/netif.c.obj
 .text.netif_do_ip_addr_changed
                0x00000000       0x1c CMakeFiles/AHT20.dir/C_/VSARM/sdk/pico/pico-sdk/lib/lwip/src/core/netif.c.obj
 .rodata.netif_issue_reports.str1.4
                0x00000000       0x23 CMakeFiles/AHT20.dir/C_/VSARM/sdk/pico/pico-sdk/lib/lwip/src/core/netif.c.obj
 .text.netif_issue_reports
                0x00000000       0x34 CMakeFiles/AHT20.dir/C_/VSARM/sdk/pico/pico-sdk/lib/lwip/src/core/netif.c.obj
 .rodata.netif_do_set_ipaddr.str1.4
                0x00000000       0x10 CMakeFiles/AHT20.dir/C_/VSARM/sdk/pico/pico-sdk/lib/lwip/src/core/netif.c.obj
 .text.netif_do_set_ipaddr
                0x00000000       0x54 CMakeFiles/AHT20.dir/C_/VSARM/sdk/pico/pico-sdk/lib/lwip/src/core/netif.c.obj
 .text.netif_init
                0x00000000        0x2 CMakeFiles/AHT20.dir/C_/VSARM/sdk/pico/pico-sdk/lib/lwip/src/core/netif.c.obj
 .rodata.netif_input.str1.4
                0x00000000       0x37 CMakeFiles/AHT20.dir/C_/VSARM/sdk/pico/pico-sdk/lib/lwip/src/core/netif.c.obj
 .text.netif_input
                0x00000000       0x34 CMakeFiles/AHT20.dir/C_/VSARM/sdk/pico/pico-sdk/lib/lwip/src/core/netif.c.obj
 .rodata.netif_set_ipaddr.str1.4
                0x00000000       0x20 CMakeFiles/AHT20.dir/C_/VSARM/sdk/pico/pico-sdk/lib/lwip/src/core/netif.c.obj
 .text.netif_set_ipaddr
                0x00000000       0x2c CMakeFiles/AHT20.dir/C_/VSARM/sdk/pico/pico-sdk/lib/lwip/src/core/netif.c.obj
 .rodata.netif_set_netmask.str1.4
                0x00000000       0x21 CMakeFiles/AHT20.dir/C_/VSARM/sdk/pico/pico-sdk/lib/lwip/src/core/netif.c.obj
 .text.netif_set_netmask
                0x00000000       0x28 CMakeFiles/AHT20.dir/C_/VSARM/sdk/pico/pico-sdk/lib/lwip/src/core/netif.c.obj
 .rodata.netif_set_gw.str1.4
                0x00000000       0x1c CMakeFiles/AHT20.dir/C_/VSARM/sdk/pico/pico-sdk/lib/lwip/src/core/netif.c.obj
 .text.netif_set_gw
                0x00000000       0x28 CMakeFiles/AHT20.dir/C_/VSARM/sdk/pico/pico-sdk/lib/lwip/src/core/netif.c.obj
 .text.netif_set_addr
                0x00000000       0x78 CMakeFiles/AHT20.dir/C_/VSARM/sdk/pico/pico-sdk/lib/lwip/src/core/netif.c.obj
 .rodata.netif_add.str1.4
                0x00000000       0x82 CMakeFiles/AHT20.dir/C_/VSARM/sdk/pico/pico-sdk/lib/lwip/src/core/netif.c.obj
 .text.netif_add
                0x00000000      0x124 CMakeFiles/AHT20.dir/C_/VSARM/sdk/pico/pico-sdk/lib/lwip/src/core/netif.c.obj
 .text.netif_add_noaddr
                0x00000000       0x18 CMakeFiles/AHT20.dir/C_/VSARM/sdk/pico/pico-sdk/lib/lwip/src/core/netif.c.obj
 .text.netif_set_default
                0x00000000        0xc CMakeFiles/AHT20.dir/C_/VSARM/sdk/pico/pico-sdk/lib/lwip/src/core/netif.c.obj
 .rodata.netif_set_up.str1.4
                0x00000000       0x1c CMakeFiles/AHT20.dir/C_/VSARM/sdk/pico/pico-sdk/lib/lwip/src/core/netif.c.obj
 .text.netif_set_up
                0x00000000       0x34 CMakeFiles/AHT20.dir/C_/VSARM/sdk/pico/pico-sdk/lib/lwip/src/core/netif.c.obj
 .rodata.netif_set_down.str1.4
                0x00000000       0x1e CMakeFiles/AHT20.dir/C_/VSARM/sdk/pico/pico-sdk/lib/lwip/src/core/netif.c.obj
 .text.netif_set_down
                0x00000000       0x3c CMakeFiles/AHT20.dir/C_/VSARM/sdk/pico/pico-sdk/lib/lwip/src/core/netif.c.obj
 .text.netif_remove
                0x00000000       0x64 CMakeFiles/AHT20.dir/C_/VSARM/sdk/pico/pico-sdk/lib/lwip/src/core/netif.c.obj
 .text.netif_set_status_callback
                0x00000000        0x8 CMakeFiles/AHT20.dir/C_/VSARM/sdk/pico/pico-sdk/lib/lwip/src/core/netif.c.obj
 .rodata.netif_set_link_up.str1.4
                0x00000000       0x21 CMakeFiles/AHT20.dir/C_/VSARM/sdk/pico/pico-sdk/lib/lwip/src/core/netif.c.obj
 .text.netif_set_link_up
                0x00000000       0x3c CMakeFiles/AHT20.dir/C_/VSARM/sdk/pico/pico-sdk/lib/lwip/src/core/netif.c.obj
 .rodata.netif_set_link_down.str1.4
                0x00000000       0x23 CMakeFiles/AHT20.dir/C_/VSARM/sdk/pico/pico-sdk/lib/lwip/src/core/netif.c.obj
 .text.netif_set_link_down
                0x00000000       0x2c CMakeFiles/AHT20.dir/C_/VSARM/sdk/pico/pico-sdk/lib/lwip/src/core/netif.c.obj
 .text.netif_set_link_callback
                0x00000000        0x8 CMakeFiles/AHT20.dir/C_/VSARM/sdk/pico/pico-sdk/lib/lwip/src/core/netif.c.obj
 .text.netif_get_by_index
                0x00000000       0x24 CMakeFiles/AHT20.dir/C_/VSARM/sdk/pico/pico-sdk/lib/lwip/src/core/netif.c.obj
 .text.netif_index_to_name
                0x00000000       0x28 CMakeFiles/AHT20.dir/C_/VSARM/sdk/pico/pico-sdk/lib/lwip/src/core/netif.c.obj
 .text.netif_find
                0x00000000       0x4c CMakeFiles/AHT20.dir/C_/VSARM/sdk/pico/pico-sdk/lib/lwip/src/core/netif.c.obj
 .text.netif_name_to_index
                0x00000000       0x18 CMakeFiles/AHT20.dir/C_/VSARM/sdk/pico/pico-sdk/lib/lwip/src/core/netif.c.obj
 .bss.netif_num
                0x00000000        0x1 CMakeFiles/AHT20.dir/C_/VSARM/sdk/pico/pico-sdk/lib/lwip/src/core/netif.c.obj
 .bss.netif_default
                0x00000000        0x4 CMakeFiles/AHT20.dir/C_/VSARM/sdk/pico/pico-sdk/lib/lwip/src/core/netif.c.obj
 .bss.netif_list
                0x00000000        0x4 CMakeFiles/AHT20.dir/C_/VSARM/sdk/pico/pico-sdk/lib/lwip/src/core/netif.c.obj
 .debug_info    0x00000000     0x124e CMakeFiles/AHT20.dir/C_/VSARM/sdk/pico/pico-sdk/lib/lwip/src/core/netif.c.obj
 .debug_abbrev  0x00000000      0x3b1 CMakeFiles/AHT20.dir/C_/VSARM/sdk/pico/pico-sdk/lib/lwip/src/core/netif.c.obj
 .debug_loclists
                0x00000000      0x832 CMakeFiles/AHT20.dir/C_/VSARM/sdk/pico/pico-sdk/lib/lwip/src/core/netif.c.obj
 .debug_aranges
                0x00000000       0xe8 CMakeFiles/AHT20.dir/C_/VSARM/sdk/pico/pico-sdk/lib/lwip/src/core/netif.c.obj
 .debug_rnglists
                0x00000000       0xb6 CMakeFiles/AHT20.dir/C_/VSARM/sdk/pico/pico-sdk/lib/lwip/src/core/netif.c.obj
 .debug_line    0x00000000      0xe04 CMakeFiles/AHT20.dir/C_/VSARM/sdk/pico/pico-sdk/lib/lwip/src/core/netif.c.obj
 .debug_str     0x00000000      0x7f5 CMakeFiles/AHT20.dir/C_/VSARM/sdk/pico/pico-sdk/lib/lwip/src/core/netif.c.obj
 .comment       0x00000000       0x46 CMakeFiles/AHT20.dir/C_/VSARM/sdk/pico/pico-sdk/lib/lwip/src/core/netif.c.obj
 .debug_frame   0x00000000      0x268 CMakeFiles/AHT20.dir/C_/VSARM/sdk/pico/pico-sdk/lib/lwip/src/core/netif.c.obj
 .ARM.attributes
                0x00000000       0x2c CMakeFiles/AHT20.dir/C_/VSARM/sdk/pico/pico-sdk/lib/lwip/src/core/netif.c.obj
 .text          0x00000000        0x0 CMakeFiles/AHT20.dir/C_/VSARM/sdk/pico/pico-sdk/lib/lwip/src/core/pbuf.c.obj
 .data          0x00000000        0x0 CMakeFiles/AHT20.dir/C_/VSARM/sdk/pico/pico-sdk/lib/lwip/src/core/pbuf.c.obj
 .bss           0x00000000        0x0 CMakeFiles/AHT20.dir/C_/VSARM/sdk/pico/pico-sdk/lib/lwip/src/core/pbuf.c.obj
 .text.pbuf_init_alloced_pbuf
                0x00000000       0x20 CMakeFiles/AHT20.dir/C_/VSARM/sdk/pico/pico-sdk/lib/lwip/src/core/pbuf.c.obj
 .text.pbuf_skip_const
                0x00000000       0x1a CMakeFiles/AHT20.dir/C_/VSARM/sdk/pico/pico-sdk/lib/lwip/src/core/pbuf.c.obj
 .text.pbuf_pool_is_empty
                0x00000000       0x18 CMakeFiles/AHT20.dir/C_/VSARM/sdk/pico/pico-sdk/lib/lwip/src/core/pbuf.c.obj
 .rodata.pbuf_add_header_impl.str1.4
                0x00000000        0xa CMakeFiles/AHT20.dir/C_/VSARM/sdk/pico/pico-sdk/lib/lwip/src/core/pbuf.c.obj
 .text.pbuf_add_header_impl
                0x00000000       0x68 CMakeFiles/AHT20.dir/C_/VSARM/sdk/pico/pico-sdk/lib/lwip/src/core/pbuf.c.obj
 .text.pbuf_free_ooseq
                0x00000000       0x30 CMakeFiles/AHT20.dir/C_/VSARM/sdk/pico/pico-sdk/lib/lwip/src/core/pbuf.c.obj
 .rodata.pbuf_alloc_reference.str1.4
                0x00000000       0x12 CMakeFiles/AHT20.dir/C_/VSARM/sdk/pico/pico-sdk/lib/lwip/src/core/pbuf.c.obj
 .text.pbuf_alloc_reference
                0x00000000       0x3c CMakeFiles/AHT20.dir/C_/VSARM/sdk/pico/pico-sdk/lib/lwip/src/core/pbuf.c.obj
 .text.pbuf_add_header
                0x00000000        0xa CMakeFiles/AHT20.dir/C_/VSARM/sdk/pico/pico-sdk/lib/lwip/src/core/pbuf.c.obj
 .text.pbuf_add_header_force
                0x00000000        0xa CMakeFiles/AHT20.dir/C_/VSARM/sdk/pico/pico-sdk/lib/lwip/src/core/pbuf.c.obj
 .rodata.pbuf_remove_header.str1.4
                0x00000000       0x1e CMakeFiles/AHT20.dir/C_/VSARM/sdk/pico/pico-sdk/lib/lwip/src/core/pbuf.c.obj
 .text.pbuf_remove_header
                0x00000000       0x50 CMakeFiles/AHT20.dir/C_/VSARM/sdk/pico/pico-sdk/lib/lwip/src/core/pbuf.c.obj
 .text.pbuf_header_impl
                0x00000000       0x14 CMakeFiles/AHT20.dir/C_/VSARM/sdk/pico/pico-sdk/lib/lwip/src/core/pbuf.c.obj
 .text.pbuf_header
                0x00000000        0xa CMakeFiles/AHT20.dir/C_/VSARM/sdk/pico/pico-sdk/lib/lwip/src/core/pbuf.c.obj
 .text.pbuf_header_force
                0x00000000        0xa CMakeFiles/AHT20.dir/C_/VSARM/sdk/pico/pico-sdk/lib/lwip/src/core/pbuf.c.obj
 .rodata.pbuf_free.str1.4
                0x00000000       0x2a CMakeFiles/AHT20.dir/C_/VSARM/sdk/pico/pico-sdk/lib/lwip/src/core/pbuf.c.obj
 .text.pbuf_free
                0x00000000       0x7c CMakeFiles/AHT20.dir/C_/VSARM/sdk/pico/pico-sdk/lib/lwip/src/core/pbuf.c.obj
 .rodata.pbuf_alloc.str1.4
                0x00000000       0xab CMakeFiles/AHT20.dir/C_/VSARM/sdk/pico/pico-sdk/lib/lwip/src/core/pbuf.c.obj
 .text.pbuf_alloc
                0x00000000      0x144 CMakeFiles/AHT20.dir/C_/VSARM/sdk/pico/pico-sdk/lib/lwip/src/core/pbuf.c.obj
 .rodata.pbuf_realloc.str1.4
                0x00000000       0x65 CMakeFiles/AHT20.dir/C_/VSARM/sdk/pico/pico-sdk/lib/lwip/src/core/pbuf.c.obj
 .text.pbuf_realloc
                0x00000000       0x84 CMakeFiles/AHT20.dir/C_/VSARM/sdk/pico/pico-sdk/lib/lwip/src/core/pbuf.c.obj
 .text.pbuf_free_header
                0x00000000       0x34 CMakeFiles/AHT20.dir/C_/VSARM/sdk/pico/pico-sdk/lib/lwip/src/core/pbuf.c.obj
 .text.pbuf_clen
                0x00000000       0x12 CMakeFiles/AHT20.dir/C_/VSARM/sdk/pico/pico-sdk/lib/lwip/src/core/pbuf.c.obj
 .rodata.pbuf_ref.str1.4
                0x00000000       0x12 CMakeFiles/AHT20.dir/C_/VSARM/sdk/pico/pico-sdk/lib/lwip/src/core/pbuf.c.obj
 .text.pbuf_ref
                0x00000000       0x28 CMakeFiles/AHT20.dir/C_/VSARM/sdk/pico/pico-sdk/lib/lwip/src/core/pbuf.c.obj
 .rodata.pbuf_cat.str1.4
                0x00000000       0x65 CMakeFiles/AHT20.dir/C_/VSARM/sdk/pico/pico-sdk/lib/lwip/src/core/pbuf.c.obj
 .text.pbuf_cat
                0x00000000       0x44 CMakeFiles/AHT20.dir/C_/VSARM/sdk/pico/pico-sdk/lib/lwip/src/core/pbuf.c.obj
 .text.pbuf_chain
                0x00000000       0x10 CMakeFiles/AHT20.dir/C_/VSARM/sdk/pico/pico-sdk/lib/lwip/src/core/pbuf.c.obj
 .rodata.pbuf_dechain.str1.4
                0x00000000       0x39 CMakeFiles/AHT20.dir/C_/VSARM/sdk/pico/pico-sdk/lib/lwip/src/core/pbuf.c.obj
 .text.pbuf_dechain
                0x00000000       0x54 CMakeFiles/AHT20.dir/C_/VSARM/sdk/pico/pico-sdk/lib/lwip/src/core/pbuf.c.obj
 .rodata.pbuf_copy_partial_pbuf.str1.4
                0x00000000       0xef CMakeFiles/AHT20.dir/C_/VSARM/sdk/pico/pico-sdk/lib/lwip/src/core/pbuf.c.obj
 .text.pbuf_copy_partial_pbuf
                0x00000000      0x13c CMakeFiles/AHT20.dir/C_/VSARM/sdk/pico/pico-sdk/lib/lwip/src/core/pbuf.c.obj
 .rodata.pbuf_copy.str1.4
                0x00000000       0x1a CMakeFiles/AHT20.dir/C_/VSARM/sdk/pico/pico-sdk/lib/lwip/src/core/pbuf.c.obj
 .text.pbuf_copy
                0x00000000       0x20 CMakeFiles/AHT20.dir/C_/VSARM/sdk/pico/pico-sdk/lib/lwip/src/core/pbuf.c.obj
 .rodata.pbuf_copy_partial.str1.4
                0x00000000       0x43 CMakeFiles/AHT20.dir/C_/VSARM/sdk/pico/pico-sdk/lib/lwip/src/core/pbuf.c.obj
 .text.pbuf_copy_partial
                0x00000000       0x88 CMakeFiles/AHT20.dir/C_/VSARM/sdk/pico/pico-sdk/lib/lwip/src/core/pbuf.c.obj
 .rodata.pbuf_get_contiguous.str1.4
                0x00000000       0x49 CMakeFiles/AHT20.dir/C_/VSARM/sdk/pico/pico-sdk/lib/lwip/src/core/pbuf.c.obj
 .text.pbuf_get_contiguous
                0x00000000       0x78 CMakeFiles/AHT20.dir/C_/VSARM/sdk/pico/pico-sdk/lib/lwip/src/core/pbuf.c.obj
 .text.pbuf_skip
                0x00000000        0x8 CMakeFiles/AHT20.dir/C_/VSARM/sdk/pico/pico-sdk/lib/lwip/src/core/pbuf.c.obj
 .rodata.pbuf_take.str1.4
                0x00000000       0x82 CMakeFiles/AHT20.dir/C_/VSARM/sdk/pico/pico-sdk/lib/lwip/src/core/pbuf.c.obj
 .text.pbuf_take
                0x00000000       0x98 CMakeFiles/AHT20.dir/C_/VSARM/sdk/pico/pico-sdk/lib/lwip/src/core/pbuf.c.obj
 .rodata.pbuf_take_at.str1.4
                0x00000000       0x17 CMakeFiles/AHT20.dir/C_/VSARM/sdk/pico/pico-sdk/lib/lwip/src/core/pbuf.c.obj
 .text.pbuf_take_at
                0x00000000       0x70 CMakeFiles/AHT20.dir/C_/VSARM/sdk/pico/pico-sdk/lib/lwip/src/core/pbuf.c.obj
 .rodata.pbuf_clone.str1.4
                0x00000000       0x11 CMakeFiles/AHT20.dir/C_/VSARM/sdk/pico/pico-sdk/lib/lwip/src/core/pbuf.c.obj
 .text.pbuf_clone
                0x00000000       0x2c CMakeFiles/AHT20.dir/C_/VSARM/sdk/pico/pico-sdk/lib/lwip/src/core/pbuf.c.obj
 .text.pbuf_coalesce
                0x00000000       0x26 CMakeFiles/AHT20.dir/C_/VSARM/sdk/pico/pico-sdk/lib/lwip/src/core/pbuf.c.obj
 .text.pbuf_try_get_at
                0x00000000       0x30 CMakeFiles/AHT20.dir/C_/VSARM/sdk/pico/pico-sdk/lib/lwip/src/core/pbuf.c.obj
 .text.pbuf_get_at
                0x00000000       0x12 CMakeFiles/AHT20.dir/C_/VSARM/sdk/pico/pico-sdk/lib/lwip/src/core/pbuf.c.obj
 .text.pbuf_put_at
                0x00000000       0x26 CMakeFiles/AHT20.dir/C_/VSARM/sdk/pico/pico-sdk/lib/lwip/src/core/pbuf.c.obj
 .text.pbuf_memcmp
                0x00000000       0x70 CMakeFiles/AHT20.dir/C_/VSARM/sdk/pico/pico-sdk/lib/lwip/src/core/pbuf.c.obj
 .text.pbuf_memfind
                0x00000000       0x48 CMakeFiles/AHT20.dir/C_/VSARM/sdk/pico/pico-sdk/lib/lwip/src/core/pbuf.c.obj
 .text.pbuf_strstr
                0x00000000       0x44 CMakeFiles/AHT20.dir/C_/VSARM/sdk/pico/pico-sdk/lib/lwip/src/core/pbuf.c.obj
 .bss.pbuf_free_ooseq_pending
                0x00000000        0x1 CMakeFiles/AHT20.dir/C_/VSARM/sdk/pico/pico-sdk/lib/lwip/src/core/pbuf.c.obj
 .debug_info    0x00000000     0x230d CMakeFiles/AHT20.dir/C_/VSARM/sdk/pico/pico-sdk/lib/lwip/src/core/pbuf.c.obj
 .debug_abbrev  0x00000000      0x3c0 CMakeFiles/AHT20.dir/C_/VSARM/sdk/pico/pico-sdk/lib/lwip/src/core/pbuf.c.obj
 .debug_loclists
                0x00000000     0x15b4 CMakeFiles/AHT20.dir/C_/VSARM/sdk/pico/pico-sdk/lib/lwip/src/core/pbuf.c.obj
 .debug_aranges
                0x00000000      0x138 CMakeFiles/AHT20.dir/C_/VSARM/sdk/pico/pico-sdk/lib/lwip/src/core/pbuf.c.obj
 .debug_rnglists
                0x00000000      0x143 CMakeFiles/AHT20.dir/C_/VSARM/sdk/pico/pico-sdk/lib/lwip/src/core/pbuf.c.obj
 .debug_line    0x00000000     0x1766 CMakeFiles/AHT20.dir/C_/VSARM/sdk/pico/pico-sdk/lib/lwip/src/core/pbuf.c.obj
 .debug_str     0x00000000      0xc7e CMakeFiles/AHT20.dir/C_/VSARM/sdk/pico/pico-sdk/lib/lwip/src/core/pbuf.c.obj
 .comment       0x00000000       0x46 CMakeFiles/AHT20.dir/C_/VSARM/sdk/pico/pico-sdk/lib/lwip/src/core/pbuf.c.obj
 .debug_frame   0x00000000      0x3fc CMakeFiles/AHT20.dir/C_/VSARM/sdk/pico/pico-sdk/lib/lwip/src/core/pbuf.c.obj
 .ARM.attributes
                0x00000000       0x2c CMakeFiles/AHT20.dir/C_/VSARM/sdk/pico/pico-sdk/lib/lwip/src/core/pbuf.c.obj
 .text          0x00000000        0x0 CMakeFiles/AHT20.dir/C_/VSARM/sdk/pico/pico-sdk/lib/lwip/src/core/raw.c.obj
 .data          0x00000000        0x0 CMakeFiles/AHT20.dir/C_/VSARM/sdk/pico/pico-sdk/lib/lwip/src/core/raw.c.obj
 .bss           0x00000000        0x0 CMakeFiles/AHT20.dir/C_/VSARM/sdk/pico/pico-sdk/lib/lwip/src/core/raw.c.obj
 .text.raw_input_local_match
                0x00000000       0x5c CMakeFiles/AHT20.dir/C_/VSARM/sdk/pico/pico-sdk/lib/lwip/src/core/raw.c.obj
 .rodata.raw_input.str1.4
                0x00000000       0x49 CMakeFiles/AHT20.dir/C_/VSARM/sdk/pico/pico-sdk/lib/lwip/src/core/raw.c.obj
 .text.raw_input
                0x00000000       0xb4 CMakeFiles/AHT20.dir/C_/VSARM/sdk/pico/pico-sdk/lib/lwip/src/core/raw.c.obj
 .text.raw_bind
                0x00000000       0x1c CMakeFiles/AHT20.dir/C_/VSARM/sdk/pico/pico-sdk/lib/lwip/src/core/raw.c.obj
 .text.raw_bind_netif
                0x00000000       0x14 CMakeFiles/AHT20.dir/C_/VSARM/sdk/pico/pico-sdk/lib/lwip/src/core/raw.c.obj
 .text.raw_connect
                0x00000000       0x24 CMakeFiles/AHT20.dir/C_/VSARM/sdk/pico/pico-sdk/lib/lwip/src/core/raw.c.obj
 .text.raw_disconnect
                0x00000000       0x10 CMakeFiles/AHT20.dir/C_/VSARM/sdk/pico/pico-sdk/lib/lwip/src/core/raw.c.obj
 .text.raw_recv
                0x00000000        0x6 CMakeFiles/AHT20.dir/C_/VSARM/sdk/pico/pico-sdk/lib/lwip/src/core/raw.c.obj
 .rodata.raw_sendto_if_src.str1.4
                0x00000000       0x26 CMakeFiles/AHT20.dir/C_/VSARM/sdk/pico/pico-sdk/lib/lwip/src/core/raw.c.obj
 .text.raw_sendto_if_src
                0x00000000       0xe8 CMakeFiles/AHT20.dir/C_/VSARM/sdk/pico/pico-sdk/lib/lwip/src/core/raw.c.obj
 .text.raw_sendto
                0x00000000       0x62 CMakeFiles/AHT20.dir/C_/VSARM/sdk/pico/pico-sdk/lib/lwip/src/core/raw.c.obj
 .text.raw_send
                0x00000000        0xa CMakeFiles/AHT20.dir/C_/VSARM/sdk/pico/pico-sdk/lib/lwip/src/core/raw.c.obj
 .text.raw_remove
                0x00000000       0x38 CMakeFiles/AHT20.dir/C_/VSARM/sdk/pico/pico-sdk/lib/lwip/src/core/raw.c.obj
 .text.raw_new  0x00000000       0x2c CMakeFiles/AHT20.dir/C_/VSARM/sdk/pico/pico-sdk/lib/lwip/src/core/raw.c.obj
 .text.raw_new_ip_type
                0x00000000        0xa CMakeFiles/AHT20.dir/C_/VSARM/sdk/pico/pico-sdk/lib/lwip/src/core/raw.c.obj
 .text.raw_netif_ip_addr_changed
                0x00000000       0x38 CMakeFiles/AHT20.dir/C_/VSARM/sdk/pico/pico-sdk/lib/lwip/src/core/raw.c.obj
 .bss.raw_pcbs  0x00000000        0x4 CMakeFiles/AHT20.dir/C_/VSARM/sdk/pico/pico-sdk/lib/lwip/src/core/raw.c.obj
 .debug_info    0x00000000      0xf65 CMakeFiles/AHT20.dir/C_/VSARM/sdk/pico/pico-sdk/lib/lwip/src/core/raw.c.obj
 .debug_abbrev  0x00000000      0x38b CMakeFiles/AHT20.dir/C_/VSARM/sdk/pico/pico-sdk/lib/lwip/src/core/raw.c.obj
 .debug_loclists
                0x00000000      0x5a6 CMakeFiles/AHT20.dir/C_/VSARM/sdk/pico/pico-sdk/lib/lwip/src/core/raw.c.obj
 .debug_aranges
                0x00000000       0x88 CMakeFiles/AHT20.dir/C_/VSARM/sdk/pico/pico-sdk/lib/lwip/src/core/raw.c.obj
 .debug_rnglists
                0x00000000       0x73 CMakeFiles/AHT20.dir/C_/VSARM/sdk/pico/pico-sdk/lib/lwip/src/core/raw.c.obj
 .debug_line    0x00000000      0x8fb CMakeFiles/AHT20.dir/C_/VSARM/sdk/pico/pico-sdk/lib/lwip/src/core/raw.c.obj
 .debug_str     0x00000000      0x8a0 CMakeFiles/AHT20.dir/C_/VSARM/sdk/pico/pico-sdk/lib/lwip/src/core/raw.c.obj
 .comment       0x00000000       0x46 CMakeFiles/AHT20.dir/C_/VSARM/sdk/pico/pico-sdk/lib/lwip/src/core/raw.c.obj
 .debug_frame   0x00000000      0x164 CMakeFiles/AHT20.dir/C_/VSARM/sdk/pico/pico-sdk/lib/lwip/src/core/raw.c.obj
 .ARM.attributes
                0x00000000       0x2c CMakeFiles/AHT20.dir/C_/VSARM/sdk/pico/pico-sdk/lib/lwip/src/core/raw.c.obj
 .text          0x00000000        0x0 CMakeFiles/AHT20.dir/C_/VSARM/sdk/pico/pico-sdk/lib/lwip/src/core/stats.c.obj
 .data          0x00000000        0x0 CMakeFiles/AHT20.dir/C_/VSARM/sdk/pico/pico-sdk/lib/lwip/src/core/stats.c.obj
 .bss           0x00000000        0x0 CMakeFiles/AHT20.dir/C_/VSARM/sdk/pico/pico-sdk/lib/lwip/src/core/stats.c.obj
 .text.stats_init
                0x00000000        0x2 CMakeFiles/AHT20.dir/C_/VSARM/sdk/pico/pico-sdk/lib/lwip/src/core/stats.c.obj
 .rodata.stats_display_proto.str1.4
                0x00000000       0xb3 CMakeFiles/AHT20.dir/C_/VSARM/sdk/pico/pico-sdk/lib/lwip/src/core/stats.c.obj
 .text.stats_display_proto
                0x00000000       0xa0 CMakeFiles/AHT20.dir/C_/VSARM/sdk/pico/pico-sdk/lib/lwip/src/core/stats.c.obj
 .rodata.stats_display.str1.4
                0x00000000       0x24 CMakeFiles/AHT20.dir/C_/VSARM/sdk/pico/pico-sdk/lib/lwip/src/core/stats.c.obj
 .text.stats_display
                0x00000000       0x68 CMakeFiles/AHT20.dir/C_/VSARM/sdk/pico/pico-sdk/lib/lwip/src/core/stats.c.obj
 .bss.lwip_stats
                0x00000000       0x90 CMakeFiles/AHT20.dir/C_/VSARM/sdk/pico/pico-sdk/lib/lwip/src/core/stats.c.obj
 .debug_info    0x00000000      0x48c CMakeFiles/AHT20.dir/C_/VSARM/sdk/pico/pico-sdk/lib/lwip/src/core/stats.c.obj
 .debug_abbrev  0x00000000      0x171 CMakeFiles/AHT20.dir/C_/VSARM/sdk/pico/pico-sdk/lib/lwip/src/core/stats.c.obj
 .debug_loclists
                0x00000000       0x5f CMakeFiles/AHT20.dir/C_/VSARM/sdk/pico/pico-sdk/lib/lwip/src/core/stats.c.obj
 .debug_aranges
                0x00000000       0x30 CMakeFiles/AHT20.dir/C_/VSARM/sdk/pico/pico-sdk/lib/lwip/src/core/stats.c.obj
 .debug_rnglists
                0x00000000       0x20 CMakeFiles/AHT20.dir/C_/VSARM/sdk/pico/pico-sdk/lib/lwip/src/core/stats.c.obj
 .debug_line    0x00000000      0x231 CMakeFiles/AHT20.dir/C_/VSARM/sdk/pico/pico-sdk/lib/lwip/src/core/stats.c.obj
 .debug_str     0x00000000      0x2ee CMakeFiles/AHT20.dir/C_/VSARM/sdk/pico/pico-sdk/lib/lwip/src/core/stats.c.obj
 .comment       0x00000000       0x46 CMakeFiles/AHT20.dir/C_/VSARM/sdk/pico/pico-sdk/lib/lwip/src/core/stats.c.obj
 .debug_frame   0x00000000       0x50 CMakeFiles/AHT20.dir/C_/VSARM/sdk/pico/pico-sdk/lib/lwip/src/core/stats.c.obj
 .ARM.attributes
                0x00000000       0x2c CMakeFiles/AHT20.dir/C_/VSARM/sdk/pico/pico-sdk/lib/lwip/src/core/stats.c.obj
 .text          0x00000000        0x0 CMakeFiles/AHT20.dir/C_/VSARM/sdk/pico/pico-sdk/lib/lwip/src/core/sys.c.obj
 .data          0x00000000        0x0 CMakeFiles/AHT20.dir/C_/VSARM/sdk/pico/pico-sdk/lib/lwip/src/core/sys.c.obj
 .bss           0x00000000        0x0 CMakeFiles/AHT20.dir/C_/VSARM/sdk/pico/pico-sdk/lib/lwip/src/core/sys.c.obj
 .debug_info    0x00000000       0x73 CMakeFiles/AHT20.dir/C_/VSARM/sdk/pico/pico-sdk/lib/lwip/src/core/sys.c.obj
 .debug_abbrev  0x00000000       0x26 CMakeFiles/AHT20.dir/C_/VSARM/sdk/pico/pico-sdk/lib/lwip/src/core/sys.c.obj
 .debug_aranges
                0x00000000       0x18 CMakeFiles/AHT20.dir/C_/VSARM/sdk/pico/pico-sdk/lib/lwip/src/core/sys.c.obj
 .debug_line    0x00000000       0x53 CMakeFiles/AHT20.dir/C_/VSARM/sdk/pico/pico-sdk/lib/lwip/src/core/sys.c.obj
 .debug_str     0x00000000      0x17d CMakeFiles/AHT20.dir/C_/VSARM/sdk/pico/pico-sdk/lib/lwip/src/core/sys.c.obj
 .comment       0x00000000       0x46 CMakeFiles/AHT20.dir/C_/VSARM/sdk/pico/pico-sdk/lib/lwip/src/core/sys.c.obj
 .ARM.attributes
                0x00000000       0x2c CMakeFiles/AHT20.dir/C_/VSARM/sdk/pico/pico-sdk/lib/lwip/src/core/sys.c.obj
 .text          0x00000000        0x0 CMakeFiles/AHT20.dir/C_/VSARM/sdk/pico/pico-sdk/lib/lwip/src/core/altcp.c.obj
 .data          0x00000000        0x0 CMakeFiles/AHT20.dir/C_/VSARM/sdk/pico/pico-sdk/lib/lwip/src/core/altcp.c.obj
 .bss           0x00000000        0x0 CMakeFiles/AHT20.dir/C_/VSARM/sdk/pico/pico-sdk/lib/lwip/src/core/altcp.c.obj
 .debug_info    0x00000000       0x73 CMakeFiles/AHT20.dir/C_/VSARM/sdk/pico/pico-sdk/lib/lwip/src/core/altcp.c.obj
 .debug_abbrev  0x00000000       0x26 CMakeFiles/AHT20.dir/C_/VSARM/sdk/pico/pico-sdk/lib/lwip/src/core/altcp.c.obj
 .debug_aranges
                0x00000000       0x18 CMakeFiles/AHT20.dir/C_/VSARM/sdk/pico/pico-sdk/lib/lwip/src/core/altcp.c.obj
 .debug_line    0x00000000       0x55 CMakeFiles/AHT20.dir/C_/VSARM/sdk/pico/pico-sdk/lib/lwip/src/core/altcp.c.obj
 .debug_str     0x00000000      0x17f CMakeFiles/AHT20.dir/C_/VSARM/sdk/pico/pico-sdk/lib/lwip/src/core/altcp.c.obj
 .comment       0x00000000       0x46 CMakeFiles/AHT20.dir/C_/VSARM/sdk/pico/pico-sdk/lib/lwip/src/core/altcp.c.obj
 .ARM.attributes
                0x00000000       0x2c CMakeFiles/AHT20.dir/C_/VSARM/sdk/pico/pico-sdk/lib/lwip/src/core/altcp.c.obj
 .text          0x00000000        0x0 CMakeFiles/AHT20.dir/C_/VSARM/sdk/pico/pico-sdk/lib/lwip/src/core/altcp_alloc.c.obj
 .data          0x00000000        0x0 CMakeFiles/AHT20.dir/C_/VSARM/sdk/pico/pico-sdk/lib/lwip/src/core/altcp_alloc.c.obj
 .bss           0x00000000        0x0 CMakeFiles/AHT20.dir/C_/VSARM/sdk/pico/pico-sdk/lib/lwip/src/core/altcp_alloc.c.obj
 .debug_info    0x00000000       0x73 CMakeFiles/AHT20.dir/C_/VSARM/sdk/pico/pico-sdk/lib/lwip/src/core/altcp_alloc.c.obj
 .debug_abbrev  0x00000000       0x26 CMakeFiles/AHT20.dir/C_/VSARM/sdk/pico/pico-sdk/lib/lwip/src/core/altcp_alloc.c.obj
 .debug_aranges
                0x00000000       0x18 CMakeFiles/AHT20.dir/C_/VSARM/sdk/pico/pico-sdk/lib/lwip/src/core/altcp_alloc.c.obj
 .debug_line    0x00000000       0x5b CMakeFiles/AHT20.dir/C_/VSARM/sdk/pico/pico-sdk/lib/lwip/src/core/altcp_alloc.c.obj
 .debug_str     0x00000000      0x185 CMakeFiles/AHT20.dir/C_/VSARM/sdk/pico/pico-sdk/lib/lwip/src/core/altcp_alloc.c.obj
 .comment       0x00000000       0x46 CMakeFiles/AHT20.dir/C_/VSARM/sdk/pico/pico-sdk/lib/lwip/src/core/altcp_alloc.c.obj
 .ARM.attributes
                0x00000000       0x2c CMakeFiles/AHT20.dir/C_/VSARM/sdk/pico/pico-sdk/lib/lwip/src/core/altcp_alloc.c.obj
 .text          0x00000000        0x0 CMakeFiles/AHT20.dir/C_/VSARM/sdk/pico/pico-sdk/lib/lwip/src/core/altcp_tcp.c.obj
 .data          0x00000000        0x0 CMakeFiles/AHT20.dir/C_/VSARM/sdk/pico/pico-sdk/lib/lwip/src/core/altcp_tcp.c.obj
 .bss           0x00000000        0x0 CMakeFiles/AHT20.dir/C_/VSARM/sdk/pico/pico-sdk/lib/lwip/src/core/altcp_tcp.c.obj
 .debug_info    0x00000000       0x73 CMakeFiles/AHT20.dir/C_/VSARM/sdk/pico/pico-sdk/lib/lwip/src/core/altcp_tcp.c.obj
 .debug_abbrev  0x00000000       0x26 CMakeFiles/AHT20.dir/C_/VSARM/sdk/pico/pico-sdk/lib/lwip/src/core/altcp_tcp.c.obj
 .debug_aranges
                0x00000000       0x18 CMakeFiles/AHT20.dir/C_/VSARM/sdk/pico/pico-sdk/lib/lwip/src/core/altcp_tcp.c.obj
 .debug_line    0x00000000       0x59 CMakeFiles/AHT20.dir/C_/VSARM/sdk/pico/pico-sdk/lib/lwip/src/core/altcp_tcp.c.obj
 .debug_str     0x00000000      0x183 CMakeFiles/AHT20.dir/C_/VSARM/sdk/pico/pico-sdk/lib/lwip/src/core/altcp_tcp.c.obj
 .comment       0x00000000       0x46 CMakeFiles/AHT20.dir/C_/VSARM/sdk/pico/pico-sdk/lib/lwip/src/core/altcp_tcp.c.obj
 .ARM.attributes
                0x00000000       0x2c CMakeFiles/AHT20.dir/C_/VSARM/sdk/pico/pico-sdk/lib/lwip/src/core/altcp_tcp.c.obj
 .text          0x00000000        0x0 CMakeFiles/AHT20.dir/C_/VSARM/sdk/pico/pico-sdk/lib/lwip/src/core/tcp.c.obj
 .data          0x00000000        0x0 CMakeFiles/AHT20.dir/C_/VSARM/sdk/pico/pico-sdk/lib/lwip/src/core/tcp.c.obj
 .bss           0x00000000        0x0 CMakeFiles/AHT20.dir/C_/VSARM/sdk/pico/pico-sdk/lib/lwip/src/core/tcp.c.obj
 .text.tcp_new_port
                0x00000000       0x6c CMakeFiles/AHT20.dir/C_/VSARM/sdk/pico/pico-sdk/lib/lwip/src/core/tcp.c.obj
 .rodata.tcp_remove_listener.str1.4
                0x00000000       0x26 CMakeFiles/AHT20.dir/C_/VSARM/sdk/pico/pico-sdk/lib/lwip/src/core/tcp.c.obj
 .text.tcp_remove_listener
                0x00000000       0x24 CMakeFiles/AHT20.dir/C_/VSARM/sdk/pico/pico-sdk/lib/lwip/src/core/tcp.c.obj
 .rodata.tcp_listen_closed.str1.4
                0x00000000       0x21 CMakeFiles/AHT20.dir/C_/VSARM/sdk/pico/pico-sdk/lib/lwip/src/core/tcp.c.obj
 .text.tcp_listen_closed
                0x00000000       0x40 CMakeFiles/AHT20.dir/C_/VSARM/sdk/pico/pico-sdk/lib/lwip/src/core/tcp.c.obj
 .rodata.tcp_free_listen.str1.4
                0x00000000       0x19 CMakeFiles/AHT20.dir/C_/VSARM/sdk/pico/pico-sdk/lib/lwip/src/core/tcp.c.obj
 .text.tcp_free_listen
                0x00000000       0x1c CMakeFiles/AHT20.dir/C_/VSARM/sdk/pico/pico-sdk/lib/lwip/src/core/tcp.c.obj
 .text.tcp_close_shutdown_fin
                0x00000000       0x64 CMakeFiles/AHT20.dir/C_/VSARM/sdk/pico/pico-sdk/lib/lwip/src/core/tcp.c.obj
 .text.tcp_handle_closepend
                0x00000000       0x28 CMakeFiles/AHT20.dir/C_/VSARM/sdk/pico/pico-sdk/lib/lwip/src/core/tcp.c.obj
 .text.tcp_init
                0x00000000       0x20 CMakeFiles/AHT20.dir/C_/VSARM/sdk/pico/pico-sdk/lib/lwip/src/core/tcp.c.obj
 .rodata.tcp_free.str1.4
                0x00000000       0x11 CMakeFiles/AHT20.dir/C_/VSARM/sdk/pico/pico-sdk/lib/lwip/src/core/tcp.c.obj
 .text.tcp_free
                0x00000000       0x1c CMakeFiles/AHT20.dir/C_/VSARM/sdk/pico/pico-sdk/lib/lwip/src/core/tcp.c.obj
 .rodata.tcp_bind.str1.4
                0x00000000       0x40 CMakeFiles/AHT20.dir/C_/VSARM/sdk/pico/pico-sdk/lib/lwip/src/core/tcp.c.obj
 .text.tcp_bind
                0x00000000       0xc0 CMakeFiles/AHT20.dir/C_/VSARM/sdk/pico/pico-sdk/lib/lwip/src/core/tcp.c.obj
 .text.tcp_bind_netif
                0x00000000       0x14 CMakeFiles/AHT20.dir/C_/VSARM/sdk/pico/pico-sdk/lib/lwip/src/core/tcp.c.obj
 .rodata.tcp_listen_with_backlog_and_err.str1.4
                0x00000000       0x67 CMakeFiles/AHT20.dir/C_/VSARM/sdk/pico/pico-sdk/lib/lwip/src/core/tcp.c.obj
 .text.tcp_listen_with_backlog_and_err
                0x00000000       0xd0 CMakeFiles/AHT20.dir/C_/VSARM/sdk/pico/pico-sdk/lib/lwip/src/core/tcp.c.obj
 .text.tcp_listen_with_backlog
                0x00000000        0xa CMakeFiles/AHT20.dir/C_/VSARM/sdk/pico/pico-sdk/lib/lwip/src/core/tcp.c.obj
 .rodata.tcp_update_rcv_ann_wnd.str1.4
                0x00000000       0x3e CMakeFiles/AHT20.dir/C_/VSARM/sdk/pico/pico-sdk/lib/lwip/src/core/tcp.c.obj
 .text.tcp_update_rcv_ann_wnd
                0x00000000       0x58 CMakeFiles/AHT20.dir/C_/VSARM/sdk/pico/pico-sdk/lib/lwip/src/core/tcp.c.obj
 .rodata.tcp_recved.str1.4
                0x00000000       0x3e CMakeFiles/AHT20.dir/C_/VSARM/sdk/pico/pico-sdk/lib/lwip/src/core/tcp.c.obj
 .text.tcp_recved
                0x00000000       0x60 CMakeFiles/AHT20.dir/C_/VSARM/sdk/pico/pico-sdk/lib/lwip/src/core/tcp.c.obj
 .text.tcp_txnow
                0x00000000       0x24 CMakeFiles/AHT20.dir/C_/VSARM/sdk/pico/pico-sdk/lib/lwip/src/core/tcp.c.obj
 .text.tcp_seg_free
                0x00000000       0x1a CMakeFiles/AHT20.dir/C_/VSARM/sdk/pico/pico-sdk/lib/lwip/src/core/tcp.c.obj
 .text.tcp_segs_free
                0x00000000       0x12 CMakeFiles/AHT20.dir/C_/VSARM/sdk/pico/pico-sdk/lib/lwip/src/core/tcp.c.obj
 .rodata.tcp_setprio.str1.4
                0x00000000       0x19 CMakeFiles/AHT20.dir/C_/VSARM/sdk/pico/pico-sdk/lib/lwip/src/core/tcp.c.obj
 .text.tcp_setprio
                0x00000000       0x18 CMakeFiles/AHT20.dir/C_/VSARM/sdk/pico/pico-sdk/lib/lwip/src/core/tcp.c.obj
 .rodata.tcp_seg_copy.str1.4
                0x00000000       0x1a CMakeFiles/AHT20.dir/C_/VSARM/sdk/pico/pico-sdk/lib/lwip/src/core/tcp.c.obj
 .text.tcp_seg_copy
                0x00000000       0x2c CMakeFiles/AHT20.dir/C_/VSARM/sdk/pico/pico-sdk/lib/lwip/src/core/tcp.c.obj
 .text.tcp_arg  0x00000000        0x8 CMakeFiles/AHT20.dir/C_/VSARM/sdk/pico/pico-sdk/lib/lwip/src/core/tcp.c.obj
 .rodata.tcp_recv.str1.4
                0x00000000       0x27 CMakeFiles/AHT20.dir/C_/VSARM/sdk/pico/pico-sdk/lib/lwip/src/core/tcp.c.obj
 .text.tcp_recv
                0x00000000       0x1c CMakeFiles/AHT20.dir/C_/VSARM/sdk/pico/pico-sdk/lib/lwip/src/core/tcp.c.obj
 .rodata.tcp_sent.str1.4
                0x00000000       0x27 CMakeFiles/AHT20.dir/C_/VSARM/sdk/pico/pico-sdk/lib/lwip/src/core/tcp.c.obj
 .text.tcp_sent
                0x00000000       0x1c CMakeFiles/AHT20.dir/C_/VSARM/sdk/pico/pico-sdk/lib/lwip/src/core/tcp.c.obj
 .rodata.tcp_err.str1.4
                0x00000000       0x26 CMakeFiles/AHT20.dir/C_/VSARM/sdk/pico/pico-sdk/lib/lwip/src/core/tcp.c.obj
 .text.tcp_err  0x00000000       0x1c CMakeFiles/AHT20.dir/C_/VSARM/sdk/pico/pico-sdk/lib/lwip/src/core/tcp.c.obj
 .text.tcp_accept
                0x00000000       0x10 CMakeFiles/AHT20.dir/C_/VSARM/sdk/pico/pico-sdk/lib/lwip/src/core/tcp.c.obj
 .rodata.tcp_poll.str1.4
                0x00000000       0x36 CMakeFiles/AHT20.dir/C_/VSARM/sdk/pico/pico-sdk/lib/lwip/src/core/tcp.c.obj
 .text.tcp_poll
                0x00000000       0x2c CMakeFiles/AHT20.dir/C_/VSARM/sdk/pico/pico-sdk/lib/lwip/src/core/tcp.c.obj
 .rodata.tcp_next_iss.str1.4
                0x00000000       0x1a CMakeFiles/AHT20.dir/C_/VSARM/sdk/pico/pico-sdk/lib/lwip/src/core/tcp.c.obj
 .text.tcp_next_iss
                0x00000000       0x28 CMakeFiles/AHT20.dir/C_/VSARM/sdk/pico/pico-sdk/lib/lwip/src/core/tcp.c.obj
 .rodata.tcp_eff_send_mss_netif.str1.4
                0x00000000       0x27 CMakeFiles/AHT20.dir/C_/VSARM/sdk/pico/pico-sdk/lib/lwip/src/core/tcp.c.obj
 .text.tcp_eff_send_mss_netif
                0x00000000       0x34 CMakeFiles/AHT20.dir/C_/VSARM/sdk/pico/pico-sdk/lib/lwip/src/core/tcp.c.obj
 .rodata.tcp_connect.str1.4
                0x00000000       0x68 CMakeFiles/AHT20.dir/C_/VSARM/sdk/pico/pico-sdk/lib/lwip/src/core/tcp.c.obj
 .text.tcp_connect
                0x00000000      0x134 CMakeFiles/AHT20.dir/C_/VSARM/sdk/pico/pico-sdk/lib/lwip/src/core/tcp.c.obj
 .text.tcp_debug_state_str
                0x00000000        0xc CMakeFiles/AHT20.dir/C_/VSARM/sdk/pico/pico-sdk/lib/lwip/src/core/tcp.c.obj
 .text.tcp_tcp_get_tcp_addrinfo
                0x00000000       0x34 CMakeFiles/AHT20.dir/C_/VSARM/sdk/pico/pico-sdk/lib/lwip/src/core/tcp.c.obj
 .text.tcp_free_ooseq
                0x00000000       0x14 CMakeFiles/AHT20.dir/C_/VSARM/sdk/pico/pico-sdk/lib/lwip/src/core/tcp.c.obj
 .rodata.tcp_pcb_purge.str1.4
                0x00000000       0x1b CMakeFiles/AHT20.dir/C_/VSARM/sdk/pico/pico-sdk/lib/lwip/src/core/tcp.c.obj
 .text.tcp_pcb_purge
                0x00000000       0x58 CMakeFiles/AHT20.dir/C_/VSARM/sdk/pico/pico-sdk/lib/lwip/src/core/tcp.c.obj
 .rodata.tcp_pcb_remove.str1.4
                0x00000000       0x87 CMakeFiles/AHT20.dir/C_/VSARM/sdk/pico/pico-sdk/lib/lwip/src/core/tcp.c.obj
 .text.tcp_pcb_remove
                0x00000000       0xa4 CMakeFiles/AHT20.dir/C_/VSARM/sdk/pico/pico-sdk/lib/lwip/src/core/tcp.c.obj
 .rodata.tcp_abandon.str1.4
                0x00000000       0x4d CMakeFiles/AHT20.dir/C_/VSARM/sdk/pico/pico-sdk/lib/lwip/src/core/tcp.c.obj
 .text.tcp_abandon
                0x00000000      0x10c CMakeFiles/AHT20.dir/C_/VSARM/sdk/pico/pico-sdk/lib/lwip/src/core/tcp.c.obj
 .text.tcp_abort
                0x00000000        0xa CMakeFiles/AHT20.dir/C_/VSARM/sdk/pico/pico-sdk/lib/lwip/src/core/tcp.c.obj
 .rodata.tcp_accept_null.str1.4
                0x00000000       0x1d CMakeFiles/AHT20.dir/C_/VSARM/sdk/pico/pico-sdk/lib/lwip/src/core/tcp.c.obj
 .text.tcp_accept_null
                0x00000000       0x1c CMakeFiles/AHT20.dir/C_/VSARM/sdk/pico/pico-sdk/lib/lwip/src/core/tcp.c.obj
 .text.tcp_kill_timewait
                0x00000000       0x38 CMakeFiles/AHT20.dir/C_/VSARM/sdk/pico/pico-sdk/lib/lwip/src/core/tcp.c.obj
 .text.tcp_kill_prio
                0x00000000       0x58 CMakeFiles/AHT20.dir/C_/VSARM/sdk/pico/pico-sdk/lib/lwip/src/core/tcp.c.obj
 .rodata.tcp_netif_ip_addr_changed_pcblist.str1.4
                0x00000000       0x34 CMakeFiles/AHT20.dir/C_/VSARM/sdk/pico/pico-sdk/lib/lwip/src/core/tcp.c.obj
 .text.tcp_netif_ip_addr_changed_pcblist
                0x00000000       0x30 CMakeFiles/AHT20.dir/C_/VSARM/sdk/pico/pico-sdk/lib/lwip/src/core/tcp.c.obj
 .text.tcp_netif_ip_addr_changed
                0x00000000       0x54 CMakeFiles/AHT20.dir/C_/VSARM/sdk/pico/pico-sdk/lib/lwip/src/core/tcp.c.obj
 .rodata.tcp_kill_state.str1.4
                0x00000000        0xe CMakeFiles/AHT20.dir/C_/VSARM/sdk/pico/pico-sdk/lib/lwip/src/core/tcp.c.obj
 .text.tcp_kill_state
                0x00000000       0x54 CMakeFiles/AHT20.dir/C_/VSARM/sdk/pico/pico-sdk/lib/lwip/src/core/tcp.c.obj
 .text.tcp_alloc
                0x00000000       0xc8 CMakeFiles/AHT20.dir/C_/VSARM/sdk/pico/pico-sdk/lib/lwip/src/core/tcp.c.obj
 .text.tcp_new  0x00000000        0xa CMakeFiles/AHT20.dir/C_/VSARM/sdk/pico/pico-sdk/lib/lwip/src/core/tcp.c.obj
 .text.tcp_new_ip_type
                0x00000000        0xa CMakeFiles/AHT20.dir/C_/VSARM/sdk/pico/pico-sdk/lib/lwip/src/core/tcp.c.obj
 .rodata.tcp_close_shutdown.str1.4
                0x00000000       0x39 CMakeFiles/AHT20.dir/C_/VSARM/sdk/pico/pico-sdk/lib/lwip/src/core/tcp.c.obj
 .text.tcp_close_shutdown
                0x00000000      0x13c CMakeFiles/AHT20.dir/C_/VSARM/sdk/pico/pico-sdk/lib/lwip/src/core/tcp.c.obj
 .rodata.tcp_close.str1.4
                0x00000000       0x17 CMakeFiles/AHT20.dir/C_/VSARM/sdk/pico/pico-sdk/lib/lwip/src/core/tcp.c.obj
 .text.tcp_close
                0x00000000       0x2c CMakeFiles/AHT20.dir/C_/VSARM/sdk/pico/pico-sdk/lib/lwip/src/core/tcp.c.obj
 .rodata.tcp_recv_null.str1.4
                0x00000000       0x1b CMakeFiles/AHT20.dir/C_/VSARM/sdk/pico/pico-sdk/lib/lwip/src/core/tcp.c.obj
 .text.tcp_recv_null
                0x00000000       0x3c CMakeFiles/AHT20.dir/C_/VSARM/sdk/pico/pico-sdk/lib/lwip/src/core/tcp.c.obj
 .rodata.tcp_process_refused_data.str1.4
                0x00000000       0x26 CMakeFiles/AHT20.dir/C_/VSARM/sdk/pico/pico-sdk/lib/lwip/src/core/tcp.c.obj
 .text.tcp_process_refused_data
                0x00000000       0x88 CMakeFiles/AHT20.dir/C_/VSARM/sdk/pico/pico-sdk/lib/lwip/src/core/tcp.c.obj
 .text.tcp_fasttmr
                0x00000000       0x80 CMakeFiles/AHT20.dir/C_/VSARM/sdk/pico/pico-sdk/lib/lwip/src/core/tcp.c.obj
 .rodata.tcp_shutdown.str1.4
                0x00000000       0x1a CMakeFiles/AHT20.dir/C_/VSARM/sdk/pico/pico-sdk/lib/lwip/src/core/tcp.c.obj
 .text.tcp_shutdown
                0x00000000       0x7c CMakeFiles/AHT20.dir/C_/VSARM/sdk/pico/pico-sdk/lib/lwip/src/core/tcp.c.obj
 .rodata.tcp_slowtmr.str1.4
                0x00000000      0x1c6 CMakeFiles/AHT20.dir/C_/VSARM/sdk/pico/pico-sdk/lib/lwip/src/core/tcp.c.obj
 .text.tcp_slowtmr
                0x00000000      0x44c CMakeFiles/AHT20.dir/C_/VSARM/sdk/pico/pico-sdk/lib/lwip/src/core/tcp.c.obj
 .text.tcp_tmr  0x00000000       0x20 CMakeFiles/AHT20.dir/C_/VSARM/sdk/pico/pico-sdk/lib/lwip/src/core/tcp.c.obj
 .data.iss.0    0x00000000        0x4 CMakeFiles/AHT20.dir/C_/VSARM/sdk/pico/pico-sdk/lib/lwip/src/core/tcp.c.obj
 .bss.tcp_timer_ctr
                0x00000000        0x1 CMakeFiles/AHT20.dir/C_/VSARM/sdk/pico/pico-sdk/lib/lwip/src/core/tcp.c.obj
 .bss.tcp_timer
                0x00000000        0x1 CMakeFiles/AHT20.dir/C_/VSARM/sdk/pico/pico-sdk/lib/lwip/src/core/tcp.c.obj
 .bss.tcp_active_pcbs_changed
                0x00000000        0x1 CMakeFiles/AHT20.dir/C_/VSARM/sdk/pico/pico-sdk/lib/lwip/src/core/tcp.c.obj
 .rodata.tcp_pcb_lists
                0x00000000       0x10 CMakeFiles/AHT20.dir/C_/VSARM/sdk/pico/pico-sdk/lib/lwip/src/core/tcp.c.obj
 .bss.tcp_tw_pcbs
                0x00000000        0x4 CMakeFiles/AHT20.dir/C_/VSARM/sdk/pico/pico-sdk/lib/lwip/src/core/tcp.c.obj
 .bss.tcp_active_pcbs
                0x00000000        0x4 CMakeFiles/AHT20.dir/C_/VSARM/sdk/pico/pico-sdk/lib/lwip/src/core/tcp.c.obj
 .bss.tcp_listen_pcbs
                0x00000000        0x4 CMakeFiles/AHT20.dir/C_/VSARM/sdk/pico/pico-sdk/lib/lwip/src/core/tcp.c.obj
 .bss.tcp_bound_pcbs
                0x00000000        0x4 CMakeFiles/AHT20.dir/C_/VSARM/sdk/pico/pico-sdk/lib/lwip/src/core/tcp.c.obj
 .rodata.tcp_persist_backoff
                0x00000000        0x7 CMakeFiles/AHT20.dir/C_/VSARM/sdk/pico/pico-sdk/lib/lwip/src/core/tcp.c.obj
 .rodata.tcp_backoff
                0x00000000        0xd CMakeFiles/AHT20.dir/C_/VSARM/sdk/pico/pico-sdk/lib/lwip/src/core/tcp.c.obj
 .bss.tcp_ticks
                0x00000000        0x4 CMakeFiles/AHT20.dir/C_/VSARM/sdk/pico/pico-sdk/lib/lwip/src/core/tcp.c.obj
 .data.tcp_port
                0x00000000        0x2 CMakeFiles/AHT20.dir/C_/VSARM/sdk/pico/pico-sdk/lib/lwip/src/core/tcp.c.obj
 .rodata.str1.4
                0x00000000       0x76 CMakeFiles/AHT20.dir/C_/VSARM/sdk/pico/pico-sdk/lib/lwip/src/core/tcp.c.obj
 .rodata.tcp_state_str
                0x00000000       0x2c CMakeFiles/AHT20.dir/C_/VSARM/sdk/pico/pico-sdk/lib/lwip/src/core/tcp.c.obj
 .debug_info    0x00000000     0x2cdd CMakeFiles/AHT20.dir/C_/VSARM/sdk/pico/pico-sdk/lib/lwip/src/core/tcp.c.obj
 .debug_abbrev  0x00000000      0x441 CMakeFiles/AHT20.dir/C_/VSARM/sdk/pico/pico-sdk/lib/lwip/src/core/tcp.c.obj
 .debug_loclists
                0x00000000     0x188f CMakeFiles/AHT20.dir/C_/VSARM/sdk/pico/pico-sdk/lib/lwip/src/core/tcp.c.obj
 .debug_aranges
                0x00000000      0x1b8 CMakeFiles/AHT20.dir/C_/VSARM/sdk/pico/pico-sdk/lib/lwip/src/core/tcp.c.obj
 .debug_rnglists
                0x00000000      0x213 CMakeFiles/AHT20.dir/C_/VSARM/sdk/pico/pico-sdk/lib/lwip/src/core/tcp.c.obj
 .debug_line    0x00000000     0x2784 CMakeFiles/AHT20.dir/C_/VSARM/sdk/pico/pico-sdk/lib/lwip/src/core/tcp.c.obj
 .debug_str     0x00000000      0xf29 CMakeFiles/AHT20.dir/C_/VSARM/sdk/pico/pico-sdk/lib/lwip/src/core/tcp.c.obj
 .comment       0x00000000       0x46 CMakeFiles/AHT20.dir/C_/VSARM/sdk/pico/pico-sdk/lib/lwip/src/core/tcp.c.obj
 .debug_frame   0x00000000      0x538 CMakeFiles/AHT20.dir/C_/VSARM/sdk/pico/pico-sdk/lib/lwip/src/core/tcp.c.obj
 .ARM.attributes
                0x00000000       0x2c CMakeFiles/AHT20.dir/C_/VSARM/sdk/pico/pico-sdk/lib/lwip/src/core/tcp.c.obj
 .text          0x00000000        0x0 CMakeFiles/AHT20.dir/C_/VSARM/sdk/pico/pico-sdk/lib/lwip/src/core/tcp_in.c.obj
 .data          0x00000000        0x0 CMakeFiles/AHT20.dir/C_/VSARM/sdk/pico/pico-sdk/lib/lwip/src/core/tcp_in.c.obj
 .bss           0x00000000        0x0 CMakeFiles/AHT20.dir/C_/VSARM/sdk/pico/pico-sdk/lib/lwip/src/core/tcp_in.c.obj
 .text.tcp_get_next_optbyte
                0x00000000       0x40 CMakeFiles/AHT20.dir/C_/VSARM/sdk/pico/pico-sdk/lib/lwip/src/core/tcp_in.c.obj
 .rodata.tcp_parseopt.str1.4
                0x00000000       0x1a CMakeFiles/AHT20.dir/C_/VSARM/sdk/pico/pico-sdk/lib/lwip/src/core/tcp_in.c.obj
 .text.tcp_parseopt
                0x00000000       0x98 CMakeFiles/AHT20.dir/C_/VSARM/sdk/pico/pico-sdk/lib/lwip/src/core/tcp_in.c.obj
 .rodata.tcp_input_delayed_close.str1.4
                0x00000000       0x25 CMakeFiles/AHT20.dir/C_/VSARM/sdk/pico/pico-sdk/lib/lwip/src/core/tcp_in.c.obj
 .text.tcp_input_delayed_close
                0x00000000       0x4c CMakeFiles/AHT20.dir/C_/VSARM/sdk/pico/pico-sdk/lib/lwip/src/core/tcp_in.c.obj
 .rodata.tcp_timewait_input.str1.4
                0x00000000       0x20 CMakeFiles/AHT20.dir/C_/VSARM/sdk/pico/pico-sdk/lib/lwip/src/core/tcp_in.c.obj
 .text.tcp_timewait_input
                0x00000000       0xa0 CMakeFiles/AHT20.dir/C_/VSARM/sdk/pico/pico-sdk/lib/lwip/src/core/tcp_in.c.obj
 .rodata.tcp_listen_input.str1.4
                0x00000000       0x1e CMakeFiles/AHT20.dir/C_/VSARM/sdk/pico/pico-sdk/lib/lwip/src/core/tcp_in.c.obj
 .text.tcp_listen_input
                0x00000000      0x15c CMakeFiles/AHT20.dir/C_/VSARM/sdk/pico/pico-sdk/lib/lwip/src/core/tcp_in.c.obj
 .rodata.tcp_free_acked_segments.str1.4
                0x00000000       0x48 CMakeFiles/AHT20.dir/C_/VSARM/sdk/pico/pico-sdk/lib/lwip/src/core/tcp_in.c.obj
 .text.tcp_free_acked_segments
                0x00000000       0xc0 CMakeFiles/AHT20.dir/C_/VSARM/sdk/pico/pico-sdk/lib/lwip/src/core/tcp_in.c.obj
 .rodata.tcp_oos_insert_segment.str1.4
                0x00000000       0x25 CMakeFiles/AHT20.dir/C_/VSARM/sdk/pico/pico-sdk/lib/lwip/src/core/tcp_in.c.obj
 .text.tcp_oos_insert_segment
                0x00000000       0xd4 CMakeFiles/AHT20.dir/C_/VSARM/sdk/pico/pico-sdk/lib/lwip/src/core/tcp_in.c.obj
 .rodata.tcp_receive.str1.4
                0x00000000      0x130 CMakeFiles/AHT20.dir/C_/VSARM/sdk/pico/pico-sdk/lib/lwip/src/core/tcp_in.c.obj
 .text.tcp_receive
                0x00000000      0x9c8 CMakeFiles/AHT20.dir/C_/VSARM/sdk/pico/pico-sdk/lib/lwip/src/core/tcp_in.c.obj
 .rodata.tcp_process.str1.4
                0x00000000       0x86 CMakeFiles/AHT20.dir/C_/VSARM/sdk/pico/pico-sdk/lib/lwip/src/core/tcp_in.c.obj
 .text.tcp_process
                0x00000000      0x55c CMakeFiles/AHT20.dir/C_/VSARM/sdk/pico/pico-sdk/lib/lwip/src/core/tcp_in.c.obj
 .rodata.tcp_process
                0x00000000       0x28 CMakeFiles/AHT20.dir/C_/VSARM/sdk/pico/pico-sdk/lib/lwip/src/core/tcp_in.c.obj
 .rodata.tcp_input.str1.4
                0x00000000      0x172 CMakeFiles/AHT20.dir/C_/VSARM/sdk/pico/pico-sdk/lib/lwip/src/core/tcp_in.c.obj
 .text.tcp_input
                0x00000000      0x660 CMakeFiles/AHT20.dir/C_/VSARM/sdk/pico/pico-sdk/lib/lwip/src/core/tcp_in.c.obj
 .text.tcp_trigger_input_pcb_close
                0x00000000       0x10 CMakeFiles/AHT20.dir/C_/VSARM/sdk/pico/pico-sdk/lib/lwip/src/core/tcp_in.c.obj
 .bss.tcp_input_pcb
                0x00000000        0x4 CMakeFiles/AHT20.dir/C_/VSARM/sdk/pico/pico-sdk/lib/lwip/src/core/tcp_in.c.obj
 .bss.recv_data
                0x00000000        0x4 CMakeFiles/AHT20.dir/C_/VSARM/sdk/pico/pico-sdk/lib/lwip/src/core/tcp_in.c.obj
 .bss.recv_flags
                0x00000000        0x1 CMakeFiles/AHT20.dir/C_/VSARM/sdk/pico/pico-sdk/lib/lwip/src/core/tcp_in.c.obj
 .bss.flags     0x00000000        0x1 CMakeFiles/AHT20.dir/C_/VSARM/sdk/pico/pico-sdk/lib/lwip/src/core/tcp_in.c.obj
 .bss.tcplen    0x00000000        0x2 CMakeFiles/AHT20.dir/C_/VSARM/sdk/pico/pico-sdk/lib/lwip/src/core/tcp_in.c.obj
 .bss.recv_acked
                0x00000000        0x2 CMakeFiles/AHT20.dir/C_/VSARM/sdk/pico/pico-sdk/lib/lwip/src/core/tcp_in.c.obj
 .bss.ackno     0x00000000        0x4 CMakeFiles/AHT20.dir/C_/VSARM/sdk/pico/pico-sdk/lib/lwip/src/core/tcp_in.c.obj
 .bss.seqno     0x00000000        0x4 CMakeFiles/AHT20.dir/C_/VSARM/sdk/pico/pico-sdk/lib/lwip/src/core/tcp_in.c.obj
 .bss.tcp_optidx
                0x00000000        0x2 CMakeFiles/AHT20.dir/C_/VSARM/sdk/pico/pico-sdk/lib/lwip/src/core/tcp_in.c.obj
 .bss.tcphdr_opt2
                0x00000000        0x4 CMakeFiles/AHT20.dir/C_/VSARM/sdk/pico/pico-sdk/lib/lwip/src/core/tcp_in.c.obj
 .bss.tcphdr_opt1len
                0x00000000        0x2 CMakeFiles/AHT20.dir/C_/VSARM/sdk/pico/pico-sdk/lib/lwip/src/core/tcp_in.c.obj
 .bss.tcphdr_optlen
                0x00000000        0x2 CMakeFiles/AHT20.dir/C_/VSARM/sdk/pico/pico-sdk/lib/lwip/src/core/tcp_in.c.obj
 .bss.tcphdr    0x00000000        0x4 CMakeFiles/AHT20.dir/C_/VSARM/sdk/pico/pico-sdk/lib/lwip/src/core/tcp_in.c.obj
 .bss.inseg     0x00000000       0x14 CMakeFiles/AHT20.dir/C_/VSARM/sdk/pico/pico-sdk/lib/lwip/src/core/tcp_in.c.obj
 .debug_info    0x00000000     0x2433 CMakeFiles/AHT20.dir/C_/VSARM/sdk/pico/pico-sdk/lib/lwip/src/core/tcp_in.c.obj
 .debug_abbrev  0x00000000      0x3a1 CMakeFiles/AHT20.dir/C_/VSARM/sdk/pico/pico-sdk/lib/lwip/src/core/tcp_in.c.obj
 .debug_loclists
                0x00000000      0x94c CMakeFiles/AHT20.dir/C_/VSARM/sdk/pico/pico-sdk/lib/lwip/src/core/tcp_in.c.obj
 .debug_aranges
                0x00000000       0x70 CMakeFiles/AHT20.dir/C_/VSARM/sdk/pico/pico-sdk/lib/lwip/src/core/tcp_in.c.obj
 .debug_rnglists
                0x00000000       0xfc CMakeFiles/AHT20.dir/C_/VSARM/sdk/pico/pico-sdk/lib/lwip/src/core/tcp_in.c.obj
 .debug_line    0x00000000     0x24ec CMakeFiles/AHT20.dir/C_/VSARM/sdk/pico/pico-sdk/lib/lwip/src/core/tcp_in.c.obj
 .debug_str     0x00000000      0xdb8 CMakeFiles/AHT20.dir/C_/VSARM/sdk/pico/pico-sdk/lib/lwip/src/core/tcp_in.c.obj
 .comment       0x00000000       0x46 CMakeFiles/AHT20.dir/C_/VSARM/sdk/pico/pico-sdk/lib/lwip/src/core/tcp_in.c.obj
 .debug_frame   0x00000000      0x148 CMakeFiles/AHT20.dir/C_/VSARM/sdk/pico/pico-sdk/lib/lwip/src/core/tcp_in.c.obj
 .ARM.attributes
                0x00000000       0x2c CMakeFiles/AHT20.dir/C_/VSARM/sdk/pico/pico-sdk/lib/lwip/src/core/tcp_in.c.obj
 .text          0x00000000        0x0 CMakeFiles/AHT20.dir/C_/VSARM/sdk/pico/pico-sdk/lib/lwip/src/core/tcp_out.c.obj
 .data          0x00000000        0x0 CMakeFiles/AHT20.dir/C_/VSARM/sdk/pico/pico-sdk/lib/lwip/src/core/tcp_out.c.obj
 .bss           0x00000000        0x0 CMakeFiles/AHT20.dir/C_/VSARM/sdk/pico/pico-sdk/lib/lwip/src/core/tcp_out.c.obj
 .rodata.tcp_write_checks.str1.4
                0x00000000       0x8e CMakeFiles/AHT20.dir/C_/VSARM/sdk/pico/pico-sdk/lib/lwip/src/core/tcp_out.c.obj
 .text.tcp_write_checks
                0x00000000       0xa8 CMakeFiles/AHT20.dir/C_/VSARM/sdk/pico/pico-sdk/lib/lwip/src/core/tcp_out.c.obj
 .rodata.tcp_output_segment_busy.str1.4
                0x00000000       0x25 CMakeFiles/AHT20.dir/C_/VSARM/sdk/pico/pico-sdk/lib/lwip/src/core/tcp_out.c.obj
 .text.tcp_output_segment_busy
                0x00000000       0x20 CMakeFiles/AHT20.dir/C_/VSARM/sdk/pico/pico-sdk/lib/lwip/src/core/tcp_out.c.obj
 .rodata.tcp_output_fill_options.str1.4
                0x00000000       0x3b CMakeFiles/AHT20.dir/C_/VSARM/sdk/pico/pico-sdk/lib/lwip/src/core/tcp_out.c.obj
 .text.tcp_output_fill_options
                0x00000000       0x30 CMakeFiles/AHT20.dir/C_/VSARM/sdk/pico/pico-sdk/lib/lwip/src/core/tcp_out.c.obj
 .rodata.tcp_pbuf_prealloc.str1.4
                0x00000000       0x58 CMakeFiles/AHT20.dir/C_/VSARM/sdk/pico/pico-sdk/lib/lwip/src/core/tcp_out.c.obj
 .text.tcp_pbuf_prealloc
                0x00000000       0x4c CMakeFiles/AHT20.dir/C_/VSARM/sdk/pico/pico-sdk/lib/lwip/src/core/tcp_out.c.obj
 .rodata.tcp_create_segment.str1.4
                0x00000000       0x59 CMakeFiles/AHT20.dir/C_/VSARM/sdk/pico/pico-sdk/lib/lwip/src/core/tcp_out.c.obj
 .text.tcp_create_segment
                0x00000000       0xf4 CMakeFiles/AHT20.dir/C_/VSARM/sdk/pico/pico-sdk/lib/lwip/src/core/tcp_out.c.obj
 .rodata.tcp_output_alloc_header_common.str1.4
                0x00000000       0x2e CMakeFiles/AHT20.dir/C_/VSARM/sdk/pico/pico-sdk/lib/lwip/src/core/tcp_out.c.obj
 .text.tcp_output_alloc_header_common
                0x00000000       0xd0 CMakeFiles/AHT20.dir/C_/VSARM/sdk/pico/pico-sdk/lib/lwip/src/core/tcp_out.c.obj
 .rodata.tcp_output_alloc_header.str1.4
                0x00000000       0x25 CMakeFiles/AHT20.dir/C_/VSARM/sdk/pico/pico-sdk/lib/lwip/src/core/tcp_out.c.obj
 .text.tcp_output_alloc_header
                0x00000000       0x38 CMakeFiles/AHT20.dir/C_/VSARM/sdk/pico/pico-sdk/lib/lwip/src/core/tcp_out.c.obj
 .rodata.tcp_rst_common.str1.4
                0x00000000       0x37 CMakeFiles/AHT20.dir/C_/VSARM/sdk/pico/pico-sdk/lib/lwip/src/core/tcp_out.c.obj
 .text.tcp_rst_common
                0x00000000       0x68 CMakeFiles/AHT20.dir/C_/VSARM/sdk/pico/pico-sdk/lib/lwip/src/core/tcp_out.c.obj
 .text.tcp_route
                0x00000000       0x1a CMakeFiles/AHT20.dir/C_/VSARM/sdk/pico/pico-sdk/lib/lwip/src/core/tcp_out.c.obj
 .rodata.tcp_output_segment.str1.4
                0x00000000       0x62 CMakeFiles/AHT20.dir/C_/VSARM/sdk/pico/pico-sdk/lib/lwip/src/core/tcp_out.c.obj
 .text.tcp_output_segment
                0x00000000      0x164 CMakeFiles/AHT20.dir/C_/VSARM/sdk/pico/pico-sdk/lib/lwip/src/core/tcp_out.c.obj
 .rodata.tcp_output_control_segment_netif.str1.4
                0x00000000       0x31 CMakeFiles/AHT20.dir/C_/VSARM/sdk/pico/pico-sdk/lib/lwip/src/core/tcp_out.c.obj
 .text.tcp_output_control_segment_netif
                0x00000000       0x84 CMakeFiles/AHT20.dir/C_/VSARM/sdk/pico/pico-sdk/lib/lwip/src/core/tcp_out.c.obj
 .rodata.tcp_output_control_segment.str1.4
                0x00000000       0x29 CMakeFiles/AHT20.dir/C_/VSARM/sdk/pico/pico-sdk/lib/lwip/src/core/tcp_out.c.obj
 .text.tcp_output_control_segment
                0x00000000       0x44 CMakeFiles/AHT20.dir/C_/VSARM/sdk/pico/pico-sdk/lib/lwip/src/core/tcp_out.c.obj
 .rodata.tcp_write.str1.4
                0x00000000      0x1a2 CMakeFiles/AHT20.dir/C_/VSARM/sdk/pico/pico-sdk/lib/lwip/src/core/tcp_out.c.obj
 .text.tcp_write
                0x00000000      0x354 CMakeFiles/AHT20.dir/C_/VSARM/sdk/pico/pico-sdk/lib/lwip/src/core/tcp_out.c.obj
 .rodata.tcp_split_unsent_seg.str1.4
                0x00000000       0x74 CMakeFiles/AHT20.dir/C_/VSARM/sdk/pico/pico-sdk/lib/lwip/src/core/tcp_out.c.obj
 .text.tcp_split_unsent_seg
                0x00000000      0x1f4 CMakeFiles/AHT20.dir/C_/VSARM/sdk/pico/pico-sdk/lib/lwip/src/core/tcp_out.c.obj
 .rodata.tcp_enqueue_flags.str1.4
                0x00000000      0x120 CMakeFiles/AHT20.dir/C_/VSARM/sdk/pico/pico-sdk/lib/lwip/src/core/tcp_out.c.obj
 .text.tcp_enqueue_flags
                0x00000000      0x11c CMakeFiles/AHT20.dir/C_/VSARM/sdk/pico/pico-sdk/lib/lwip/src/core/tcp_out.c.obj
 .rodata.tcp_send_fin.str1.4
                0x00000000       0x1a CMakeFiles/AHT20.dir/C_/VSARM/sdk/pico/pico-sdk/lib/lwip/src/core/tcp_out.c.obj
 .text.tcp_send_fin
                0x00000000       0x68 CMakeFiles/AHT20.dir/C_/VSARM/sdk/pico/pico-sdk/lib/lwip/src/core/tcp_out.c.obj
 .rodata.tcp_rexmit_rto_prepare.str1.4
                0x00000000       0x24 CMakeFiles/AHT20.dir/C_/VSARM/sdk/pico/pico-sdk/lib/lwip/src/core/tcp_out.c.obj
 .text.tcp_rexmit_rto_prepare
                0x00000000       0xac CMakeFiles/AHT20.dir/C_/VSARM/sdk/pico/pico-sdk/lib/lwip/src/core/tcp_out.c.obj
 .rodata.tcp_rexmit.str1.4
                0x00000000       0x18 CMakeFiles/AHT20.dir/C_/VSARM/sdk/pico/pico-sdk/lib/lwip/src/core/tcp_out.c.obj
 .text.tcp_rexmit
                0x00000000       0xa4 CMakeFiles/AHT20.dir/C_/VSARM/sdk/pico/pico-sdk/lib/lwip/src/core/tcp_out.c.obj
 .rodata.tcp_rexmit_fast.str1.4
                0x00000000       0x1d CMakeFiles/AHT20.dir/C_/VSARM/sdk/pico/pico-sdk/lib/lwip/src/core/tcp_out.c.obj
 .text.tcp_rexmit_fast
                0x00000000       0x68 CMakeFiles/AHT20.dir/C_/VSARM/sdk/pico/pico-sdk/lib/lwip/src/core/tcp_out.c.obj
 .text.tcp_rst  0x00000000       0x32 CMakeFiles/AHT20.dir/C_/VSARM/sdk/pico/pico-sdk/lib/lwip/src/core/tcp_out.c.obj
 .text.tcp_rst_netif
                0x00000000       0x38 CMakeFiles/AHT20.dir/C_/VSARM/sdk/pico/pico-sdk/lib/lwip/src/core/tcp_out.c.obj
 .rodata.tcp_send_empty_ack.str1.4
                0x00000000       0x20 CMakeFiles/AHT20.dir/C_/VSARM/sdk/pico/pico-sdk/lib/lwip/src/core/tcp_out.c.obj
 .text.tcp_send_empty_ack
                0x00000000       0x64 CMakeFiles/AHT20.dir/C_/VSARM/sdk/pico/pico-sdk/lib/lwip/src/core/tcp_out.c.obj
 .rodata.tcp_output.str1.4
                0x00000000       0x57 CMakeFiles/AHT20.dir/C_/VSARM/sdk/pico/pico-sdk/lib/lwip/src/core/tcp_out.c.obj
 .text.tcp_output
                0x00000000      0x32c CMakeFiles/AHT20.dir/C_/VSARM/sdk/pico/pico-sdk/lib/lwip/src/core/tcp_out.c.obj
 .rodata.tcp_rexmit_rto_commit.str1.4
                0x00000000       0x23 CMakeFiles/AHT20.dir/C_/VSARM/sdk/pico/pico-sdk/lib/lwip/src/core/tcp_out.c.obj
 .text.tcp_rexmit_rto_commit
                0x00000000       0x24 CMakeFiles/AHT20.dir/C_/VSARM/sdk/pico/pico-sdk/lib/lwip/src/core/tcp_out.c.obj
 .rodata.tcp_rexmit_rto.str1.4
                0x00000000       0x1c CMakeFiles/AHT20.dir/C_/VSARM/sdk/pico/pico-sdk/lib/lwip/src/core/tcp_out.c.obj
 .text.tcp_rexmit_rto
                0x00000000       0x24 CMakeFiles/AHT20.dir/C_/VSARM/sdk/pico/pico-sdk/lib/lwip/src/core/tcp_out.c.obj
 .rodata.tcp_keepalive.str1.4
                0x00000000       0x1b CMakeFiles/AHT20.dir/C_/VSARM/sdk/pico/pico-sdk/lib/lwip/src/core/tcp_out.c.obj
 .text.tcp_keepalive
                0x00000000       0x48 CMakeFiles/AHT20.dir/C_/VSARM/sdk/pico/pico-sdk/lib/lwip/src/core/tcp_out.c.obj
 .rodata.tcp_zero_window_probe.str1.4
                0x00000000       0x23 CMakeFiles/AHT20.dir/C_/VSARM/sdk/pico/pico-sdk/lib/lwip/src/core/tcp_out.c.obj
 .text.tcp_zero_window_probe
                0x00000000      0x10c CMakeFiles/AHT20.dir/C_/VSARM/sdk/pico/pico-sdk/lib/lwip/src/core/tcp_out.c.obj
 .debug_info    0x00000000     0x2d9f CMakeFiles/AHT20.dir/C_/VSARM/sdk/pico/pico-sdk/lib/lwip/src/core/tcp_out.c.obj
 .debug_abbrev  0x00000000      0x3bc CMakeFiles/AHT20.dir/C_/VSARM/sdk/pico/pico-sdk/lib/lwip/src/core/tcp_out.c.obj
 .debug_loclists
                0x00000000     0x1e6a CMakeFiles/AHT20.dir/C_/VSARM/sdk/pico/pico-sdk/lib/lwip/src/core/tcp_out.c.obj
 .debug_aranges
                0x00000000       0xf0 CMakeFiles/AHT20.dir/C_/VSARM/sdk/pico/pico-sdk/lib/lwip/src/core/tcp_out.c.obj
 .debug_rnglists
                0x00000000       0xf6 CMakeFiles/AHT20.dir/C_/VSARM/sdk/pico/pico-sdk/lib/lwip/src/core/tcp_out.c.obj
 .debug_line    0x00000000     0x219c CMakeFiles/AHT20.dir/C_/VSARM/sdk/pico/pico-sdk/lib/lwip/src/core/tcp_out.c.obj
 .debug_str     0x00000000      0xd0d CMakeFiles/AHT20.dir/C_/VSARM/sdk/pico/pico-sdk/lib/lwip/src/core/tcp_out.c.obj
 .comment       0x00000000       0x46 CMakeFiles/AHT20.dir/C_/VSARM/sdk/pico/pico-sdk/lib/lwip/src/core/tcp_out.c.obj
 .debug_frame   0x00000000      0x36c CMakeFiles/AHT20.dir/C_/VSARM/sdk/pico/pico-sdk/lib/lwip/src/core/tcp_out.c.obj
 .ARM.attributes
                0x00000000       0x2c CMakeFiles/AHT20.dir/C_/VSARM/sdk/pico/pico-sdk/lib/lwip/src/core/tcp_out.c.obj
 .text          0x00000000        0x0 CMakeFiles/AHT20.dir/C_/VSARM/sdk/pico/pico-sdk/lib/lwip/src/core/timeouts.c.obj
 .data          0x00000000        0x0 CMakeFiles/AHT20.dir/C_/VSARM/sdk/pico/pico-sdk/lib/lwip/src/core/timeouts.c.obj
 .bss           0x00000000        0x0 CMakeFiles/AHT20.dir/C_/VSARM/sdk/pico/pico-sdk/lib/lwip/src/core/timeouts.c.obj
 .rodata.sys_timeout_abs.str1.4
                0x00000000       0x3d CMakeFiles/AHT20.dir/C_/VSARM/sdk/pico/pico-sdk/lib/lwip/src/core/timeouts.c.obj
 .text.sys_timeout_abs
                0x00000000       0x60 CMakeFiles/AHT20.dir/C_/VSARM/sdk/pico/pico-sdk/lib/lwip/src/core/timeouts.c.obj
 .text.lwip_cyclic_timer
                0x00000000       0x38 CMakeFiles/AHT20.dir/C_/VSARM/sdk/pico/pico-sdk/lib/lwip/src/core/timeouts.c.obj
 .rodata.sys_timeout.str1.4
                0x00000000       0x36 CMakeFiles/AHT20.dir/C_/VSARM/sdk/pico/pico-sdk/lib/lwip/src/core/timeouts.c.obj
 .text.sys_timeout
                0x00000000       0x2c CMakeFiles/AHT20.dir/C_/VSARM/sdk/pico/pico-sdk/lib/lwip/src/core/timeouts.c.obj
 .text.tcp_timer_needed
                0x00000000       0x40 CMakeFiles/AHT20.dir/C_/VSARM/sdk/pico/pico-sdk/lib/lwip/src/core/timeouts.c.obj
 .text.tcpip_tcp_timer
                0x00000000       0x3c CMakeFiles/AHT20.dir/C_/VSARM/sdk/pico/pico-sdk/lib/lwip/src/core/timeouts.c.obj
 .text.sys_timeouts_init
                0x00000000       0x24 CMakeFiles/AHT20.dir/C_/VSARM/sdk/pico/pico-sdk/lib/lwip/src/core/timeouts.c.obj
 .text.sys_untimeout
                0x00000000       0x40 CMakeFiles/AHT20.dir/C_/VSARM/sdk/pico/pico-sdk/lib/lwip/src/core/timeouts.c.obj
 .text.sys_check_timeouts
                0x00000000       0x54 CMakeFiles/AHT20.dir/C_/VSARM/sdk/pico/pico-sdk/lib/lwip/src/core/timeouts.c.obj
 .text.sys_restart_timeouts
                0x00000000       0x2c CMakeFiles/AHT20.dir/C_/VSARM/sdk/pico/pico-sdk/lib/lwip/src/core/timeouts.c.obj
 .rodata.sys_timeouts_sleeptime.str1.4
                0x00000000       0x12 CMakeFiles/AHT20.dir/C_/VSARM/sdk/pico/pico-sdk/lib/lwip/src/core/timeouts.c.obj
 .text.sys_timeouts_sleeptime
                0x00000000       0x34 CMakeFiles/AHT20.dir/C_/VSARM/sdk/pico/pico-sdk/lib/lwip/src/core/timeouts.c.obj
 .bss.tcpip_tcp_timer_active
                0x00000000        0x4 CMakeFiles/AHT20.dir/C_/VSARM/sdk/pico/pico-sdk/lib/lwip/src/core/timeouts.c.obj
 .bss.current_timeout_due_time
                0x00000000        0x4 CMakeFiles/AHT20.dir/C_/VSARM/sdk/pico/pico-sdk/lib/lwip/src/core/timeouts.c.obj
 .bss.next_timeout
                0x00000000        0x4 CMakeFiles/AHT20.dir/C_/VSARM/sdk/pico/pico-sdk/lib/lwip/src/core/timeouts.c.obj
 .rodata.lwip_num_cyclic_timers
                0x00000000        0x4 CMakeFiles/AHT20.dir/C_/VSARM/sdk/pico/pico-sdk/lib/lwip/src/core/timeouts.c.obj
 .rodata.lwip_cyclic_timers
                0x00000000       0x30 CMakeFiles/AHT20.dir/C_/VSARM/sdk/pico/pico-sdk/lib/lwip/src/core/timeouts.c.obj
 .debug_info    0x00000000      0xf11 CMakeFiles/AHT20.dir/C_/VSARM/sdk/pico/pico-sdk/lib/lwip/src/core/timeouts.c.obj
 .debug_abbrev  0x00000000      0x383 CMakeFiles/AHT20.dir/C_/VSARM/sdk/pico/pico-sdk/lib/lwip/src/core/timeouts.c.obj
 .debug_loclists
                0x00000000      0x2f5 CMakeFiles/AHT20.dir/C_/VSARM/sdk/pico/pico-sdk/lib/lwip/src/core/timeouts.c.obj
 .debug_aranges
                0x00000000       0x68 CMakeFiles/AHT20.dir/C_/VSARM/sdk/pico/pico-sdk/lib/lwip/src/core/timeouts.c.obj
 .debug_rnglists
                0x00000000       0x61 CMakeFiles/AHT20.dir/C_/VSARM/sdk/pico/pico-sdk/lib/lwip/src/core/timeouts.c.obj
 .debug_line    0x00000000      0x739 CMakeFiles/AHT20.dir/C_/VSARM/sdk/pico/pico-sdk/lib/lwip/src/core/timeouts.c.obj
 .debug_str     0x00000000      0x8f2 CMakeFiles/AHT20.dir/C_/VSARM/sdk/pico/pico-sdk/lib/lwip/src/core/timeouts.c.obj
 .comment       0x00000000       0x46 CMakeFiles/AHT20.dir/C_/VSARM/sdk/pico/pico-sdk/lib/lwip/src/core/timeouts.c.obj
 .debug_frame   0x00000000      0x10c CMakeFiles/AHT20.dir/C_/VSARM/sdk/pico/pico-sdk/lib/lwip/src/core/timeouts.c.obj
 .ARM.attributes
                0x00000000       0x2c CMakeFiles/AHT20.dir/C_/VSARM/sdk/pico/pico-sdk/lib/lwip/src/core/timeouts.c.obj
 .text          0x00000000        0x0 CMakeFiles/AHT20.dir/C_/VSARM/sdk/pico/pico-sdk/lib/lwip/src/core/udp.c.obj
 .data          0x00000000        0x0 CMakeFiles/AHT20.dir/C_/VSARM/sdk/pico/pico-sdk/lib/lwip/src/core/udp.c.obj
 .bss           0x00000000        0x0 CMakeFiles/AHT20.dir/C_/VSARM/sdk/pico/pico-sdk/lib/lwip/src/core/udp.c.obj
 .text.udp_new_port
                0x00000000       0x54 CMakeFiles/AHT20.dir/C_/VSARM/sdk/pico/pico-sdk/lib/lwip/src/core/udp.c.obj
 .rodata.udp_input_local_match.str1.4
                0x00000000       0x49 CMakeFiles/AHT20.dir/C_/VSARM/sdk/pico/pico-sdk/lib/lwip/src/core/udp.c.obj
 .text.udp_input_local_match
                0x00000000       0x90 CMakeFiles/AHT20.dir/C_/VSARM/sdk/pico/pico-sdk/lib/lwip/src/core/udp.c.obj
 .text.udp_init
                0x00000000       0x20 CMakeFiles/AHT20.dir/C_/VSARM/sdk/pico/pico-sdk/lib/lwip/src/core/udp.c.obj
 .rodata.udp_input.str1.4
                0x00000000       0x4e CMakeFiles/AHT20.dir/C_/VSARM/sdk/pico/pico-sdk/lib/lwip/src/core/udp.c.obj
 .text.udp_input
                0x00000000      0x20c CMakeFiles/AHT20.dir/C_/VSARM/sdk/pico/pico-sdk/lib/lwip/src/core/udp.c.obj
 .rodata.udp_bind.str1.4
                0x00000000       0x16 CMakeFiles/AHT20.dir/C_/VSARM/sdk/pico/pico-sdk/lib/lwip/src/core/udp.c.obj
 .text.udp_bind
                0x00000000       0xb0 CMakeFiles/AHT20.dir/C_/VSARM/sdk/pico/pico-sdk/lib/lwip/src/core/udp.c.obj
 .rodata.udp_sendto_if_src.str1.4
                0x00000000       0xda CMakeFiles/AHT20.dir/C_/VSARM/sdk/pico/pico-sdk/lib/lwip/src/core/udp.c.obj
 .text.udp_sendto_if_src
                0x00000000      0x17c CMakeFiles/AHT20.dir/C_/VSARM/sdk/pico/pico-sdk/lib/lwip/src/core/udp.c.obj
 .rodata.udp_sendto_if.str1.4
                0x00000000       0x75 CMakeFiles/AHT20.dir/C_/VSARM/sdk/pico/pico-sdk/lib/lwip/src/core/udp.c.obj
 .text.udp_sendto_if
                0x00000000       0x84 CMakeFiles/AHT20.dir/C_/VSARM/sdk/pico/pico-sdk/lib/lwip/src/core/udp.c.obj
 .rodata.udp_sendto.str1.4
                0x00000000       0x4f CMakeFiles/AHT20.dir/C_/VSARM/sdk/pico/pico-sdk/lib/lwip/src/core/udp.c.obj
 .text.udp_sendto
                0x00000000       0x84 CMakeFiles/AHT20.dir/C_/VSARM/sdk/pico/pico-sdk/lib/lwip/src/core/udp.c.obj
 .rodata.udp_send.str1.4
                0x00000000       0x2f CMakeFiles/AHT20.dir/C_/VSARM/sdk/pico/pico-sdk/lib/lwip/src/core/udp.c.obj
 .text.udp_send
                0x00000000       0x34 CMakeFiles/AHT20.dir/C_/VSARM/sdk/pico/pico-sdk/lib/lwip/src/core/udp.c.obj
 .text.udp_bind_netif
                0x00000000       0x14 CMakeFiles/AHT20.dir/C_/VSARM/sdk/pico/pico-sdk/lib/lwip/src/core/udp.c.obj
 .rodata.udp_connect.str1.4
                0x00000000       0x38 CMakeFiles/AHT20.dir/C_/VSARM/sdk/pico/pico-sdk/lib/lwip/src/core/udp.c.obj
 .text.udp_connect
                0x00000000       0x74 CMakeFiles/AHT20.dir/C_/VSARM/sdk/pico/pico-sdk/lib/lwip/src/core/udp.c.obj
 .rodata.udp_disconnect.str1.4
                0x00000000       0x1c CMakeFiles/AHT20.dir/C_/VSARM/sdk/pico/pico-sdk/lib/lwip/src/core/udp.c.obj
 .text.udp_disconnect
                0x00000000       0x24 CMakeFiles/AHT20.dir/C_/VSARM/sdk/pico/pico-sdk/lib/lwip/src/core/udp.c.obj
 .rodata.udp_recv.str1.4
                0x00000000       0x16 CMakeFiles/AHT20.dir/C_/VSARM/sdk/pico/pico-sdk/lib/lwip/src/core/udp.c.obj
 .text.udp_recv
                0x00000000       0x18 CMakeFiles/AHT20.dir/C_/VSARM/sdk/pico/pico-sdk/lib/lwip/src/core/udp.c.obj
 .rodata.udp_remove.str1.4
                0x00000000       0x18 CMakeFiles/AHT20.dir/C_/VSARM/sdk/pico/pico-sdk/lib/lwip/src/core/udp.c.obj
 .text.udp_remove
                0x00000000       0x44 CMakeFiles/AHT20.dir/C_/VSARM/sdk/pico/pico-sdk/lib/lwip/src/core/udp.c.obj
 .text.udp_new  0x00000000       0x1c CMakeFiles/AHT20.dir/C_/VSARM/sdk/pico/pico-sdk/lib/lwip/src/core/udp.c.obj
 .text.udp_new_ip_type
                0x00000000        0x8 CMakeFiles/AHT20.dir/C_/VSARM/sdk/pico/pico-sdk/lib/lwip/src/core/udp.c.obj
 .text.udp_netif_ip_addr_changed
                0x00000000       0x38 CMakeFiles/AHT20.dir/C_/VSARM/sdk/pico/pico-sdk/lib/lwip/src/core/udp.c.obj
 .bss.udp_pcbs  0x00000000        0x4 CMakeFiles/AHT20.dir/C_/VSARM/sdk/pico/pico-sdk/lib/lwip/src/core/udp.c.obj
 .data.udp_port
                0x00000000        0x2 CMakeFiles/AHT20.dir/C_/VSARM/sdk/pico/pico-sdk/lib/lwip/src/core/udp.c.obj
 .debug_info    0x00000000     0x16f1 CMakeFiles/AHT20.dir/C_/VSARM/sdk/pico/pico-sdk/lib/lwip/src/core/udp.c.obj
 .debug_abbrev  0x00000000      0x3c6 CMakeFiles/AHT20.dir/C_/VSARM/sdk/pico/pico-sdk/lib/lwip/src/core/udp.c.obj
 .debug_loclists
                0x00000000      0xccc CMakeFiles/AHT20.dir/C_/VSARM/sdk/pico/pico-sdk/lib/lwip/src/core/udp.c.obj
 .debug_aranges
                0x00000000       0xa0 CMakeFiles/AHT20.dir/C_/VSARM/sdk/pico/pico-sdk/lib/lwip/src/core/udp.c.obj
 .debug_rnglists
                0x00000000       0x79 CMakeFiles/AHT20.dir/C_/VSARM/sdk/pico/pico-sdk/lib/lwip/src/core/udp.c.obj
 .debug_line    0x00000000     0x1244 CMakeFiles/AHT20.dir/C_/VSARM/sdk/pico/pico-sdk/lib/lwip/src/core/udp.c.obj
 .debug_str     0x00000000      0xa2e CMakeFiles/AHT20.dir/C_/VSARM/sdk/pico/pico-sdk/lib/lwip/src/core/udp.c.obj
 .comment       0x00000000       0x46 CMakeFiles/AHT20.dir/C_/VSARM/sdk/pico/pico-sdk/lib/lwip/src/core/udp.c.obj
 .debug_frame   0x00000000      0x1dc CMakeFiles/AHT20.dir/C_/VSARM/sdk/pico/pico-sdk/lib/lwip/src/core/udp.c.obj
 .ARM.attributes
                0x00000000       0x2c CMakeFiles/AHT20.dir/C_/VSARM/sdk/pico/pico-sdk/lib/lwip/src/core/udp.c.obj
 .text          0x00000000        0x0 CMakeFiles/AHT20.dir/C_/VSARM/sdk/pico/pico-sdk/lib/lwip/src/core/ipv4/autoip.c.obj
 .data          0x00000000        0x0 CMakeFiles/AHT20.dir/C_/VSARM/sdk/pico/pico-sdk/lib/lwip/src/core/ipv4/autoip.c.obj
 .bss           0x00000000        0x0 CMakeFiles/AHT20.dir/C_/VSARM/sdk/pico/pico-sdk/lib/lwip/src/core/ipv4/autoip.c.obj
 .debug_info    0x00000000       0x73 CMakeFiles/AHT20.dir/C_/VSARM/sdk/pico/pico-sdk/lib/lwip/src/core/ipv4/autoip.c.obj
 .debug_abbrev  0x00000000       0x26 CMakeFiles/AHT20.dir/C_/VSARM/sdk/pico/pico-sdk/lib/lwip/src/core/ipv4/autoip.c.obj
 .debug_aranges
                0x00000000       0x18 CMakeFiles/AHT20.dir/C_/VSARM/sdk/pico/pico-sdk/lib/lwip/src/core/ipv4/autoip.c.obj
 .debug_line    0x00000000       0x5b CMakeFiles/AHT20.dir/C_/VSARM/sdk/pico/pico-sdk/lib/lwip/src/core/ipv4/autoip.c.obj
 .debug_str     0x00000000      0x185 CMakeFiles/AHT20.dir/C_/VSARM/sdk/pico/pico-sdk/lib/lwip/src/core/ipv4/autoip.c.obj
 .comment       0x00000000       0x46 CMakeFiles/AHT20.dir/C_/VSARM/sdk/pico/pico-sdk/lib/lwip/src/core/ipv4/autoip.c.obj
 .ARM.attributes
                0x00000000       0x2c CMakeFiles/AHT20.dir/C_/VSARM/sdk/pico/pico-sdk/lib/lwip/src/core/ipv4/autoip.c.obj
 .text          0x00000000        0x0 CMakeFiles/AHT20.dir/C_/VSARM/sdk/pico/pico-sdk/lib/lwip/src/core/ipv4/dhcp.c.obj
 .data          0x00000000        0x0 CMakeFiles/AHT20.dir/C_/VSARM/sdk/pico/pico-sdk/lib/lwip/src/core/ipv4/dhcp.c.obj
 .bss           0x00000000        0x0 CMakeFiles/AHT20.dir/C_/VSARM/sdk/pico/pico-sdk/lib/lwip/src/core/ipv4/dhcp.c.obj
 .text.dhcp_set_state
                0x00000000       0x10 CMakeFiles/AHT20.dir/C_/VSARM/sdk/pico/pico-sdk/lib/lwip/src/core/ipv4/dhcp.c.obj
 .rodata.dhcp_option_short.str1.4
                0x00000000       0x3b CMakeFiles/AHT20.dir/C_/VSARM/sdk/pico/pico-sdk/lib/lwip/src/core/ipv4/dhcp.c.obj
 .text.dhcp_option_short
                0x00000000       0x24 CMakeFiles/AHT20.dir/C_/VSARM/sdk/pico/pico-sdk/lib/lwip/src/core/ipv4/dhcp.c.obj
 .rodata.dhcp_option.str1.4
                0x00000000       0x42 CMakeFiles/AHT20.dir/C_/VSARM/sdk/pico/pico-sdk/lib/lwip/src/core/ipv4/dhcp.c.obj
 .text.dhcp_option
                0x00000000       0x24 CMakeFiles/AHT20.dir/C_/VSARM/sdk/pico/pico-sdk/lib/lwip/src/core/ipv4/dhcp.c.obj
 .rodata.dhcp_option_byte.str1.4
                0x00000000       0x35 CMakeFiles/AHT20.dir/C_/VSARM/sdk/pico/pico-sdk/lib/lwip/src/core/ipv4/dhcp.c.obj
 .text.dhcp_option_byte
                0x00000000       0x1c CMakeFiles/AHT20.dir/C_/VSARM/sdk/pico/pico-sdk/lib/lwip/src/core/ipv4/dhcp.c.obj
 .rodata.dhcp_option_long.str1.4
                0x00000000       0x3a CMakeFiles/AHT20.dir/C_/VSARM/sdk/pico/pico-sdk/lib/lwip/src/core/ipv4/dhcp.c.obj
 .text.dhcp_option_long
                0x00000000       0x34 CMakeFiles/AHT20.dir/C_/VSARM/sdk/pico/pico-sdk/lib/lwip/src/core/ipv4/dhcp.c.obj
 .rodata.dhcp_create_msg.str1.4
                0x00000000       0x80 CMakeFiles/AHT20.dir/C_/VSARM/sdk/pico/pico-sdk/lib/lwip/src/core/ipv4/dhcp.c.obj
 .text.dhcp_create_msg
                0x00000000      0x138 CMakeFiles/AHT20.dir/C_/VSARM/sdk/pico/pico-sdk/lib/lwip/src/core/ipv4/dhcp.c.obj
 .rodata.dhcp_option_hostname.str1.4
                0x00000000       0x1c CMakeFiles/AHT20.dir/C_/VSARM/sdk/pico/pico-sdk/lib/lwip/src/core/ipv4/dhcp.c.obj
 .text.dhcp_option_hostname
                0x00000000       0x70 CMakeFiles/AHT20.dir/C_/VSARM/sdk/pico/pico-sdk/lib/lwip/src/core/ipv4/dhcp.c.obj
 .text.dhcp_option_trailer
                0x00000000       0x28 CMakeFiles/AHT20.dir/C_/VSARM/sdk/pico/pico-sdk/lib/lwip/src/core/ipv4/dhcp.c.obj
 .text.dhcp_rebind
                0x00000000       0xfc CMakeFiles/AHT20.dir/C_/VSARM/sdk/pico/pico-sdk/lib/lwip/src/core/ipv4/dhcp.c.obj
 .text.dhcp_t2_timeout
                0x00000000       0x2e CMakeFiles/AHT20.dir/C_/VSARM/sdk/pico/pico-sdk/lib/lwip/src/core/ipv4/dhcp.c.obj
 .text.dhcp_reboot
                0x00000000      0x120 CMakeFiles/AHT20.dir/C_/VSARM/sdk/pico/pico-sdk/lib/lwip/src/core/ipv4/dhcp.c.obj
 .rodata.dhcp_select.str1.4
                0x00000000       0x36 CMakeFiles/AHT20.dir/C_/VSARM/sdk/pico/pico-sdk/lib/lwip/src/core/ipv4/dhcp.c.obj
 .text.dhcp_select
                0x00000000      0x16c CMakeFiles/AHT20.dir/C_/VSARM/sdk/pico/pico-sdk/lib/lwip/src/core/ipv4/dhcp.c.obj
 .text.dhcp_handle_offer
                0x00000000       0x48 CMakeFiles/AHT20.dir/C_/VSARM/sdk/pico/pico-sdk/lib/lwip/src/core/ipv4/dhcp.c.obj
 .text.dhcp_discover
                0x00000000       0xf4 CMakeFiles/AHT20.dir/C_/VSARM/sdk/pico/pico-sdk/lib/lwip/src/core/ipv4/dhcp.c.obj
 .rodata.dhcp_dec_pcb_refcount.str1.4
                0x00000000       0x24 CMakeFiles/AHT20.dir/C_/VSARM/sdk/pico/pico-sdk/lib/lwip/src/core/ipv4/dhcp.c.obj
 .text.dhcp_dec_pcb_refcount
                0x00000000       0x38 CMakeFiles/AHT20.dir/C_/VSARM/sdk/pico/pico-sdk/lib/lwip/src/core/ipv4/dhcp.c.obj
 .rodata.dhcp_inc_pcb_refcount.str1.4
                0x00000000       0x25 CMakeFiles/AHT20.dir/C_/VSARM/sdk/pico/pico-sdk/lib/lwip/src/core/ipv4/dhcp.c.obj
 .text.dhcp_inc_pcb_refcount
                0x00000000       0x74 CMakeFiles/AHT20.dir/C_/VSARM/sdk/pico/pico-sdk/lib/lwip/src/core/ipv4/dhcp.c.obj
 .rodata.dhcp_parse_reply.str1.4
                0x00000000       0x11 CMakeFiles/AHT20.dir/C_/VSARM/sdk/pico/pico-sdk/lib/lwip/src/core/ipv4/dhcp.c.obj
 .text.dhcp_parse_reply
                0x00000000      0x2f4 CMakeFiles/AHT20.dir/C_/VSARM/sdk/pico/pico-sdk/lib/lwip/src/core/ipv4/dhcp.c.obj
 .rodata.dhcp_parse_reply
                0x00000000       0xf0 CMakeFiles/AHT20.dir/C_/VSARM/sdk/pico/pico-sdk/lib/lwip/src/core/ipv4/dhcp.c.obj
 .text.dhcp_handle_ack
                0x00000000       0xd0 CMakeFiles/AHT20.dir/C_/VSARM/sdk/pico/pico-sdk/lib/lwip/src/core/ipv4/dhcp.c.obj
 .rodata.dhcp_bind.str1.4
                0x00000000       0x34 CMakeFiles/AHT20.dir/C_/VSARM/sdk/pico/pico-sdk/lib/lwip/src/core/ipv4/dhcp.c.obj
 .text.dhcp_bind
                0x00000000      0x104 CMakeFiles/AHT20.dir/C_/VSARM/sdk/pico/pico-sdk/lib/lwip/src/core/ipv4/dhcp.c.obj
 .text.dhcp_handle_nak
                0x00000000       0x24 CMakeFiles/AHT20.dir/C_/VSARM/sdk/pico/pico-sdk/lib/lwip/src/core/ipv4/dhcp.c.obj
 .text.dhcp_recv
                0x00000000       0xf4 CMakeFiles/AHT20.dir/C_/VSARM/sdk/pico/pico-sdk/lib/lwip/src/core/ipv4/dhcp.c.obj
 .rodata.dhcp_set_struct.str1.4
                0x00000000       0x44 CMakeFiles/AHT20.dir/C_/VSARM/sdk/pico/pico-sdk/lib/lwip/src/core/ipv4/dhcp.c.obj
 .text.dhcp_set_struct
                0x00000000       0x44 CMakeFiles/AHT20.dir/C_/VSARM/sdk/pico/pico-sdk/lib/lwip/src/core/ipv4/dhcp.c.obj
 .text.dhcp_cleanup
                0x00000000       0x28 CMakeFiles/AHT20.dir/C_/VSARM/sdk/pico/pico-sdk/lib/lwip/src/core/ipv4/dhcp.c.obj
 .text.dhcp_inform
                0x00000000       0x90 CMakeFiles/AHT20.dir/C_/VSARM/sdk/pico/pico-sdk/lib/lwip/src/core/ipv4/dhcp.c.obj
 .rodata.dhcp_network_changed_link_up.str1.4
                0x00000000       0x14 CMakeFiles/AHT20.dir/C_/VSARM/sdk/pico/pico-sdk/lib/lwip/src/core/ipv4/dhcp.c.obj
 .text.dhcp_network_changed_link_up
                0x00000000       0x40 CMakeFiles/AHT20.dir/C_/VSARM/sdk/pico/pico-sdk/lib/lwip/src/core/ipv4/dhcp.c.obj
 .text.dhcp_renew
                0x00000000       0xf8 CMakeFiles/AHT20.dir/C_/VSARM/sdk/pico/pico-sdk/lib/lwip/src/core/ipv4/dhcp.c.obj
 .text.dhcp_t1_timeout
                0x00000000       0x2a CMakeFiles/AHT20.dir/C_/VSARM/sdk/pico/pico-sdk/lib/lwip/src/core/ipv4/dhcp.c.obj
 .text.dhcp_supplied_address
                0x00000000       0x32 CMakeFiles/AHT20.dir/C_/VSARM/sdk/pico/pico-sdk/lib/lwip/src/core/ipv4/dhcp.c.obj
 .text.dhcp_release_and_stop
                0x00000000       0xdc CMakeFiles/AHT20.dir/C_/VSARM/sdk/pico/pico-sdk/lib/lwip/src/core/ipv4/dhcp.c.obj
 .rodata.dhcp_start.str1.4
                0x00000000       0x21 CMakeFiles/AHT20.dir/C_/VSARM/sdk/pico/pico-sdk/lib/lwip/src/core/ipv4/dhcp.c.obj
 .text.dhcp_start
                0x00000000       0xac CMakeFiles/AHT20.dir/C_/VSARM/sdk/pico/pico-sdk/lib/lwip/src/core/ipv4/dhcp.c.obj
 .text.dhcp_coarse_tmr
                0x00000000       0x6c CMakeFiles/AHT20.dir/C_/VSARM/sdk/pico/pico-sdk/lib/lwip/src/core/ipv4/dhcp.c.obj
 .text.dhcp_timeout
                0x00000000       0x4a CMakeFiles/AHT20.dir/C_/VSARM/sdk/pico/pico-sdk/lib/lwip/src/core/ipv4/dhcp.c.obj
 .text.dhcp_fine_tmr
                0x00000000       0x38 CMakeFiles/AHT20.dir/C_/VSARM/sdk/pico/pico-sdk/lib/lwip/src/core/ipv4/dhcp.c.obj
 .text.dhcp_release
                0x00000000        0xa CMakeFiles/AHT20.dir/C_/VSARM/sdk/pico/pico-sdk/lib/lwip/src/core/ipv4/dhcp.c.obj
 .text.dhcp_stop
                0x00000000        0x8 CMakeFiles/AHT20.dir/C_/VSARM/sdk/pico/pico-sdk/lib/lwip/src/core/ipv4/dhcp.c.obj
 .bss.xid.0     0x00000000        0x4 CMakeFiles/AHT20.dir/C_/VSARM/sdk/pico/pico-sdk/lib/lwip/src/core/ipv4/dhcp.c.obj
 .bss.dhcp_pcb_refcount
                0x00000000        0x1 CMakeFiles/AHT20.dir/C_/VSARM/sdk/pico/pico-sdk/lib/lwip/src/core/ipv4/dhcp.c.obj
 .bss.dhcp_pcb  0x00000000        0x4 CMakeFiles/AHT20.dir/C_/VSARM/sdk/pico/pico-sdk/lib/lwip/src/core/ipv4/dhcp.c.obj
 .rodata.dhcp_discover_request_options
                0x00000000        0x4 CMakeFiles/AHT20.dir/C_/VSARM/sdk/pico/pico-sdk/lib/lwip/src/core/ipv4/dhcp.c.obj
 .bss.dhcp_rx_options_given
                0x00000000        0xa CMakeFiles/AHT20.dir/C_/VSARM/sdk/pico/pico-sdk/lib/lwip/src/core/ipv4/dhcp.c.obj
 .bss.dhcp_rx_options_val
                0x00000000       0x28 CMakeFiles/AHT20.dir/C_/VSARM/sdk/pico/pico-sdk/lib/lwip/src/core/ipv4/dhcp.c.obj
 .debug_info    0x00000000     0x2cc4 CMakeFiles/AHT20.dir/C_/VSARM/sdk/pico/pico-sdk/lib/lwip/src/core/ipv4/dhcp.c.obj
 .debug_abbrev  0x00000000      0x3b2 CMakeFiles/AHT20.dir/C_/VSARM/sdk/pico/pico-sdk/lib/lwip/src/core/ipv4/dhcp.c.obj
 .debug_loclists
                0x00000000     0x15af CMakeFiles/AHT20.dir/C_/VSARM/sdk/pico/pico-sdk/lib/lwip/src/core/ipv4/dhcp.c.obj
 .debug_aranges
                0x00000000      0x130 CMakeFiles/AHT20.dir/C_/VSARM/sdk/pico/pico-sdk/lib/lwip/src/core/ipv4/dhcp.c.obj
 .debug_rnglists
                0x00000000      0x14d CMakeFiles/AHT20.dir/C_/VSARM/sdk/pico/pico-sdk/lib/lwip/src/core/ipv4/dhcp.c.obj
 .debug_line    0x00000000     0x22ca CMakeFiles/AHT20.dir/C_/VSARM/sdk/pico/pico-sdk/lib/lwip/src/core/ipv4/dhcp.c.obj
 .debug_str     0x00000000     0x10bd CMakeFiles/AHT20.dir/C_/VSARM/sdk/pico/pico-sdk/lib/lwip/src/core/ipv4/dhcp.c.obj
 .comment       0x00000000       0x46 CMakeFiles/AHT20.dir/C_/VSARM/sdk/pico/pico-sdk/lib/lwip/src/core/ipv4/dhcp.c.obj
 .debug_frame   0x00000000      0x408 CMakeFiles/AHT20.dir/C_/VSARM/sdk/pico/pico-sdk/lib/lwip/src/core/ipv4/dhcp.c.obj
 .ARM.attributes
                0x00000000       0x2c CMakeFiles/AHT20.dir/C_/VSARM/sdk/pico/pico-sdk/lib/lwip/src/core/ipv4/dhcp.c.obj
 .text          0x00000000        0x0 CMakeFiles/AHT20.dir/C_/VSARM/sdk/pico/pico-sdk/lib/lwip/src/core/ipv4/etharp.c.obj
 .data          0x00000000        0x0 CMakeFiles/AHT20.dir/C_/VSARM/sdk/pico/pico-sdk/lib/lwip/src/core/ipv4/etharp.c.obj
 .bss           0x00000000        0x0 CMakeFiles/AHT20.dir/C_/VSARM/sdk/pico/pico-sdk/lib/lwip/src/core/ipv4/etharp.c.obj
 .text.etharp_free_entry
                0x00000000       0x4c CMakeFiles/AHT20.dir/C_/VSARM/sdk/pico/pico-sdk/lib/lwip/src/core/ipv4/etharp.c.obj
 .rodata.etharp_find_entry.str1.4
                0x00000000       0x55 CMakeFiles/AHT20.dir/C_/VSARM/sdk/pico/pico-sdk/lib/lwip/src/core/ipv4/etharp.c.obj
 .text.etharp_find_entry
                0x00000000      0x1a8 CMakeFiles/AHT20.dir/C_/VSARM/sdk/pico/pico-sdk/lib/lwip/src/core/ipv4/etharp.c.obj
 .rodata.etharp_update_arp_entry.str1.4
                0x00000000       0x24 CMakeFiles/AHT20.dir/C_/VSARM/sdk/pico/pico-sdk/lib/lwip/src/core/ipv4/etharp.c.obj
 .text.etharp_update_arp_entry
                0x00000000       0xc8 CMakeFiles/AHT20.dir/C_/VSARM/sdk/pico/pico-sdk/lib/lwip/src/core/ipv4/etharp.c.obj
 .rodata.etharp_raw.str1.4
                0x00000000       0x85 CMakeFiles/AHT20.dir/C_/VSARM/sdk/pico/pico-sdk/lib/lwip/src/core/ipv4/etharp.c.obj
 .text.etharp_raw
                0x00000000       0xf0 CMakeFiles/AHT20.dir/C_/VSARM/sdk/pico/pico-sdk/lib/lwip/src/core/ipv4/etharp.c.obj
 .text.etharp_request_dst
                0x00000000       0x24 CMakeFiles/AHT20.dir/C_/VSARM/sdk/pico/pico-sdk/lib/lwip/src/core/ipv4/etharp.c.obj
 .text.etharp_cleanup_netif
                0x00000000       0x3c CMakeFiles/AHT20.dir/C_/VSARM/sdk/pico/pico-sdk/lib/lwip/src/core/ipv4/etharp.c.obj
 .rodata.etharp_find_addr.str1.4
                0x00000000       0x22 CMakeFiles/AHT20.dir/C_/VSARM/sdk/pico/pico-sdk/lib/lwip/src/core/ipv4/etharp.c.obj
 .text.etharp_find_addr
                0x00000000       0x5c CMakeFiles/AHT20.dir/C_/VSARM/sdk/pico/pico-sdk/lib/lwip/src/core/ipv4/etharp.c.obj
 .rodata.etharp_get_entry.str1.4
                0x00000000       0x20 CMakeFiles/AHT20.dir/C_/VSARM/sdk/pico/pico-sdk/lib/lwip/src/core/ipv4/etharp.c.obj
 .text.etharp_get_entry
                0x00000000       0x70 CMakeFiles/AHT20.dir/C_/VSARM/sdk/pico/pico-sdk/lib/lwip/src/core/ipv4/etharp.c.obj
 .text.etharp_input
                0x00000000      0x120 CMakeFiles/AHT20.dir/C_/VSARM/sdk/pico/pico-sdk/lib/lwip/src/core/ipv4/etharp.c.obj
 .text.etharp_request
                0x00000000       0x10 CMakeFiles/AHT20.dir/C_/VSARM/sdk/pico/pico-sdk/lib/lwip/src/core/ipv4/etharp.c.obj
 .text.etharp_tmr
                0x00000000       0x8c CMakeFiles/AHT20.dir/C_/VSARM/sdk/pico/pico-sdk/lib/lwip/src/core/ipv4/etharp.c.obj
 .rodata.etharp_output_to_arp_index.str1.4
                0x00000000       0x30 CMakeFiles/AHT20.dir/C_/VSARM/sdk/pico/pico-sdk/lib/lwip/src/core/ipv4/etharp.c.obj
 .text.etharp_output_to_arp_index
                0x00000000       0xc0 CMakeFiles/AHT20.dir/C_/VSARM/sdk/pico/pico-sdk/lib/lwip/src/core/ipv4/etharp.c.obj
 .rodata.etharp_query.str1.4
                0x00000000       0x52 CMakeFiles/AHT20.dir/C_/VSARM/sdk/pico/pico-sdk/lib/lwip/src/core/ipv4/etharp.c.obj
 .text.etharp_query
                0x00000000      0x1c0 CMakeFiles/AHT20.dir/C_/VSARM/sdk/pico/pico-sdk/lib/lwip/src/core/ipv4/etharp.c.obj
 .rodata.etharp_output.str1.4
                0x00000000        0xa CMakeFiles/AHT20.dir/C_/VSARM/sdk/pico/pico-sdk/lib/lwip/src/core/ipv4/etharp.c.obj
 .text.etharp_output
                0x00000000      0x150 CMakeFiles/AHT20.dir/C_/VSARM/sdk/pico/pico-sdk/lib/lwip/src/core/ipv4/etharp.c.obj
 .bss.etharp_cached_entry
                0x00000000        0x1 CMakeFiles/AHT20.dir/C_/VSARM/sdk/pico/pico-sdk/lib/lwip/src/core/ipv4/etharp.c.obj
 .bss.arp_table
                0x00000000       0xf0 CMakeFiles/AHT20.dir/C_/VSARM/sdk/pico/pico-sdk/lib/lwip/src/core/ipv4/etharp.c.obj
 .debug_info    0x00000000     0x17ed CMakeFiles/AHT20.dir/C_/VSARM/sdk/pico/pico-sdk/lib/lwip/src/core/ipv4/etharp.c.obj
 .debug_abbrev  0x00000000      0x387 CMakeFiles/AHT20.dir/C_/VSARM/sdk/pico/pico-sdk/lib/lwip/src/core/ipv4/etharp.c.obj
 .debug_loclists
                0x00000000      0xe32 CMakeFiles/AHT20.dir/C_/VSARM/sdk/pico/pico-sdk/lib/lwip/src/core/ipv4/etharp.c.obj
 .debug_aranges
                0x00000000       0x88 CMakeFiles/AHT20.dir/C_/VSARM/sdk/pico/pico-sdk/lib/lwip/src/core/ipv4/etharp.c.obj
 .debug_rnglists
                0x00000000       0xa8 CMakeFiles/AHT20.dir/C_/VSARM/sdk/pico/pico-sdk/lib/lwip/src/core/ipv4/etharp.c.obj
 .debug_line    0x00000000     0x10c1 CMakeFiles/AHT20.dir/C_/VSARM/sdk/pico/pico-sdk/lib/lwip/src/core/ipv4/etharp.c.obj
 .debug_str     0x00000000      0xace CMakeFiles/AHT20.dir/C_/VSARM/sdk/pico/pico-sdk/lib/lwip/src/core/ipv4/etharp.c.obj
 .comment       0x00000000       0x46 CMakeFiles/AHT20.dir/C_/VSARM/sdk/pico/pico-sdk/lib/lwip/src/core/ipv4/etharp.c.obj
 .debug_frame   0x00000000      0x1e0 CMakeFiles/AHT20.dir/C_/VSARM/sdk/pico/pico-sdk/lib/lwip/src/core/ipv4/etharp.c.obj
 .ARM.attributes
                0x00000000       0x2c CMakeFiles/AHT20.dir/C_/VSARM/sdk/pico/pico-sdk/lib/lwip/src/core/ipv4/etharp.c.obj
 .text          0x00000000        0x0 CMakeFiles/AHT20.dir/C_/VSARM/sdk/pico/pico-sdk/lib/lwip/src/core/ipv4/icmp.c.obj
 .data          0x00000000        0x0 CMakeFiles/AHT20.dir/C_/VSARM/sdk/pico/pico-sdk/lib/lwip/src/core/ipv4/icmp.c.obj
 .bss           0x00000000        0x0 CMakeFiles/AHT20.dir/C_/VSARM/sdk/pico/pico-sdk/lib/lwip/src/core/ipv4/icmp.c.obj
 .rodata.icmp_send_response.str1.4
                0x00000000       0x2c CMakeFiles/AHT20.dir/C_/VSARM/sdk/pico/pico-sdk/lib/lwip/src/core/ipv4/icmp.c.obj
 .text.icmp_send_response
                0x00000000       0xd4 CMakeFiles/AHT20.dir/C_/VSARM/sdk/pico/pico-sdk/lib/lwip/src/core/ipv4/icmp.c.obj
 .rodata.icmp_input.str1.4
                0x00000000       0x65 CMakeFiles/AHT20.dir/C_/VSARM/sdk/pico/pico-sdk/lib/lwip/src/core/ipv4/icmp.c.obj
 .text.icmp_input
                0x00000000      0x200 CMakeFiles/AHT20.dir/C_/VSARM/sdk/pico/pico-sdk/lib/lwip/src/core/ipv4/icmp.c.obj
 .text.icmp_dest_unreach
                0x00000000        0xc CMakeFiles/AHT20.dir/C_/VSARM/sdk/pico/pico-sdk/lib/lwip/src/core/ipv4/icmp.c.obj
 .text.icmp_time_exceeded
                0x00000000        0xc CMakeFiles/AHT20.dir/C_/VSARM/sdk/pico/pico-sdk/lib/lwip/src/core/ipv4/icmp.c.obj
 .debug_info    0x00000000      0xe71 CMakeFiles/AHT20.dir/C_/VSARM/sdk/pico/pico-sdk/lib/lwip/src/core/ipv4/icmp.c.obj
 .debug_abbrev  0x00000000      0x30a CMakeFiles/AHT20.dir/C_/VSARM/sdk/pico/pico-sdk/lib/lwip/src/core/ipv4/icmp.c.obj
 .debug_loclists
                0x00000000      0x2ad CMakeFiles/AHT20.dir/C_/VSARM/sdk/pico/pico-sdk/lib/lwip/src/core/ipv4/icmp.c.obj
 .debug_aranges
                0x00000000       0x38 CMakeFiles/AHT20.dir/C_/VSARM/sdk/pico/pico-sdk/lib/lwip/src/core/ipv4/icmp.c.obj
 .debug_rnglists
                0x00000000       0x46 CMakeFiles/AHT20.dir/C_/VSARM/sdk/pico/pico-sdk/lib/lwip/src/core/ipv4/icmp.c.obj
 .debug_line    0x00000000      0x6bd CMakeFiles/AHT20.dir/C_/VSARM/sdk/pico/pico-sdk/lib/lwip/src/core/ipv4/icmp.c.obj
 .debug_str     0x00000000      0x79c CMakeFiles/AHT20.dir/C_/VSARM/sdk/pico/pico-sdk/lib/lwip/src/core/ipv4/icmp.c.obj
 .comment       0x00000000       0x46 CMakeFiles/AHT20.dir/C_/VSARM/sdk/pico/pico-sdk/lib/lwip/src/core/ipv4/icmp.c.obj
 .debug_frame   0x00000000       0x94 CMakeFiles/AHT20.dir/C_/VSARM/sdk/pico/pico-sdk/lib/lwip/src/core/ipv4/icmp.c.obj
 .ARM.attributes
                0x00000000       0x2c CMakeFiles/AHT20.dir/C_/VSARM/sdk/pico/pico-sdk/lib/lwip/src/core/ipv4/icmp.c.obj
 .text          0x00000000        0x0 CMakeFiles/AHT20.dir/C_/VSARM/sdk/pico/pico-sdk/lib/lwip/src/core/ipv4/igmp.c.obj
 .data          0x00000000        0x0 CMakeFiles/AHT20.dir/C_/VSARM/sdk/pico/pico-sdk/lib/lwip/src/core/ipv4/igmp.c.obj
 .bss           0x00000000        0x0 CMakeFiles/AHT20.dir/C_/VSARM/sdk/pico/pico-sdk/lib/lwip/src/core/ipv4/igmp.c.obj
 .debug_info    0x00000000       0x73 CMakeFiles/AHT20.dir/C_/VSARM/sdk/pico/pico-sdk/lib/lwip/src/core/ipv4/igmp.c.obj
 .debug_abbrev  0x00000000       0x26 CMakeFiles/AHT20.dir/C_/VSARM/sdk/pico/pico-sdk/lib/lwip/src/core/ipv4/igmp.c.obj
 .debug_aranges
                0x00000000       0x18 CMakeFiles/AHT20.dir/C_/VSARM/sdk/pico/pico-sdk/lib/lwip/src/core/ipv4/igmp.c.obj
 .debug_line    0x00000000       0x59 CMakeFiles/AHT20.dir/C_/VSARM/sdk/pico/pico-sdk/lib/lwip/src/core/ipv4/igmp.c.obj
 .debug_str     0x00000000      0x183 CMakeFiles/AHT20.dir/C_/VSARM/sdk/pico/pico-sdk/lib/lwip/src/core/ipv4/igmp.c.obj
 .comment       0x00000000       0x46 CMakeFiles/AHT20.dir/C_/VSARM/sdk/pico/pico-sdk/lib/lwip/src/core/ipv4/igmp.c.obj
 .ARM.attributes
                0x00000000       0x2c CMakeFiles/AHT20.dir/C_/VSARM/sdk/pico/pico-sdk/lib/lwip/src/core/ipv4/igmp.c.obj
 .text          0x00000000        0x0 CMakeFiles/AHT20.dir/C_/VSARM/sdk/pico/pico-sdk/lib/lwip/src/core/ipv4/ip4_frag.c.obj
 .data          0x00000000        0x0 CMakeFiles/AHT20.dir/C_/VSARM/sdk/pico/pico-sdk/lib/lwip/src/core/ipv4/ip4_frag.c.obj
 .bss           0x00000000        0x0 CMakeFiles/AHT20.dir/C_/VSARM/sdk/pico/pico-sdk/lib/lwip/src/core/ipv4/ip4_frag.c.obj
 .rodata.ip_reass_dequeue_datagram.str1.4
                0x00000000       0x19 CMakeFiles/AHT20.dir/C_/VSARM/sdk/pico/pico-sdk/lib/lwip/src/core/ipv4/ip4_frag.c.obj
 .text.ip_reass_dequeue_datagram
                0x00000000       0x34 CMakeFiles/AHT20.dir/C_/VSARM/sdk/pico/pico-sdk/lib/lwip/src/core/ipv4/ip4_frag.c.obj
 .rodata.ip_reass_free_complete_datagram.str1.4
                0x00000000       0x62 CMakeFiles/AHT20.dir/C_/VSARM/sdk/pico/pico-sdk/lib/lwip/src/core/ipv4/ip4_frag.c.obj
 .text.ip_reass_free_complete_datagram
                0x00000000       0xe8 CMakeFiles/AHT20.dir/C_/VSARM/sdk/pico/pico-sdk/lib/lwip/src/core/ipv4/ip4_frag.c.obj
 .text.ip_reass_remove_oldest_datagram
                0x00000000       0xc0 CMakeFiles/AHT20.dir/C_/VSARM/sdk/pico/pico-sdk/lib/lwip/src/core/ipv4/ip4_frag.c.obj
 .rodata.ip_reass_chain_frag_into_datagram_and_validate.str1.4
                0x00000000       0x8a CMakeFiles/AHT20.dir/C_/VSARM/sdk/pico/pico-sdk/lib/lwip/src/core/ipv4/ip4_frag.c.obj
 .text.ip_reass_chain_frag_into_datagram_and_validate
                0x00000000      0x27c CMakeFiles/AHT20.dir/C_/VSARM/sdk/pico/pico-sdk/lib/lwip/src/core/ipv4/ip4_frag.c.obj
 .text.ip_reass_enqueue_new_datagram
                0x00000000       0x64 CMakeFiles/AHT20.dir/C_/VSARM/sdk/pico/pico-sdk/lib/lwip/src/core/ipv4/ip4_frag.c.obj
 .text.ip_reass_tmr
                0x00000000       0x30 CMakeFiles/AHT20.dir/C_/VSARM/sdk/pico/pico-sdk/lib/lwip/src/core/ipv4/ip4_frag.c.obj
 .rodata.ip4_reass.str1.4
                0x00000000       0x48 CMakeFiles/AHT20.dir/C_/VSARM/sdk/pico/pico-sdk/lib/lwip/src/core/ipv4/ip4_frag.c.obj
 .text.ip4_reass
                0x00000000      0x284 CMakeFiles/AHT20.dir/C_/VSARM/sdk/pico/pico-sdk/lib/lwip/src/core/ipv4/ip4_frag.c.obj
 .rodata.ip4_frag.str1.4
                0x00000000       0x3c CMakeFiles/AHT20.dir/C_/VSARM/sdk/pico/pico-sdk/lib/lwip/src/core/ipv4/ip4_frag.c.obj
 .text.ip4_frag
                0x00000000      0x17c CMakeFiles/AHT20.dir/C_/VSARM/sdk/pico/pico-sdk/lib/lwip/src/core/ipv4/ip4_frag.c.obj
 .bss.ip_reass_pbufcount
                0x00000000        0x2 CMakeFiles/AHT20.dir/C_/VSARM/sdk/pico/pico-sdk/lib/lwip/src/core/ipv4/ip4_frag.c.obj
 .bss.reassdatagrams
                0x00000000        0x4 CMakeFiles/AHT20.dir/C_/VSARM/sdk/pico/pico-sdk/lib/lwip/src/core/ipv4/ip4_frag.c.obj
 .debug_info    0x00000000     0x149d CMakeFiles/AHT20.dir/C_/VSARM/sdk/pico/pico-sdk/lib/lwip/src/core/ipv4/ip4_frag.c.obj
 .debug_abbrev  0x00000000      0x38d CMakeFiles/AHT20.dir/C_/VSARM/sdk/pico/pico-sdk/lib/lwip/src/core/ipv4/ip4_frag.c.obj
 .debug_loclists
                0x00000000      0xb56 CMakeFiles/AHT20.dir/C_/VSARM/sdk/pico/pico-sdk/lib/lwip/src/core/ipv4/ip4_frag.c.obj
 .debug_aranges
                0x00000000       0x58 CMakeFiles/AHT20.dir/C_/VSARM/sdk/pico/pico-sdk/lib/lwip/src/core/ipv4/ip4_frag.c.obj
 .debug_rnglists
                0x00000000       0x4e CMakeFiles/AHT20.dir/C_/VSARM/sdk/pico/pico-sdk/lib/lwip/src/core/ipv4/ip4_frag.c.obj
 .debug_line    0x00000000      0xe4d CMakeFiles/AHT20.dir/C_/VSARM/sdk/pico/pico-sdk/lib/lwip/src/core/ipv4/ip4_frag.c.obj
 .debug_str     0x00000000      0x929 CMakeFiles/AHT20.dir/C_/VSARM/sdk/pico/pico-sdk/lib/lwip/src/core/ipv4/ip4_frag.c.obj
 .comment       0x00000000       0x46 CMakeFiles/AHT20.dir/C_/VSARM/sdk/pico/pico-sdk/lib/lwip/src/core/ipv4/ip4_frag.c.obj
 .debug_frame   0x00000000      0x12c CMakeFiles/AHT20.dir/C_/VSARM/sdk/pico/pico-sdk/lib/lwip/src/core/ipv4/ip4_frag.c.obj
 .ARM.attributes
                0x00000000       0x2c CMakeFiles/AHT20.dir/C_/VSARM/sdk/pico/pico-sdk/lib/lwip/src/core/ipv4/ip4_frag.c.obj
 .text          0x00000000        0x0 CMakeFiles/AHT20.dir/C_/VSARM/sdk/pico/pico-sdk/lib/lwip/src/core/ipv4/ip4.c.obj
 .data          0x00000000        0x0 CMakeFiles/AHT20.dir/C_/VSARM/sdk/pico/pico-sdk/lib/lwip/src/core/ipv4/ip4.c.obj
 .bss           0x00000000        0x0 CMakeFiles/AHT20.dir/C_/VSARM/sdk/pico/pico-sdk/lib/lwip/src/core/ipv4/ip4.c.obj
 .text.ip4_input_accept
                0x00000000       0x38 CMakeFiles/AHT20.dir/C_/VSARM/sdk/pico/pico-sdk/lib/lwip/src/core/ipv4/ip4.c.obj
 .text.ip4_route
                0x00000000       0x7c CMakeFiles/AHT20.dir/C_/VSARM/sdk/pico/pico-sdk/lib/lwip/src/core/ipv4/ip4.c.obj
 .text.ip4_input
                0x00000000      0x290 CMakeFiles/AHT20.dir/C_/VSARM/sdk/pico/pico-sdk/lib/lwip/src/core/ipv4/ip4.c.obj
 .rodata.ip4_output_if_src.str1.4
                0x00000000       0x39 CMakeFiles/AHT20.dir/C_/VSARM/sdk/pico/pico-sdk/lib/lwip/src/core/ipv4/ip4.c.obj
 .text.ip4_output_if_src
                0x00000000      0x1c4 CMakeFiles/AHT20.dir/C_/VSARM/sdk/pico/pico-sdk/lib/lwip/src/core/ipv4/ip4.c.obj
 .text.ip4_output_if
                0x00000000       0x2e CMakeFiles/AHT20.dir/C_/VSARM/sdk/pico/pico-sdk/lib/lwip/src/core/ipv4/ip4.c.obj
 .text.ip4_output
                0x00000000       0x60 CMakeFiles/AHT20.dir/C_/VSARM/sdk/pico/pico-sdk/lib/lwip/src/core/ipv4/ip4.c.obj
 .bss.ip_id     0x00000000        0x2 CMakeFiles/AHT20.dir/C_/VSARM/sdk/pico/pico-sdk/lib/lwip/src/core/ipv4/ip4.c.obj
 .debug_info    0x00000000     0x1059 CMakeFiles/AHT20.dir/C_/VSARM/sdk/pico/pico-sdk/lib/lwip/src/core/ipv4/ip4.c.obj
 .debug_abbrev  0x00000000      0x2fe CMakeFiles/AHT20.dir/C_/VSARM/sdk/pico/pico-sdk/lib/lwip/src/core/ipv4/ip4.c.obj
 .debug_loclists
                0x00000000      0x6ca CMakeFiles/AHT20.dir/C_/VSARM/sdk/pico/pico-sdk/lib/lwip/src/core/ipv4/ip4.c.obj
 .debug_aranges
                0x00000000       0x48 CMakeFiles/AHT20.dir/C_/VSARM/sdk/pico/pico-sdk/lib/lwip/src/core/ipv4/ip4.c.obj
 .debug_rnglists
                0x00000000       0x42 CMakeFiles/AHT20.dir/C_/VSARM/sdk/pico/pico-sdk/lib/lwip/src/core/ipv4/ip4.c.obj
 .debug_line    0x00000000      0xbbc CMakeFiles/AHT20.dir/C_/VSARM/sdk/pico/pico-sdk/lib/lwip/src/core/ipv4/ip4.c.obj
 .debug_str     0x00000000      0x9cd CMakeFiles/AHT20.dir/C_/VSARM/sdk/pico/pico-sdk/lib/lwip/src/core/ipv4/ip4.c.obj
 .comment       0x00000000       0x46 CMakeFiles/AHT20.dir/C_/VSARM/sdk/pico/pico-sdk/lib/lwip/src/core/ipv4/ip4.c.obj
 .debug_frame   0x00000000       0xe0 CMakeFiles/AHT20.dir/C_/VSARM/sdk/pico/pico-sdk/lib/lwip/src/core/ipv4/ip4.c.obj
 .ARM.attributes
                0x00000000       0x2c CMakeFiles/AHT20.dir/C_/VSARM/sdk/pico/pico-sdk/lib/lwip/src/core/ipv4/ip4.c.obj
 .text          0x00000000        0x0 CMakeFiles/AHT20.dir/C_/VSARM/sdk/pico/pico-sdk/lib/lwip/src/core/ipv4/ip4_addr.c.obj
 .data          0x00000000        0x0 CMakeFiles/AHT20.dir/C_/VSARM/sdk/pico/pico-sdk/lib/lwip/src/core/ipv4/ip4_addr.c.obj
 .bss           0x00000000        0x0 CMakeFiles/AHT20.dir/C_/VSARM/sdk/pico/pico-sdk/lib/lwip/src/core/ipv4/ip4_addr.c.obj
 .text.ip4_addr_isbroadcast_u32
                0x00000000       0x42 CMakeFiles/AHT20.dir/C_/VSARM/sdk/pico/pico-sdk/lib/lwip/src/core/ipv4/ip4_addr.c.obj
 .text.ip4_addr_netmask_valid
                0x00000000       0x2a CMakeFiles/AHT20.dir/C_/VSARM/sdk/pico/pico-sdk/lib/lwip/src/core/ipv4/ip4_addr.c.obj
 .rodata.ip4addr_aton.str1.4
                0x00000000        0xa CMakeFiles/AHT20.dir/C_/VSARM/sdk/pico/pico-sdk/lib/lwip/src/core/ipv4/ip4_addr.c.obj
 .text.ip4addr_aton
                0x00000000      0x158 CMakeFiles/AHT20.dir/C_/VSARM/sdk/pico/pico-sdk/lib/lwip/src/core/ipv4/ip4_addr.c.obj
 .rodata.ip4addr_aton
                0x00000000       0x14 CMakeFiles/AHT20.dir/C_/VSARM/sdk/pico/pico-sdk/lib/lwip/src/core/ipv4/ip4_addr.c.obj
 .text.ipaddr_addr
                0x00000000       0x1a CMakeFiles/AHT20.dir/C_/VSARM/sdk/pico/pico-sdk/lib/lwip/src/core/ipv4/ip4_addr.c.obj
 .text.ip4addr_ntoa_r
                0x00000000       0xb6 CMakeFiles/AHT20.dir/C_/VSARM/sdk/pico/pico-sdk/lib/lwip/src/core/ipv4/ip4_addr.c.obj
 .text.ip4addr_ntoa
                0x00000000       0x10 CMakeFiles/AHT20.dir/C_/VSARM/sdk/pico/pico-sdk/lib/lwip/src/core/ipv4/ip4_addr.c.obj
 .bss.str.0     0x00000000       0x10 CMakeFiles/AHT20.dir/C_/VSARM/sdk/pico/pico-sdk/lib/lwip/src/core/ipv4/ip4_addr.c.obj
 .rodata.ip_addr_broadcast
                0x00000000        0x4 CMakeFiles/AHT20.dir/C_/VSARM/sdk/pico/pico-sdk/lib/lwip/src/core/ipv4/ip4_addr.c.obj
 .rodata.ip_addr_any
                0x00000000        0x4 CMakeFiles/AHT20.dir/C_/VSARM/sdk/pico/pico-sdk/lib/lwip/src/core/ipv4/ip4_addr.c.obj
 .debug_info    0x00000000      0x7e2 CMakeFiles/AHT20.dir/C_/VSARM/sdk/pico/pico-sdk/lib/lwip/src/core/ipv4/ip4_addr.c.obj
 .debug_abbrev  0x00000000      0x2e6 CMakeFiles/AHT20.dir/C_/VSARM/sdk/pico/pico-sdk/lib/lwip/src/core/ipv4/ip4_addr.c.obj
 .debug_loclists
                0x00000000      0x417 CMakeFiles/AHT20.dir/C_/VSARM/sdk/pico/pico-sdk/lib/lwip/src/core/ipv4/ip4_addr.c.obj
 .debug_aranges
                0x00000000       0x48 CMakeFiles/AHT20.dir/C_/VSARM/sdk/pico/pico-sdk/lib/lwip/src/core/ipv4/ip4_addr.c.obj
 .debug_rnglists
                0x00000000       0x33 CMakeFiles/AHT20.dir/C_/VSARM/sdk/pico/pico-sdk/lib/lwip/src/core/ipv4/ip4_addr.c.obj
 .debug_line    0x00000000      0x684 CMakeFiles/AHT20.dir/C_/VSARM/sdk/pico/pico-sdk/lib/lwip/src/core/ipv4/ip4_addr.c.obj
 .debug_str     0x00000000      0x4ef CMakeFiles/AHT20.dir/C_/VSARM/sdk/pico/pico-sdk/lib/lwip/src/core/ipv4/ip4_addr.c.obj
 .comment       0x00000000       0x46 CMakeFiles/AHT20.dir/C_/VSARM/sdk/pico/pico-sdk/lib/lwip/src/core/ipv4/ip4_addr.c.obj
 .debug_frame   0x00000000       0xbc CMakeFiles/AHT20.dir/C_/VSARM/sdk/pico/pico-sdk/lib/lwip/src/core/ipv4/ip4_addr.c.obj
 .ARM.attributes
                0x00000000       0x2c CMakeFiles/AHT20.dir/C_/VSARM/sdk/pico/pico-sdk/lib/lwip/src/core/ipv4/ip4_addr.c.obj
 .text          0x00000000        0x0 CMakeFiles/AHT20.dir/C_/VSARM/sdk/pico/pico-sdk/lib/lwip/src/core/ipv4/acd.c.obj
 .data          0x00000000        0x0 CMakeFiles/AHT20.dir/C_/VSARM/sdk/pico/pico-sdk/lib/lwip/src/core/ipv4/acd.c.obj
 .bss           0x00000000        0x0 CMakeFiles/AHT20.dir/C_/VSARM/sdk/pico/pico-sdk/lib/lwip/src/core/ipv4/acd.c.obj
 .debug_info    0x00000000       0x73 CMakeFiles/AHT20.dir/C_/VSARM/sdk/pico/pico-sdk/lib/lwip/src/core/ipv4/acd.c.obj
 .debug_abbrev  0x00000000       0x26 CMakeFiles/AHT20.dir/C_/VSARM/sdk/pico/pico-sdk/lib/lwip/src/core/ipv4/acd.c.obj
 .debug_aranges
                0x00000000       0x18 CMakeFiles/AHT20.dir/C_/VSARM/sdk/pico/pico-sdk/lib/lwip/src/core/ipv4/acd.c.obj
 .debug_line    0x00000000       0x58 CMakeFiles/AHT20.dir/C_/VSARM/sdk/pico/pico-sdk/lib/lwip/src/core/ipv4/acd.c.obj
 .debug_str     0x00000000      0x182 CMakeFiles/AHT20.dir/C_/VSARM/sdk/pico/pico-sdk/lib/lwip/src/core/ipv4/acd.c.obj
 .comment       0x00000000       0x46 CMakeFiles/AHT20.dir/C_/VSARM/sdk/pico/pico-sdk/lib/lwip/src/core/ipv4/acd.c.obj
 .ARM.attributes
                0x00000000       0x2c CMakeFiles/AHT20.dir/C_/VSARM/sdk/pico/pico-sdk/lib/lwip/src/core/ipv4/acd.c.obj
 .text          0x00000000        0x0 CMakeFiles/AHT20.dir/C_/VSARM/sdk/pico/pico-sdk/lib/lwip/src/core/ipv6/dhcp6.c.obj
 .data          0x00000000        0x0 CMakeFiles/AHT20.dir/C_/VSARM/sdk/pico/pico-sdk/lib/lwip/src/core/ipv6/dhcp6.c.obj
 .bss           0x00000000        0x0 CMakeFiles/AHT20.dir/C_/VSARM/sdk/pico/pico-sdk/lib/lwip/src/core/ipv6/dhcp6.c.obj
 .debug_info    0x00000000       0x73 CMakeFiles/AHT20.dir/C_/VSARM/sdk/pico/pico-sdk/lib/lwip/src/core/ipv6/dhcp6.c.obj
 .debug_abbrev  0x00000000       0x26 CMakeFiles/AHT20.dir/C_/VSARM/sdk/pico/pico-sdk/lib/lwip/src/core/ipv6/dhcp6.c.obj
 .debug_aranges
                0x00000000       0x18 CMakeFiles/AHT20.dir/C_/VSARM/sdk/pico/pico-sdk/lib/lwip/src/core/ipv6/dhcp6.c.obj
 .debug_line    0x00000000       0x5a CMakeFiles/AHT20.dir/C_/VSARM/sdk/pico/pico-sdk/lib/lwip/src/core/ipv6/dhcp6.c.obj
 .debug_str     0x00000000      0x184 CMakeFiles/AHT20.dir/C_/VSARM/sdk/pico/pico-sdk/lib/lwip/src/core/ipv6/dhcp6.c.obj
 .comment       0x00000000       0x46 CMakeFiles/AHT20.dir/C_/VSARM/sdk/pico/pico-sdk/lib/lwip/src/core/ipv6/dhcp6.c.obj
 .ARM.attributes
                0x00000000       0x2c CMakeFiles/AHT20.dir/C_/VSARM/sdk/pico/pico-sdk/lib/lwip/src/core/ipv6/dhcp6.c.obj
 .text          0x00000000        0x0 CMakeFiles/AHT20.dir/C_/VSARM/sdk/pico/pico-sdk/lib/lwip/src/core/ipv6/ethip6.c.obj
 .data          0x00000000        0x0 CMakeFiles/AHT20.dir/C_/VSARM/sdk/pico/pico-sdk/lib/lwip/src/core/ipv6/ethip6.c.obj
 .bss           0x00000000        0x0 CMakeFiles/AHT20.dir/C_/VSARM/sdk/pico/pico-sdk/lib/lwip/src/core/ipv6/ethip6.c.obj
 .debug_info    0x00000000       0x73 CMakeFiles/AHT20.dir/C_/VSARM/sdk/pico/pico-sdk/lib/lwip/src/core/ipv6/ethip6.c.obj
 .debug_abbrev  0x00000000       0x26 CMakeFiles/AHT20.dir/C_/VSARM/sdk/pico/pico-sdk/lib/lwip/src/core/ipv6/ethip6.c.obj
 .debug_aranges
                0x00000000       0x18 CMakeFiles/AHT20.dir/C_/VSARM/sdk/pico/pico-sdk/lib/lwip/src/core/ipv6/ethip6.c.obj
 .debug_line    0x00000000       0x5b CMakeFiles/AHT20.dir/C_/VSARM/sdk/pico/pico-sdk/lib/lwip/src/core/ipv6/ethip6.c.obj
 .debug_str     0x00000000      0x185 CMakeFiles/AHT20.dir/C_/VSARM/sdk/pico/pico-sdk/lib/lwip/src/core/ipv6/ethip6.c.obj
 .comment       0x00000000       0x46 CMakeFiles/AHT20.dir/C_/VSARM/sdk/pico/pico-sdk/lib/lwip/src/core/ipv6/ethip6.c.obj
 .ARM.attributes
                0x00000000       0x2c CMakeFiles/AHT20.dir/C_/VSARM/sdk/pico/pico-sdk/lib/lwip/src/core/ipv6/ethip6.c.obj
 .text          0x00000000        0x0 CMakeFiles/AHT20.dir/C_/VSARM/sdk/pico/pico-sdk/lib/lwip/src/core/ipv6/icmp6.c.obj
 .data          0x00000000        0x0 CMakeFiles/AHT20.dir/C_/VSARM/sdk/pico/pico-sdk/lib/lwip/src/core/ipv6/icmp6.c.obj
 .bss           0x00000000        0x0 CMakeFiles/AHT20.dir/C_/VSARM/sdk/pico/pico-sdk/lib/lwip/src/core/ipv6/icmp6.c.obj
 .debug_info    0x00000000       0x73 CMakeFiles/AHT20.dir/C_/VSARM/sdk/pico/pico-sdk/lib/lwip/src/core/ipv6/icmp6.c.obj
 .debug_abbrev  0x00000000       0x26 CMakeFiles/AHT20.dir/C_/VSARM/sdk/pico/pico-sdk/lib/lwip/src/core/ipv6/icmp6.c.obj
 .debug_aranges
                0x00000000       0x18 CMakeFiles/AHT20.dir/C_/VSARM/sdk/pico/pico-sdk/lib/lwip/src/core/ipv6/icmp6.c.obj
 .debug_line    0x00000000       0x5a CMakeFiles/AHT20.dir/C_/VSARM/sdk/pico/pico-sdk/lib/lwip/src/core/ipv6/icmp6.c.obj
 .debug_str     0x00000000      0x184 CMakeFiles/AHT20.dir/C_/VSARM/sdk/pico/pico-sdk/lib/lwip/src/core/ipv6/icmp6.c.obj
 .comment       0x00000000       0x46 CMakeFiles/AHT20.dir/C_/VSARM/sdk/pico/pico-sdk/lib/lwip/src/core/ipv6/icmp6.c.obj
 .ARM.attributes
                0x00000000       0x2c CMakeFiles/AHT20.dir/C_/VSARM/sdk/pico/pico-sdk/lib/lwip/src/core/ipv6/icmp6.c.obj
 .text          0x00000000        0x0 CMakeFiles/AHT20.dir/C_/VSARM/sdk/pico/pico-sdk/lib/lwip/src/core/ipv6/inet6.c.obj
 .data          0x00000000        0x0 CMakeFiles/AHT20.dir/C_/VSARM/sdk/pico/pico-sdk/lib/lwip/src/core/ipv6/inet6.c.obj
 .bss           0x00000000        0x0 CMakeFiles/AHT20.dir/C_/VSARM/sdk/pico/pico-sdk/lib/lwip/src/core/ipv6/inet6.c.obj
 .debug_info    0x00000000       0x73 CMakeFiles/AHT20.dir/C_/VSARM/sdk/pico/pico-sdk/lib/lwip/src/core/ipv6/inet6.c.obj
 .debug_abbrev  0x00000000       0x26 CMakeFiles/AHT20.dir/C_/VSARM/sdk/pico/pico-sdk/lib/lwip/src/core/ipv6/inet6.c.obj
 .debug_aranges
                0x00000000       0x18 CMakeFiles/AHT20.dir/C_/VSARM/sdk/pico/pico-sdk/lib/lwip/src/core/ipv6/inet6.c.obj
 .debug_line    0x00000000       0x5a CMakeFiles/AHT20.dir/C_/VSARM/sdk/pico/pico-sdk/lib/lwip/src/core/ipv6/inet6.c.obj
 .debug_str     0x00000000      0x184 CMakeFiles/AHT20.dir/C_/VSARM/sdk/pico/pico-sdk/lib/lwip/src/core/ipv6/inet6.c.obj
 .comment       0x00000000       0x46 CMakeFiles/AHT20.dir/C_/VSARM/sdk/pico/pico-sdk/lib/lwip/src/core/ipv6/inet6.c.obj
 .ARM.attributes
                0x00000000       0x2c CMakeFiles/AHT20.dir/C_/VSARM/sdk/pico/pico-sdk/lib/lwip/src/core/ipv6/inet6.c.obj
 .text          0x00000000        0x0 CMakeFiles/AHT20.dir/C_/VSARM/sdk/pico/pico-sdk/lib/lwip/src/core/ipv6/ip6.c.obj
 .data          0x00000000        0x0 CMakeFiles/AHT20.dir/C_/VSARM/sdk/pico/pico-sdk/lib/lwip/src/core/ipv6/ip6.c.obj
 .bss           0x00000000        0x0 CMakeFiles/AHT20.dir/C_/VSARM/sdk/pico/pico-sdk/lib/lwip/src/core/ipv6/ip6.c.obj
 .debug_info    0x00000000       0x73 CMakeFiles/AHT20.dir/C_/VSARM/sdk/pico/pico-sdk/lib/lwip/src/core/ipv6/ip6.c.obj
 .debug_abbrev  0x00000000       0x26 CMakeFiles/AHT20.dir/C_/VSARM/sdk/pico/pico-sdk/lib/lwip/src/core/ipv6/ip6.c.obj
 .debug_aranges
                0x00000000       0x18 CMakeFiles/AHT20.dir/C_/VSARM/sdk/pico/pico-sdk/lib/lwip/src/core/ipv6/ip6.c.obj
 .debug_line    0x00000000       0x58 CMakeFiles/AHT20.dir/C_/VSARM/sdk/pico/pico-sdk/lib/lwip/src/core/ipv6/ip6.c.obj
 .debug_str     0x00000000      0x182 CMakeFiles/AHT20.dir/C_/VSARM/sdk/pico/pico-sdk/lib/lwip/src/core/ipv6/ip6.c.obj
 .comment       0x00000000       0x46 CMakeFiles/AHT20.dir/C_/VSARM/sdk/pico/pico-sdk/lib/lwip/src/core/ipv6/ip6.c.obj
 .ARM.attributes
                0x00000000       0x2c CMakeFiles/AHT20.dir/C_/VSARM/sdk/pico/pico-sdk/lib/lwip/src/core/ipv6/ip6.c.obj
 .text          0x00000000        0x0 CMakeFiles/AHT20.dir/C_/VSARM/sdk/pico/pico-sdk/lib/lwip/src/core/ipv6/ip6_addr.c.obj
 .data          0x00000000        0x0 CMakeFiles/AHT20.dir/C_/VSARM/sdk/pico/pico-sdk/lib/lwip/src/core/ipv6/ip6_addr.c.obj
 .bss           0x00000000        0x0 CMakeFiles/AHT20.dir/C_/VSARM/sdk/pico/pico-sdk/lib/lwip/src/core/ipv6/ip6_addr.c.obj
 .debug_info    0x00000000       0x73 CMakeFiles/AHT20.dir/C_/VSARM/sdk/pico/pico-sdk/lib/lwip/src/core/ipv6/ip6_addr.c.obj
 .debug_abbrev  0x00000000       0x26 CMakeFiles/AHT20.dir/C_/VSARM/sdk/pico/pico-sdk/lib/lwip/src/core/ipv6/ip6_addr.c.obj
 .debug_aranges
                0x00000000       0x18 CMakeFiles/AHT20.dir/C_/VSARM/sdk/pico/pico-sdk/lib/lwip/src/core/ipv6/ip6_addr.c.obj
 .debug_line    0x00000000       0x5d CMakeFiles/AHT20.dir/C_/VSARM/sdk/pico/pico-sdk/lib/lwip/src/core/ipv6/ip6_addr.c.obj
 .debug_str     0x00000000      0x187 CMakeFiles/AHT20.dir/C_/VSARM/sdk/pico/pico-sdk/lib/lwip/src/core/ipv6/ip6_addr.c.obj
 .comment       0x00000000       0x46 CMakeFiles/AHT20.dir/C_/VSARM/sdk/pico/pico-sdk/lib/lwip/src/core/ipv6/ip6_addr.c.obj
 .ARM.attributes
                0x00000000       0x2c CMakeFiles/AHT20.dir/C_/VSARM/sdk/pico/pico-sdk/lib/lwip/src/core/ipv6/ip6_addr.c.obj
 .text          0x00000000        0x0 CMakeFiles/AHT20.dir/C_/VSARM/sdk/pico/pico-sdk/lib/lwip/src/core/ipv6/ip6_frag.c.obj
 .data          0x00000000        0x0 CMakeFiles/AHT20.dir/C_/VSARM/sdk/pico/pico-sdk/lib/lwip/src/core/ipv6/ip6_frag.c.obj
 .bss           0x00000000        0x0 CMakeFiles/AHT20.dir/C_/VSARM/sdk/pico/pico-sdk/lib/lwip/src/core/ipv6/ip6_frag.c.obj
 .debug_info    0x00000000       0x73 CMakeFiles/AHT20.dir/C_/VSARM/sdk/pico/pico-sdk/lib/lwip/src/core/ipv6/ip6_frag.c.obj
 .debug_abbrev  0x00000000       0x26 CMakeFiles/AHT20.dir/C_/VSARM/sdk/pico/pico-sdk/lib/lwip/src/core/ipv6/ip6_frag.c.obj
 .debug_aranges
                0x00000000       0x18 CMakeFiles/AHT20.dir/C_/VSARM/sdk/pico/pico-sdk/lib/lwip/src/core/ipv6/ip6_frag.c.obj
 .debug_line    0x00000000       0x5d CMakeFiles/AHT20.dir/C_/VSARM/sdk/pico/pico-sdk/lib/lwip/src/core/ipv6/ip6_frag.c.obj
 .debug_str     0x00000000      0x187 CMakeFiles/AHT20.dir/C_/VSARM/sdk/pico/pico-sdk/lib/lwip/src/core/ipv6/ip6_frag.c.obj
 .comment       0x00000000       0x46 CMakeFiles/AHT20.dir/C_/VSARM/sdk/pico/pico-sdk/lib/lwip/src/core/ipv6/ip6_frag.c.obj
 .ARM.attributes
                0x00000000       0x2c CMakeFiles/AHT20.dir/C_/VSARM/sdk/pico/pico-sdk/lib/lwip/src/core/ipv6/ip6_frag.c.obj
 .text          0x00000000        0x0 CMakeFiles/AHT20.dir/C_/VSARM/sdk/pico/pico-sdk/lib/lwip/src/core/ipv6/mld6.c.obj
 .data          0x00000000        0x0 CMakeFiles/AHT20.dir/C_/VSARM/sdk/pico/pico-sdk/lib/lwip/src/core/ipv6/mld6.c.obj
 .bss           0x00000000        0x0 CMakeFiles/AHT20.dir/C_/VSARM/sdk/pico/pico-sdk/lib/lwip/src/core/ipv6/mld6.c.obj
 .debug_info    0x00000000       0x73 CMakeFiles/AHT20.dir/C_/VSARM/sdk/pico/pico-sdk/lib/lwip/src/core/ipv6/mld6.c.obj
 .debug_abbrev  0x00000000       0x26 CMakeFiles/AHT20.dir/C_/VSARM/sdk/pico/pico-sdk/lib/lwip/src/core/ipv6/mld6.c.obj
 .debug_aranges
                0x00000000       0x18 CMakeFiles/AHT20.dir/C_/VSARM/sdk/pico/pico-sdk/lib/lwip/src/core/ipv6/mld6.c.obj
 .debug_line    0x00000000       0x59 CMakeFiles/AHT20.dir/C_/VSARM/sdk/pico/pico-sdk/lib/lwip/src/core/ipv6/mld6.c.obj
 .debug_str     0x00000000      0x183 CMakeFiles/AHT20.dir/C_/VSARM/sdk/pico/pico-sdk/lib/lwip/src/core/ipv6/mld6.c.obj
 .comment       0x00000000       0x46 CMakeFiles/AHT20.dir/C_/VSARM/sdk/pico/pico-sdk/lib/lwip/src/core/ipv6/mld6.c.obj
 .ARM.attributes
                0x00000000       0x2c CMakeFiles/AHT20.dir/C_/VSARM/sdk/pico/pico-sdk/lib/lwip/src/core/ipv6/mld6.c.obj
 .text          0x00000000        0x0 CMakeFiles/AHT20.dir/C_/VSARM/sdk/pico/pico-sdk/lib/lwip/src/core/ipv6/nd6.c.obj
 .data          0x00000000        0x0 CMakeFiles/AHT20.dir/C_/VSARM/sdk/pico/pico-sdk/lib/lwip/src/core/ipv6/nd6.c.obj
 .bss           0x00000000        0x0 CMakeFiles/AHT20.dir/C_/VSARM/sdk/pico/pico-sdk/lib/lwip/src/core/ipv6/nd6.c.obj
 .debug_info    0x00000000       0x73 CMakeFiles/AHT20.dir/C_/VSARM/sdk/pico/pico-sdk/lib/lwip/src/core/ipv6/nd6.c.obj
 .debug_abbrev  0x00000000       0x26 CMakeFiles/AHT20.dir/C_/VSARM/sdk/pico/pico-sdk/lib/lwip/src/core/ipv6/nd6.c.obj
 .debug_aranges
                0x00000000       0x18 CMakeFiles/AHT20.dir/C_/VSARM/sdk/pico/pico-sdk/lib/lwip/src/core/ipv6/nd6.c.obj
 .debug_line    0x00000000       0x58 CMakeFiles/AHT20.dir/C_/VSARM/sdk/pico/pico-sdk/lib/lwip/src/core/ipv6/nd6.c.obj
 .debug_str     0x00000000      0x182 CMakeFiles/AHT20.dir/C_/VSARM/sdk/pico/pico-sdk/lib/lwip/src/core/ipv6/nd6.c.obj
 .comment       0x00000000       0x46 CMakeFiles/AHT20.dir/C_/VSARM/sdk/pico/pico-sdk/lib/lwip/src/core/ipv6/nd6.c.obj
 .ARM.attributes
                0x00000000       0x2c CMakeFiles/AHT20.dir/C_/VSARM/sdk/pico/pico-sdk/lib/lwip/src/core/ipv6/nd6.c.obj
 .text          0x00000000        0x0 CMakeFiles/AHT20.dir/C_/VSARM/sdk/pico/pico-sdk/lib/lwip/src/api/api_lib.c.obj
 .data          0x00000000        0x0 CMakeFiles/AHT20.dir/C_/VSARM/sdk/pico/pico-sdk/lib/lwip/src/api/api_lib.c.obj
 .bss           0x00000000        0x0 CMakeFiles/AHT20.dir/C_/VSARM/sdk/pico/pico-sdk/lib/lwip/src/api/api_lib.c.obj
 .debug_info    0x00000000       0x73 CMakeFiles/AHT20.dir/C_/VSARM/sdk/pico/pico-sdk/lib/lwip/src/api/api_lib.c.obj
 .debug_abbrev  0x00000000       0x26 CMakeFiles/AHT20.dir/C_/VSARM/sdk/pico/pico-sdk/lib/lwip/src/api/api_lib.c.obj
 .debug_aranges
                0x00000000       0x18 CMakeFiles/AHT20.dir/C_/VSARM/sdk/pico/pico-sdk/lib/lwip/src/api/api_lib.c.obj
 .debug_line    0x00000000       0x56 CMakeFiles/AHT20.dir/C_/VSARM/sdk/pico/pico-sdk/lib/lwip/src/api/api_lib.c.obj
 .debug_str     0x00000000      0x180 CMakeFiles/AHT20.dir/C_/VSARM/sdk/pico/pico-sdk/lib/lwip/src/api/api_lib.c.obj
 .comment       0x00000000       0x46 CMakeFiles/AHT20.dir/C_/VSARM/sdk/pico/pico-sdk/lib/lwip/src/api/api_lib.c.obj
 .ARM.attributes
                0x00000000       0x2c CMakeFiles/AHT20.dir/C_/VSARM/sdk/pico/pico-sdk/lib/lwip/src/api/api_lib.c.obj
 .text          0x00000000        0x0 CMakeFiles/AHT20.dir/C_/VSARM/sdk/pico/pico-sdk/lib/lwip/src/api/api_msg.c.obj
 .data          0x00000000        0x0 CMakeFiles/AHT20.dir/C_/VSARM/sdk/pico/pico-sdk/lib/lwip/src/api/api_msg.c.obj
 .bss           0x00000000        0x0 CMakeFiles/AHT20.dir/C_/VSARM/sdk/pico/pico-sdk/lib/lwip/src/api/api_msg.c.obj
 .debug_info    0x00000000       0x73 CMakeFiles/AHT20.dir/C_/VSARM/sdk/pico/pico-sdk/lib/lwip/src/api/api_msg.c.obj
 .debug_abbrev  0x00000000       0x26 CMakeFiles/AHT20.dir/C_/VSARM/sdk/pico/pico-sdk/lib/lwip/src/api/api_msg.c.obj
 .debug_aranges
                0x00000000       0x18 CMakeFiles/AHT20.dir/C_/VSARM/sdk/pico/pico-sdk/lib/lwip/src/api/api_msg.c.obj
 .debug_line    0x00000000       0x56 CMakeFiles/AHT20.dir/C_/VSARM/sdk/pico/pico-sdk/lib/lwip/src/api/api_msg.c.obj
 .debug_str     0x00000000      0x180 CMakeFiles/AHT20.dir/C_/VSARM/sdk/pico/pico-sdk/lib/lwip/src/api/api_msg.c.obj
 .comment       0x00000000       0x46 CMakeFiles/AHT20.dir/C_/VSARM/sdk/pico/pico-sdk/lib/lwip/src/api/api_msg.c.obj
 .ARM.attributes
                0x00000000       0x2c CMakeFiles/AHT20.dir/C_/VSARM/sdk/pico/pico-sdk/lib/lwip/src/api/api_msg.c.obj
 .text          0x00000000        0x0 CMakeFiles/AHT20.dir/C_/VSARM/sdk/pico/pico-sdk/lib/lwip/src/api/err.c.obj
 .data          0x00000000        0x0 CMakeFiles/AHT20.dir/C_/VSARM/sdk/pico/pico-sdk/lib/lwip/src/api/err.c.obj
 .bss           0x00000000        0x0 CMakeFiles/AHT20.dir/C_/VSARM/sdk/pico/pico-sdk/lib/lwip/src/api/err.c.obj
 .rodata.lwip_strerr.str1.4
                0x00000000        0xf CMakeFiles/AHT20.dir/C_/VSARM/sdk/pico/pico-sdk/lib/lwip/src/api/err.c.obj
 .text.lwip_strerr
                0x00000000       0x20 CMakeFiles/AHT20.dir/C_/VSARM/sdk/pico/pico-sdk/lib/lwip/src/api/err.c.obj
 .rodata.str1.4
                0x00000000      0x13a CMakeFiles/AHT20.dir/C_/VSARM/sdk/pico/pico-sdk/lib/lwip/src/api/err.c.obj
 .rodata.err_strerr
                0x00000000       0x44 CMakeFiles/AHT20.dir/C_/VSARM/sdk/pico/pico-sdk/lib/lwip/src/api/err.c.obj
 .debug_info    0x00000000      0x103 CMakeFiles/AHT20.dir/C_/VSARM/sdk/pico/pico-sdk/lib/lwip/src/api/err.c.obj
 .debug_abbrev  0x00000000       0x9b CMakeFiles/AHT20.dir/C_/VSARM/sdk/pico/pico-sdk/lib/lwip/src/api/err.c.obj
 .debug_loclists
                0x00000000       0x34 CMakeFiles/AHT20.dir/C_/VSARM/sdk/pico/pico-sdk/lib/lwip/src/api/err.c.obj
 .debug_aranges
                0x00000000       0x20 CMakeFiles/AHT20.dir/C_/VSARM/sdk/pico/pico-sdk/lib/lwip/src/api/err.c.obj
 .debug_rnglists
                0x00000000       0x13 CMakeFiles/AHT20.dir/C_/VSARM/sdk/pico/pico-sdk/lib/lwip/src/api/err.c.obj
 .debug_line    0x00000000      0x159 CMakeFiles/AHT20.dir/C_/VSARM/sdk/pico/pico-sdk/lib/lwip/src/api/err.c.obj
 .debug_str     0x00000000      0x1ae CMakeFiles/AHT20.dir/C_/VSARM/sdk/pico/pico-sdk/lib/lwip/src/api/err.c.obj
 .comment       0x00000000       0x46 CMakeFiles/AHT20.dir/C_/VSARM/sdk/pico/pico-sdk/lib/lwip/src/api/err.c.obj
 .debug_frame   0x00000000       0x20 CMakeFiles/AHT20.dir/C_/VSARM/sdk/pico/pico-sdk/lib/lwip/src/api/err.c.obj
 .ARM.attributes
                0x00000000       0x2c CMakeFiles/AHT20.dir/C_/VSARM/sdk/pico/pico-sdk/lib/lwip/src/api/err.c.obj
 .text          0x00000000        0x0 CMakeFiles/AHT20.dir/C_/VSARM/sdk/pico/pico-sdk/lib/lwip/src/api/if_api.c.obj
 .data          0x00000000        0x0 CMakeFiles/AHT20.dir/C_/VSARM/sdk/pico/pico-sdk/lib/lwip/src/api/if_api.c.obj
 .bss           0x00000000        0x0 CMakeFiles/AHT20.dir/C_/VSARM/sdk/pico/pico-sdk/lib/lwip/src/api/if_api.c.obj
 .debug_info    0x00000000       0x73 CMakeFiles/AHT20.dir/C_/VSARM/sdk/pico/pico-sdk/lib/lwip/src/api/if_api.c.obj
 .debug_abbrev  0x00000000       0x26 CMakeFiles/AHT20.dir/C_/VSARM/sdk/pico/pico-sdk/lib/lwip/src/api/if_api.c.obj
 .debug_aranges
                0x00000000       0x18 CMakeFiles/AHT20.dir/C_/VSARM/sdk/pico/pico-sdk/lib/lwip/src/api/if_api.c.obj
 .debug_line    0x00000000       0x55 CMakeFiles/AHT20.dir/C_/VSARM/sdk/pico/pico-sdk/lib/lwip/src/api/if_api.c.obj
 .debug_str     0x00000000      0x17f CMakeFiles/AHT20.dir/C_/VSARM/sdk/pico/pico-sdk/lib/lwip/src/api/if_api.c.obj
 .comment       0x00000000       0x46 CMakeFiles/AHT20.dir/C_/VSARM/sdk/pico/pico-sdk/lib/lwip/src/api/if_api.c.obj
 .ARM.attributes
                0x00000000       0x2c CMakeFiles/AHT20.dir/C_/VSARM/sdk/pico/pico-sdk/lib/lwip/src/api/if_api.c.obj
 .text          0x00000000        0x0 CMakeFiles/AHT20.dir/C_/VSARM/sdk/pico/pico-sdk/lib/lwip/src/api/netbuf.c.obj
 .data          0x00000000        0x0 CMakeFiles/AHT20.dir/C_/VSARM/sdk/pico/pico-sdk/lib/lwip/src/api/netbuf.c.obj
 .bss           0x00000000        0x0 CMakeFiles/AHT20.dir/C_/VSARM/sdk/pico/pico-sdk/lib/lwip/src/api/netbuf.c.obj
 .debug_info    0x00000000       0x73 CMakeFiles/AHT20.dir/C_/VSARM/sdk/pico/pico-sdk/lib/lwip/src/api/netbuf.c.obj
 .debug_abbrev  0x00000000       0x26 CMakeFiles/AHT20.dir/C_/VSARM/sdk/pico/pico-sdk/lib/lwip/src/api/netbuf.c.obj
 .debug_aranges
                0x00000000       0x18 CMakeFiles/AHT20.dir/C_/VSARM/sdk/pico/pico-sdk/lib/lwip/src/api/netbuf.c.obj
 .debug_line    0x00000000       0x55 CMakeFiles/AHT20.dir/C_/VSARM/sdk/pico/pico-sdk/lib/lwip/src/api/netbuf.c.obj
 .debug_str     0x00000000      0x17f CMakeFiles/AHT20.dir/C_/VSARM/sdk/pico/pico-sdk/lib/lwip/src/api/netbuf.c.obj
 .comment       0x00000000       0x46 CMakeFiles/AHT20.dir/C_/VSARM/sdk/pico/pico-sdk/lib/lwip/src/api/netbuf.c.obj
 .ARM.attributes
                0x00000000       0x2c CMakeFiles/AHT20.dir/C_/VSARM/sdk/pico/pico-sdk/lib/lwip/src/api/netbuf.c.obj
 .text          0x00000000        0x0 CMakeFiles/AHT20.dir/C_/VSARM/sdk/pico/pico-sdk/lib/lwip/src/api/netdb.c.obj
 .data          0x00000000        0x0 CMakeFiles/AHT20.dir/C_/VSARM/sdk/pico/pico-sdk/lib/lwip/src/api/netdb.c.obj
 .bss           0x00000000        0x0 CMakeFiles/AHT20.dir/C_/VSARM/sdk/pico/pico-sdk/lib/lwip/src/api/netdb.c.obj
 .debug_info    0x00000000       0x73 CMakeFiles/AHT20.dir/C_/VSARM/sdk/pico/pico-sdk/lib/lwip/src/api/netdb.c.obj
 .debug_abbrev  0x00000000       0x26 CMakeFiles/AHT20.dir/C_/VSARM/sdk/pico/pico-sdk/lib/lwip/src/api/netdb.c.obj
 .debug_aranges
                0x00000000       0x18 CMakeFiles/AHT20.dir/C_/VSARM/sdk/pico/pico-sdk/lib/lwip/src/api/netdb.c.obj
 .debug_line    0x00000000       0x54 CMakeFiles/AHT20.dir/C_/VSARM/sdk/pico/pico-sdk/lib/lwip/src/api/netdb.c.obj
 .debug_str     0x00000000      0x17e CMakeFiles/AHT20.dir/C_/VSARM/sdk/pico/pico-sdk/lib/lwip/src/api/netdb.c.obj
 .comment       0x00000000       0x46 CMakeFiles/AHT20.dir/C_/VSARM/sdk/pico/pico-sdk/lib/lwip/src/api/netdb.c.obj
 .ARM.attributes
                0x00000000       0x2c CMakeFiles/AHT20.dir/C_/VSARM/sdk/pico/pico-sdk/lib/lwip/src/api/netdb.c.obj
 .text          0x00000000        0x0 CMakeFiles/AHT20.dir/C_/VSARM/sdk/pico/pico-sdk/lib/lwip/src/api/netifapi.c.obj
 .data          0x00000000        0x0 CMakeFiles/AHT20.dir/C_/VSARM/sdk/pico/pico-sdk/lib/lwip/src/api/netifapi.c.obj
 .bss           0x00000000        0x0 CMakeFiles/AHT20.dir/C_/VSARM/sdk/pico/pico-sdk/lib/lwip/src/api/netifapi.c.obj
 .debug_info    0x00000000       0x73 CMakeFiles/AHT20.dir/C_/VSARM/sdk/pico/pico-sdk/lib/lwip/src/api/netifapi.c.obj
 .debug_abbrev  0x00000000       0x26 CMakeFiles/AHT20.dir/C_/VSARM/sdk/pico/pico-sdk/lib/lwip/src/api/netifapi.c.obj
 .debug_aranges
                0x00000000       0x18 CMakeFiles/AHT20.dir/C_/VSARM/sdk/pico/pico-sdk/lib/lwip/src/api/netifapi.c.obj
 .debug_line    0x00000000       0x57 CMakeFiles/AHT20.dir/C_/VSARM/sdk/pico/pico-sdk/lib/lwip/src/api/netifapi.c.obj
 .debug_str     0x00000000      0x181 CMakeFiles/AHT20.dir/C_/VSARM/sdk/pico/pico-sdk/lib/lwip/src/api/netifapi.c.obj
 .comment       0x00000000       0x46 CMakeFiles/AHT20.dir/C_/VSARM/sdk/pico/pico-sdk/lib/lwip/src/api/netifapi.c.obj
 .ARM.attributes
                0x00000000       0x2c CMakeFiles/AHT20.dir/C_/VSARM/sdk/pico/pico-sdk/lib/lwip/src/api/netifapi.c.obj
 .text          0x00000000        0x0 CMakeFiles/AHT20.dir/C_/VSARM/sdk/pico/pico-sdk/lib/lwip/src/api/sockets.c.obj
 .data          0x00000000        0x0 CMakeFiles/AHT20.dir/C_/VSARM/sdk/pico/pico-sdk/lib/lwip/src/api/sockets.c.obj
 .bss           0x00000000        0x0 CMakeFiles/AHT20.dir/C_/VSARM/sdk/pico/pico-sdk/lib/lwip/src/api/sockets.c.obj
 .debug_info    0x00000000       0x73 CMakeFiles/AHT20.dir/C_/VSARM/sdk/pico/pico-sdk/lib/lwip/src/api/sockets.c.obj
 .debug_abbrev  0x00000000       0x26 CMakeFiles/AHT20.dir/C_/VSARM/sdk/pico/pico-sdk/lib/lwip/src/api/sockets.c.obj
 .debug_aranges
                0x00000000       0x18 CMakeFiles/AHT20.dir/C_/VSARM/sdk/pico/pico-sdk/lib/lwip/src/api/sockets.c.obj
 .debug_line    0x00000000       0x56 CMakeFiles/AHT20.dir/C_/VSARM/sdk/pico/pico-sdk/lib/lwip/src/api/sockets.c.obj
 .debug_str     0x00000000      0x180 CMakeFiles/AHT20.dir/C_/VSARM/sdk/pico/pico-sdk/lib/lwip/src/api/sockets.c.obj
 .comment       0x00000000       0x46 CMakeFiles/AHT20.dir/C_/VSARM/sdk/pico/pico-sdk/lib/lwip/src/api/sockets.c.obj
 .ARM.attributes
                0x00000000       0x2c CMakeFiles/AHT20.dir/C_/VSARM/sdk/pico/pico-sdk/lib/lwip/src/api/sockets.c.obj
 .text          0x00000000        0x0 CMakeFiles/AHT20.dir/C_/VSARM/sdk/pico/pico-sdk/lib/lwip/src/api/tcpip.c.obj
 .data          0x00000000        0x0 CMakeFiles/AHT20.dir/C_/VSARM/sdk/pico/pico-sdk/lib/lwip/src/api/tcpip.c.obj
 .bss           0x00000000        0x0 CMakeFiles/AHT20.dir/C_/VSARM/sdk/pico/pico-sdk/lib/lwip/src/api/tcpip.c.obj
 .debug_info    0x00000000       0x73 CMakeFiles/AHT20.dir/C_/VSARM/sdk/pico/pico-sdk/lib/lwip/src/api/tcpip.c.obj
 .debug_abbrev  0x00000000       0x26 CMakeFiles/AHT20.dir/C_/VSARM/sdk/pico/pico-sdk/lib/lwip/src/api/tcpip.c.obj
 .debug_aranges
                0x00000000       0x18 CMakeFiles/AHT20.dir/C_/VSARM/sdk/pico/pico-sdk/lib/lwip/src/api/tcpip.c.obj
 .debug_line    0x00000000       0x54 CMakeFiles/AHT20.dir/C_/VSARM/sdk/pico/pico-sdk/lib/lwip/src/api/tcpip.c.obj
 .debug_str     0x00000000      0x17e CMakeFiles/AHT20.dir/C_/VSARM/sdk/pico/pico-sdk/lib/lwip/src/api/tcpip.c.obj
 .comment       0x00000000       0x46 CMakeFiles/AHT20.dir/C_/VSARM/sdk/pico/pico-sdk/lib/lwip/src/api/tcpip.c.obj
 .ARM.attributes
                0x00000000       0x2c CMakeFiles/AHT20.dir/C_/VSARM/sdk/pico/pico-sdk/lib/lwip/src/api/tcpip.c.obj
 .text          0x00000000        0x0 CMakeFiles/AHT20.dir/C_/VSARM/sdk/pico/pico-sdk/lib/lwip/src/netif/ethernet.c.obj
 .data          0x00000000        0x0 CMakeFiles/AHT20.dir/C_/VSARM/sdk/pico/pico-sdk/lib/lwip/src/netif/ethernet.c.obj
 .bss           0x00000000        0x0 CMakeFiles/AHT20.dir/C_/VSARM/sdk/pico/pico-sdk/lib/lwip/src/netif/ethernet.c.obj
 .text.ethernet_input
                0x00000000       0xe0 CMakeFiles/AHT20.dir/C_/VSARM/sdk/pico/pico-sdk/lib/lwip/src/netif/ethernet.c.obj
 .rodata.ethernet_output.str1.4
                0x00000000       0x31 CMakeFiles/AHT20.dir/C_/VSARM/sdk/pico/pico-sdk/lib/lwip/src/netif/ethernet.c.obj
 .text.ethernet_output
                0x00000000       0x6c CMakeFiles/AHT20.dir/C_/VSARM/sdk/pico/pico-sdk/lib/lwip/src/netif/ethernet.c.obj
 .rodata.ethzero
                0x00000000        0x6 CMakeFiles/AHT20.dir/C_/VSARM/sdk/pico/pico-sdk/lib/lwip/src/netif/ethernet.c.obj
 .rodata.ethbroadcast
                0x00000000        0x6 CMakeFiles/AHT20.dir/C_/VSARM/sdk/pico/pico-sdk/lib/lwip/src/netif/ethernet.c.obj
 .debug_info    0x00000000      0xa11 CMakeFiles/AHT20.dir/C_/VSARM/sdk/pico/pico-sdk/lib/lwip/src/netif/ethernet.c.obj
 .debug_abbrev  0x00000000      0x2f7 CMakeFiles/AHT20.dir/C_/VSARM/sdk/pico/pico-sdk/lib/lwip/src/netif/ethernet.c.obj
 .debug_loclists
                0x00000000      0x180 CMakeFiles/AHT20.dir/C_/VSARM/sdk/pico/pico-sdk/lib/lwip/src/netif/ethernet.c.obj
 .debug_aranges
                0x00000000       0x28 CMakeFiles/AHT20.dir/C_/VSARM/sdk/pico/pico-sdk/lib/lwip/src/netif/ethernet.c.obj
 .debug_rnglists
                0x00000000       0x1a CMakeFiles/AHT20.dir/C_/VSARM/sdk/pico/pico-sdk/lib/lwip/src/netif/ethernet.c.obj
 .debug_line    0x00000000      0x4d1 CMakeFiles/AHT20.dir/C_/VSARM/sdk/pico/pico-sdk/lib/lwip/src/netif/ethernet.c.obj
 .debug_str     0x00000000      0x733 CMakeFiles/AHT20.dir/C_/VSARM/sdk/pico/pico-sdk/lib/lwip/src/netif/ethernet.c.obj
 .comment       0x00000000       0x46 CMakeFiles/AHT20.dir/C_/VSARM/sdk/pico/pico-sdk/lib/lwip/src/netif/ethernet.c.obj
 .debug_frame   0x00000000       0x54 CMakeFiles/AHT20.dir/C_/VSARM/sdk/pico/pico-sdk/lib/lwip/src/netif/ethernet.c.obj
 .ARM.attributes
                0x00000000       0x2c CMakeFiles/AHT20.dir/C_/VSARM/sdk/pico/pico-sdk/lib/lwip/src/netif/ethernet.c.obj
 .text          0x00000000        0x0 CMakeFiles/AHT20.dir/C_/VSARM/sdk/pico/pico-sdk/lib/lwip/src/netif/bridgeif.c.obj
 .data          0x00000000        0x0 CMakeFiles/AHT20.dir/C_/VSARM/sdk/pico/pico-sdk/lib/lwip/src/netif/bridgeif.c.obj
 .bss           0x00000000        0x0 CMakeFiles/AHT20.dir/C_/VSARM/sdk/pico/pico-sdk/lib/lwip/src/netif/bridgeif.c.obj
 .debug_info    0x00000000       0x73 CMakeFiles/AHT20.dir/C_/VSARM/sdk/pico/pico-sdk/lib/lwip/src/netif/bridgeif.c.obj
 .debug_abbrev  0x00000000       0x26 CMakeFiles/AHT20.dir/C_/VSARM/sdk/pico/pico-sdk/lib/lwip/src/netif/bridgeif.c.obj
 .debug_aranges
                0x00000000       0x18 CMakeFiles/AHT20.dir/C_/VSARM/sdk/pico/pico-sdk/lib/lwip/src/netif/bridgeif.c.obj
 .debug_line    0x00000000       0x59 CMakeFiles/AHT20.dir/C_/VSARM/sdk/pico/pico-sdk/lib/lwip/src/netif/bridgeif.c.obj
 .debug_str     0x00000000      0x183 CMakeFiles/AHT20.dir/C_/VSARM/sdk/pico/pico-sdk/lib/lwip/src/netif/bridgeif.c.obj
 .comment       0x00000000       0x46 CMakeFiles/AHT20.dir/C_/VSARM/sdk/pico/pico-sdk/lib/lwip/src/netif/bridgeif.c.obj
 .ARM.attributes
                0x00000000       0x2c CMakeFiles/AHT20.dir/C_/VSARM/sdk/pico/pico-sdk/lib/lwip/src/netif/bridgeif.c.obj
 .text          0x00000000        0x0 CMakeFiles/AHT20.dir/C_/VSARM/sdk/pico/pico-sdk/lib/lwip/src/netif/bridgeif_fdb.c.obj
 .data          0x00000000        0x0 CMakeFiles/AHT20.dir/C_/VSARM/sdk/pico/pico-sdk/lib/lwip/src/netif/bridgeif_fdb.c.obj
 .bss           0x00000000        0x0 CMakeFiles/AHT20.dir/C_/VSARM/sdk/pico/pico-sdk/lib/lwip/src/netif/bridgeif_fdb.c.obj
 .text.bridgeif_fdb_age_one_second
                0x00000000       0x38 CMakeFiles/AHT20.dir/C_/VSARM/sdk/pico/pico-sdk/lib/lwip/src/netif/bridgeif_fdb.c.obj
 .rodata.bridgeif_age_tmr.str1.4
                0x00000000        0xc CMakeFiles/AHT20.dir/C_/VSARM/sdk/pico/pico-sdk/lib/lwip/src/netif/bridgeif_fdb.c.obj
 .text.bridgeif_age_tmr
                0x00000000       0x28 CMakeFiles/AHT20.dir/C_/VSARM/sdk/pico/pico-sdk/lib/lwip/src/netif/bridgeif_fdb.c.obj
 .text.bridgeif_fdb_update_src
                0x00000000       0xb0 CMakeFiles/AHT20.dir/C_/VSARM/sdk/pico/pico-sdk/lib/lwip/src/netif/bridgeif_fdb.c.obj
 .text.bridgeif_fdb_get_dst_ports
                0x00000000       0x5e CMakeFiles/AHT20.dir/C_/VSARM/sdk/pico/pico-sdk/lib/lwip/src/netif/bridgeif_fdb.c.obj
 .rodata.bridgeif_fdb_init.str1.4
                0x00000000       0x1d CMakeFiles/AHT20.dir/C_/VSARM/sdk/pico/pico-sdk/lib/lwip/src/netif/bridgeif_fdb.c.obj
 .text.bridgeif_fdb_init
                0x00000000       0x44 CMakeFiles/AHT20.dir/C_/VSARM/sdk/pico/pico-sdk/lib/lwip/src/netif/bridgeif_fdb.c.obj
 .debug_info    0x00000000      0x6d4 CMakeFiles/AHT20.dir/C_/VSARM/sdk/pico/pico-sdk/lib/lwip/src/netif/bridgeif_fdb.c.obj
 .debug_abbrev  0x00000000      0x213 CMakeFiles/AHT20.dir/C_/VSARM/sdk/pico/pico-sdk/lib/lwip/src/netif/bridgeif_fdb.c.obj
 .debug_loclists
                0x00000000      0x31d CMakeFiles/AHT20.dir/C_/VSARM/sdk/pico/pico-sdk/lib/lwip/src/netif/bridgeif_fdb.c.obj
 .debug_aranges
                0x00000000       0x40 CMakeFiles/AHT20.dir/C_/VSARM/sdk/pico/pico-sdk/lib/lwip/src/netif/bridgeif_fdb.c.obj
 .debug_rnglists
                0x00000000       0x44 CMakeFiles/AHT20.dir/C_/VSARM/sdk/pico/pico-sdk/lib/lwip/src/netif/bridgeif_fdb.c.obj
 .debug_line    0x00000000      0x6c9 CMakeFiles/AHT20.dir/C_/VSARM/sdk/pico/pico-sdk/lib/lwip/src/netif/bridgeif_fdb.c.obj
 .debug_str     0x00000000      0x3b2 CMakeFiles/AHT20.dir/C_/VSARM/sdk/pico/pico-sdk/lib/lwip/src/netif/bridgeif_fdb.c.obj
 .comment       0x00000000       0x46 CMakeFiles/AHT20.dir/C_/VSARM/sdk/pico/pico-sdk/lib/lwip/src/netif/bridgeif_fdb.c.obj
 .debug_frame   0x00000000       0xac CMakeFiles/AHT20.dir/C_/VSARM/sdk/pico/pico-sdk/lib/lwip/src/netif/bridgeif_fdb.c.obj
 .ARM.attributes
                0x00000000       0x2c CMakeFiles/AHT20.dir/C_/VSARM/sdk/pico/pico-sdk/lib/lwip/src/netif/bridgeif_fdb.c.obj
 .text          0x00000000        0x0 CMakeFiles/AHT20.dir/C_/VSARM/sdk/pico/pico-sdk/lib/lwip/src/netif/slipif.c.obj
 .data          0x00000000        0x0 CMakeFiles/AHT20.dir/C_/VSARM/sdk/pico/pico-sdk/lib/lwip/src/netif/slipif.c.obj
 .bss           0x00000000        0x0 CMakeFiles/AHT20.dir/C_/VSARM/sdk/pico/pico-sdk/lib/lwip/src/netif/slipif.c.obj
 .rodata.slipif_output.str1.4
                0x00000000       0x32 CMakeFiles/AHT20.dir/C_/VSARM/sdk/pico/pico-sdk/lib/lwip/src/netif/slipif.c.obj
 .text.slipif_output
                0x00000000       0x90 CMakeFiles/AHT20.dir/C_/VSARM/sdk/pico/pico-sdk/lib/lwip/src/netif/slipif.c.obj
 .text.slipif_output_v4
                0x00000000        0x8 CMakeFiles/AHT20.dir/C_/VSARM/sdk/pico/pico-sdk/lib/lwip/src/netif/slipif.c.obj
 .text.slipif_rxbyte
                0x00000000       0xf4 CMakeFiles/AHT20.dir/C_/VSARM/sdk/pico/pico-sdk/lib/lwip/src/netif/slipif.c.obj
 .text.slipif_rxbyte_input
                0x00000000       0x20 CMakeFiles/AHT20.dir/C_/VSARM/sdk/pico/pico-sdk/lib/lwip/src/netif/slipif.c.obj
 .rodata.slipif_init.str1.4
                0x00000000       0x1f CMakeFiles/AHT20.dir/C_/VSARM/sdk/pico/pico-sdk/lib/lwip/src/netif/slipif.c.obj
 .text.slipif_init
                0x00000000       0x70 CMakeFiles/AHT20.dir/C_/VSARM/sdk/pico/pico-sdk/lib/lwip/src/netif/slipif.c.obj
 .text.slipif_poll
                0x00000000       0x40 CMakeFiles/AHT20.dir/C_/VSARM/sdk/pico/pico-sdk/lib/lwip/src/netif/slipif.c.obj
 .debug_info    0x00000000      0xa62 CMakeFiles/AHT20.dir/C_/VSARM/sdk/pico/pico-sdk/lib/lwip/src/netif/slipif.c.obj
 .debug_abbrev  0x00000000      0x32f CMakeFiles/AHT20.dir/C_/VSARM/sdk/pico/pico-sdk/lib/lwip/src/netif/slipif.c.obj
 .debug_loclists
                0x00000000      0x364 CMakeFiles/AHT20.dir/C_/VSARM/sdk/pico/pico-sdk/lib/lwip/src/netif/slipif.c.obj
 .debug_aranges
                0x00000000       0x48 CMakeFiles/AHT20.dir/C_/VSARM/sdk/pico/pico-sdk/lib/lwip/src/netif/slipif.c.obj
 .debug_rnglists
                0x00000000       0x33 CMakeFiles/AHT20.dir/C_/VSARM/sdk/pico/pico-sdk/lib/lwip/src/netif/slipif.c.obj
 .debug_line    0x00000000      0x691 CMakeFiles/AHT20.dir/C_/VSARM/sdk/pico/pico-sdk/lib/lwip/src/netif/slipif.c.obj
 .debug_str     0x00000000      0x568 CMakeFiles/AHT20.dir/C_/VSARM/sdk/pico/pico-sdk/lib/lwip/src/netif/slipif.c.obj
 .comment       0x00000000       0x46 CMakeFiles/AHT20.dir/C_/VSARM/sdk/pico/pico-sdk/lib/lwip/src/netif/slipif.c.obj
 .debug_frame   0x00000000       0xb4 CMakeFiles/AHT20.dir/C_/VSARM/sdk/pico/pico-sdk/lib/lwip/src/netif/slipif.c.obj
 .ARM.attributes
                0x00000000       0x2c CMakeFiles/AHT20.dir/C_/VSARM/sdk/pico/pico-sdk/lib/lwip/src/netif/slipif.c.obj
 .text          0x00000000        0x0 CMakeFiles/AHT20.dir/C_/VSARM/sdk/pico/pico-sdk/lib/lwip/src/netif/lowpan6_common.c.obj
 .data          0x00000000        0x0 CMakeFiles/AHT20.dir/C_/VSARM/sdk/pico/pico-sdk/lib/lwip/src/netif/lowpan6_common.c.obj
 .bss           0x00000000        0x0 CMakeFiles/AHT20.dir/C_/VSARM/sdk/pico/pico-sdk/lib/lwip/src/netif/lowpan6_common.c.obj
 .debug_info    0x00000000       0x73 CMakeFiles/AHT20.dir/C_/VSARM/sdk/pico/pico-sdk/lib/lwip/src/netif/lowpan6_common.c.obj
 .debug_abbrev  0x00000000       0x26 CMakeFiles/AHT20.dir/C_/VSARM/sdk/pico/pico-sdk/lib/lwip/src/netif/lowpan6_common.c.obj
 .debug_aranges
                0x00000000       0x18 CMakeFiles/AHT20.dir/C_/VSARM/sdk/pico/pico-sdk/lib/lwip/src/netif/lowpan6_common.c.obj
 .debug_line    0x00000000       0x5f CMakeFiles/AHT20.dir/C_/VSARM/sdk/pico/pico-sdk/lib/lwip/src/netif/lowpan6_common.c.obj
 .debug_str     0x00000000      0x189 CMakeFiles/AHT20.dir/C_/VSARM/sdk/pico/pico-sdk/lib/lwip/src/netif/lowpan6_common.c.obj
 .comment       0x00000000       0x46 CMakeFiles/AHT20.dir/C_/VSARM/sdk/pico/pico-sdk/lib/lwip/src/netif/lowpan6_common.c.obj
 .ARM.attributes
                0x00000000       0x2c CMakeFiles/AHT20.dir/C_/VSARM/sdk/pico/pico-sdk/lib/lwip/src/netif/lowpan6_common.c.obj
 .text          0x00000000        0x0 CMakeFiles/AHT20.dir/C_/VSARM/sdk/pico/pico-sdk/lib/lwip/src/netif/lowpan6.c.obj
 .data          0x00000000        0x0 CMakeFiles/AHT20.dir/C_/VSARM/sdk/pico/pico-sdk/lib/lwip/src/netif/lowpan6.c.obj
 .bss           0x00000000        0x0 CMakeFiles/AHT20.dir/C_/VSARM/sdk/pico/pico-sdk/lib/lwip/src/netif/lowpan6.c.obj
 .debug_info    0x00000000       0x73 CMakeFiles/AHT20.dir/C_/VSARM/sdk/pico/pico-sdk/lib/lwip/src/netif/lowpan6.c.obj
 .debug_abbrev  0x00000000       0x26 CMakeFiles/AHT20.dir/C_/VSARM/sdk/pico/pico-sdk/lib/lwip/src/netif/lowpan6.c.obj
 .debug_aranges
                0x00000000       0x18 CMakeFiles/AHT20.dir/C_/VSARM/sdk/pico/pico-sdk/lib/lwip/src/netif/lowpan6.c.obj
 .debug_line    0x00000000       0x58 CMakeFiles/AHT20.dir/C_/VSARM/sdk/pico/pico-sdk/lib/lwip/src/netif/lowpan6.c.obj
 .debug_str     0x00000000      0x182 CMakeFiles/AHT20.dir/C_/VSARM/sdk/pico/pico-sdk/lib/lwip/src/netif/lowpan6.c.obj
 .comment       0x00000000       0x46 CMakeFiles/AHT20.dir/C_/VSARM/sdk/pico/pico-sdk/lib/lwip/src/netif/lowpan6.c.obj
 .ARM.attributes
                0x00000000       0x2c CMakeFiles/AHT20.dir/C_/VSARM/sdk/pico/pico-sdk/lib/lwip/src/netif/lowpan6.c.obj
 .text          0x00000000        0x0 CMakeFiles/AHT20.dir/C_/VSARM/sdk/pico/pico-sdk/lib/lwip/src/netif/lowpan6_ble.c.obj
 .data          0x00000000        0x0 CMakeFiles/AHT20.dir/C_/VSARM/sdk/pico/pico-sdk/lib/lwip/src/netif/lowpan6_ble.c.obj
 .bss           0x00000000        0x0 CMakeFiles/AHT20.dir/C_/VSARM/sdk/pico/pico-sdk/lib/lwip/src/netif/lowpan6_ble.c.obj
 .debug_info    0x00000000       0x73 CMakeFiles/AHT20.dir/C_/VSARM/sdk/pico/pico-sdk/lib/lwip/src/netif/lowpan6_ble.c.obj
 .debug_abbrev  0x00000000       0x26 CMakeFiles/AHT20.dir/C_/VSARM/sdk/pico/pico-sdk/lib/lwip/src/netif/lowpan6_ble.c.obj
 .debug_aranges
                0x00000000       0x18 CMakeFiles/AHT20.dir/C_/VSARM/sdk/pico/pico-sdk/lib/lwip/src/netif/lowpan6_ble.c.obj
 .debug_line    0x00000000       0x5c CMakeFiles/AHT20.dir/C_/VSARM/sdk/pico/pico-sdk/lib/lwip/src/netif/lowpan6_ble.c.obj
 .debug_str     0x00000000      0x186 CMakeFiles/AHT20.dir/C_/VSARM/sdk/pico/pico-sdk/lib/lwip/src/netif/lowpan6_ble.c.obj
 .comment       0x00000000       0x46 CMakeFiles/AHT20.dir/C_/VSARM/sdk/pico/pico-sdk/lib/lwip/src/netif/lowpan6_ble.c.obj
 .ARM.attributes
                0x00000000       0x2c CMakeFiles/AHT20.dir/C_/VSARM/sdk/pico/pico-sdk/lib/lwip/src/netif/lowpan6_ble.c.obj
 .text          0x00000000        0x0 CMakeFiles/AHT20.dir/C_/VSARM/sdk/pico/pico-sdk/lib/lwip/src/netif/zepif.c.obj
 .data          0x00000000        0x0 CMakeFiles/AHT20.dir/C_/VSARM/sdk/pico/pico-sdk/lib/lwip/src/netif/zepif.c.obj
 .bss           0x00000000        0x0 CMakeFiles/AHT20.dir/C_/VSARM/sdk/pico/pico-sdk/lib/lwip/src/netif/zepif.c.obj
 .debug_info    0x00000000       0x73 CMakeFiles/AHT20.dir/C_/VSARM/sdk/pico/pico-sdk/lib/lwip/src/netif/zepif.c.obj
 .debug_abbrev  0x00000000       0x26 CMakeFiles/AHT20.dir/C_/VSARM/sdk/pico/pico-sdk/lib/lwip/src/netif/zepif.c.obj
 .debug_aranges
                0x00000000       0x18 CMakeFiles/AHT20.dir/C_/VSARM/sdk/pico/pico-sdk/lib/lwip/src/netif/zepif.c.obj
 .debug_line    0x00000000       0x56 CMakeFiles/AHT20.dir/C_/VSARM/sdk/pico/pico-sdk/lib/lwip/src/netif/zepif.c.obj
 .debug_str     0x00000000      0x180 CMakeFiles/AHT20.dir/C_/VSARM/sdk/pico/pico-sdk/lib/lwip/src/netif/zepif.c.obj
 .comment       0x00000000       0x46 CMakeFiles/AHT20.dir/C_/VSARM/sdk/pico/pico-sdk/lib/lwip/src/netif/zepif.c.obj
 .ARM.attributes
                0x00000000       0x2c CMakeFiles/AHT20.dir/C_/VSARM/sdk/pico/pico-sdk/lib/lwip/src/netif/zepif.c.obj
 .text          0x00000000        0x0 CMakeFiles/AHT20.dir/C_/VSARM/sdk/pico/pico-sdk/lib/lwip/src/netif/ppp/auth.c.obj
 .data          0x00000000        0x0 CMakeFiles/AHT20.dir/C_/VSARM/sdk/pico/pico-sdk/lib/lwip/src/netif/ppp/auth.c.obj
 .bss           0x00000000        0x0 CMakeFiles/AHT20.dir/C_/VSARM/sdk/pico/pico-sdk/lib/lwip/src/netif/ppp/auth.c.obj
 .debug_info    0x00000000       0x73 CMakeFiles/AHT20.dir/C_/VSARM/sdk/pico/pico-sdk/lib/lwip/src/netif/ppp/auth.c.obj
 .debug_abbrev  0x00000000       0x26 CMakeFiles/AHT20.dir/C_/VSARM/sdk/pico/pico-sdk/lib/lwip/src/netif/ppp/auth.c.obj
 .debug_aranges
                0x00000000       0x18 CMakeFiles/AHT20.dir/C_/VSARM/sdk/pico/pico-sdk/lib/lwip/src/netif/ppp/auth.c.obj
 .debug_line    0x00000000       0x59 CMakeFiles/AHT20.dir/C_/VSARM/sdk/pico/pico-sdk/lib/lwip/src/netif/ppp/auth.c.obj
 .debug_str     0x00000000      0x183 CMakeFiles/AHT20.dir/C_/VSARM/sdk/pico/pico-sdk/lib/lwip/src/netif/ppp/auth.c.obj
 .comment       0x00000000       0x46 CMakeFiles/AHT20.dir/C_/VSARM/sdk/pico/pico-sdk/lib/lwip/src/netif/ppp/auth.c.obj
 .ARM.attributes
                0x00000000       0x2c CMakeFiles/AHT20.dir/C_/VSARM/sdk/pico/pico-sdk/lib/lwip/src/netif/ppp/auth.c.obj
 .text          0x00000000        0x0 CMakeFiles/AHT20.dir/C_/VSARM/sdk/pico/pico-sdk/lib/lwip/src/netif/ppp/ccp.c.obj
 .data          0x00000000        0x0 CMakeFiles/AHT20.dir/C_/VSARM/sdk/pico/pico-sdk/lib/lwip/src/netif/ppp/ccp.c.obj
 .bss           0x00000000        0x0 CMakeFiles/AHT20.dir/C_/VSARM/sdk/pico/pico-sdk/lib/lwip/src/netif/ppp/ccp.c.obj
 .debug_info    0x00000000       0x73 CMakeFiles/AHT20.dir/C_/VSARM/sdk/pico/pico-sdk/lib/lwip/src/netif/ppp/ccp.c.obj
 .debug_abbrev  0x00000000       0x26 CMakeFiles/AHT20.dir/C_/VSARM/sdk/pico/pico-sdk/lib/lwip/src/netif/ppp/ccp.c.obj
 .debug_aranges
                0x00000000       0x18 CMakeFiles/AHT20.dir/C_/VSARM/sdk/pico/pico-sdk/lib/lwip/src/netif/ppp/ccp.c.obj
 .debug_line    0x00000000       0x58 CMakeFiles/AHT20.dir/C_/VSARM/sdk/pico/pico-sdk/lib/lwip/src/netif/ppp/ccp.c.obj
 .debug_str     0x00000000      0x182 CMakeFiles/AHT20.dir/C_/VSARM/sdk/pico/pico-sdk/lib/lwip/src/netif/ppp/ccp.c.obj
 .comment       0x00000000       0x46 CMakeFiles/AHT20.dir/C_/VSARM/sdk/pico/pico-sdk/lib/lwip/src/netif/ppp/ccp.c.obj
 .ARM.attributes
                0x00000000       0x2c CMakeFiles/AHT20.dir/C_/VSARM/sdk/pico/pico-sdk/lib/lwip/src/netif/ppp/ccp.c.obj
 .text          0x00000000        0x0 CMakeFiles/AHT20.dir/C_/VSARM/sdk/pico/pico-sdk/lib/lwip/src/netif/ppp/chap-md5.c.obj
 .data          0x00000000        0x0 CMakeFiles/AHT20.dir/C_/VSARM/sdk/pico/pico-sdk/lib/lwip/src/netif/ppp/chap-md5.c.obj
 .bss           0x00000000        0x0 CMakeFiles/AHT20.dir/C_/VSARM/sdk/pico/pico-sdk/lib/lwip/src/netif/ppp/chap-md5.c.obj
 .debug_info    0x00000000       0x73 CMakeFiles/AHT20.dir/C_/VSARM/sdk/pico/pico-sdk/lib/lwip/src/netif/ppp/chap-md5.c.obj
 .debug_abbrev  0x00000000       0x26 CMakeFiles/AHT20.dir/C_/VSARM/sdk/pico/pico-sdk/lib/lwip/src/netif/ppp/chap-md5.c.obj
 .debug_aranges
                0x00000000       0x18 CMakeFiles/AHT20.dir/C_/VSARM/sdk/pico/pico-sdk/lib/lwip/src/netif/ppp/chap-md5.c.obj
 .debug_line    0x00000000       0x5d CMakeFiles/AHT20.dir/C_/VSARM/sdk/pico/pico-sdk/lib/lwip/src/netif/ppp/chap-md5.c.obj
 .debug_str     0x00000000      0x187 CMakeFiles/AHT20.dir/C_/VSARM/sdk/pico/pico-sdk/lib/lwip/src/netif/ppp/chap-md5.c.obj
 .comment       0x00000000       0x46 CMakeFiles/AHT20.dir/C_/VSARM/sdk/pico/pico-sdk/lib/lwip/src/netif/ppp/chap-md5.c.obj
 .ARM.attributes
                0x00000000       0x2c CMakeFiles/AHT20.dir/C_/VSARM/sdk/pico/pico-sdk/lib/lwip/src/netif/ppp/chap-md5.c.obj
 .text          0x00000000        0x0 CMakeFiles/AHT20.dir/C_/VSARM/sdk/pico/pico-sdk/lib/lwip/src/netif/ppp/chap_ms.c.obj
 .data          0x00000000        0x0 CMakeFiles/AHT20.dir/C_/VSARM/sdk/pico/pico-sdk/lib/lwip/src/netif/ppp/chap_ms.c.obj
 .bss           0x00000000        0x0 CMakeFiles/AHT20.dir/C_/VSARM/sdk/pico/pico-sdk/lib/lwip/src/netif/ppp/chap_ms.c.obj
 .debug_info    0x00000000       0x73 CMakeFiles/AHT20.dir/C_/VSARM/sdk/pico/pico-sdk/lib/lwip/src/netif/ppp/chap_ms.c.obj
 .debug_abbrev  0x00000000       0x26 CMakeFiles/AHT20.dir/C_/VSARM/sdk/pico/pico-sdk/lib/lwip/src/netif/ppp/chap_ms.c.obj
 .debug_aranges
                0x00000000       0x18 CMakeFiles/AHT20.dir/C_/VSARM/sdk/pico/pico-sdk/lib/lwip/src/netif/ppp/chap_ms.c.obj
 .debug_line    0x00000000       0x5c CMakeFiles/AHT20.dir/C_/VSARM/sdk/pico/pico-sdk/lib/lwip/src/netif/ppp/chap_ms.c.obj
 .debug_str     0x00000000      0x186 CMakeFiles/AHT20.dir/C_/VSARM/sdk/pico/pico-sdk/lib/lwip/src/netif/ppp/chap_ms.c.obj
 .comment       0x00000000       0x46 CMakeFiles/AHT20.dir/C_/VSARM/sdk/pico/pico-sdk/lib/lwip/src/netif/ppp/chap_ms.c.obj
 .ARM.attributes
                0x00000000       0x2c CMakeFiles/AHT20.dir/C_/VSARM/sdk/pico/pico-sdk/lib/lwip/src/netif/ppp/chap_ms.c.obj
 .text          0x00000000        0x0 CMakeFiles/AHT20.dir/C_/VSARM/sdk/pico/pico-sdk/lib/lwip/src/netif/ppp/chap-new.c.obj
 .data          0x00000000        0x0 CMakeFiles/AHT20.dir/C_/VSARM/sdk/pico/pico-sdk/lib/lwip/src/netif/ppp/chap-new.c.obj
 .bss           0x00000000        0x0 CMakeFiles/AHT20.dir/C_/VSARM/sdk/pico/pico-sdk/lib/lwip/src/netif/ppp/chap-new.c.obj
 .debug_info    0x00000000       0x73 CMakeFiles/AHT20.dir/C_/VSARM/sdk/pico/pico-sdk/lib/lwip/src/netif/ppp/chap-new.c.obj
 .debug_abbrev  0x00000000       0x26 CMakeFiles/AHT20.dir/C_/VSARM/sdk/pico/pico-sdk/lib/lwip/src/netif/ppp/chap-new.c.obj
 .debug_aranges
                0x00000000       0x18 CMakeFiles/AHT20.dir/C_/VSARM/sdk/pico/pico-sdk/lib/lwip/src/netif/ppp/chap-new.c.obj
 .debug_line    0x00000000       0x5d CMakeFiles/AHT20.dir/C_/VSARM/sdk/pico/pico-sdk/lib/lwip/src/netif/ppp/chap-new.c.obj
 .debug_str     0x00000000      0x187 CMakeFiles/AHT20.dir/C_/VSARM/sdk/pico/pico-sdk/lib/lwip/src/netif/ppp/chap-new.c.obj
 .comment       0x00000000       0x46 CMakeFiles/AHT20.dir/C_/VSARM/sdk/pico/pico-sdk/lib/lwip/src/netif/ppp/chap-new.c.obj
 .ARM.attributes
                0x00000000       0x2c CMakeFiles/AHT20.dir/C_/VSARM/sdk/pico/pico-sdk/lib/lwip/src/netif/ppp/chap-new.c.obj
 .text          0x00000000        0x0 CMakeFiles/AHT20.dir/C_/VSARM/sdk/pico/pico-sdk/lib/lwip/src/netif/ppp/demand.c.obj
 .data          0x00000000        0x0 CMakeFiles/AHT20.dir/C_/VSARM/sdk/pico/pico-sdk/lib/lwip/src/netif/ppp/demand.c.obj
 .bss           0x00000000        0x0 CMakeFiles/AHT20.dir/C_/VSARM/sdk/pico/pico-sdk/lib/lwip/src/netif/ppp/demand.c.obj
 .debug_info    0x00000000       0x73 CMakeFiles/AHT20.dir/C_/VSARM/sdk/pico/pico-sdk/lib/lwip/src/netif/ppp/demand.c.obj
 .debug_abbrev  0x00000000       0x26 CMakeFiles/AHT20.dir/C_/VSARM/sdk/pico/pico-sdk/lib/lwip/src/netif/ppp/demand.c.obj
 .debug_aranges
                0x00000000       0x18 CMakeFiles/AHT20.dir/C_/VSARM/sdk/pico/pico-sdk/lib/lwip/src/netif/ppp/demand.c.obj
 .debug_line    0x00000000       0x5b CMakeFiles/AHT20.dir/C_/VSARM/sdk/pico/pico-sdk/lib/lwip/src/netif/ppp/demand.c.obj
 .debug_str     0x00000000      0x185 CMakeFiles/AHT20.dir/C_/VSARM/sdk/pico/pico-sdk/lib/lwip/src/netif/ppp/demand.c.obj
 .comment       0x00000000       0x46 CMakeFiles/AHT20.dir/C_/VSARM/sdk/pico/pico-sdk/lib/lwip/src/netif/ppp/demand.c.obj
 .ARM.attributes
                0x00000000       0x2c CMakeFiles/AHT20.dir/C_/VSARM/sdk/pico/pico-sdk/lib/lwip/src/netif/ppp/demand.c.obj
 .text          0x00000000        0x0 CMakeFiles/AHT20.dir/C_/VSARM/sdk/pico/pico-sdk/lib/lwip/src/netif/ppp/eap.c.obj
 .data          0x00000000        0x0 CMakeFiles/AHT20.dir/C_/VSARM/sdk/pico/pico-sdk/lib/lwip/src/netif/ppp/eap.c.obj
 .bss           0x00000000        0x0 CMakeFiles/AHT20.dir/C_/VSARM/sdk/pico/pico-sdk/lib/lwip/src/netif/ppp/eap.c.obj
 .debug_info    0x00000000       0x73 CMakeFiles/AHT20.dir/C_/VSARM/sdk/pico/pico-sdk/lib/lwip/src/netif/ppp/eap.c.obj
 .debug_abbrev  0x00000000       0x26 CMakeFiles/AHT20.dir/C_/VSARM/sdk/pico/pico-sdk/lib/lwip/src/netif/ppp/eap.c.obj
 .debug_aranges
                0x00000000       0x18 CMakeFiles/AHT20.dir/C_/VSARM/sdk/pico/pico-sdk/lib/lwip/src/netif/ppp/eap.c.obj
 .debug_line    0x00000000       0x58 CMakeFiles/AHT20.dir/C_/VSARM/sdk/pico/pico-sdk/lib/lwip/src/netif/ppp/eap.c.obj
 .debug_str     0x00000000      0x182 CMakeFiles/AHT20.dir/C_/VSARM/sdk/pico/pico-sdk/lib/lwip/src/netif/ppp/eap.c.obj
 .comment       0x00000000       0x46 CMakeFiles/AHT20.dir/C_/VSARM/sdk/pico/pico-sdk/lib/lwip/src/netif/ppp/eap.c.obj
 .ARM.attributes
                0x00000000       0x2c CMakeFiles/AHT20.dir/C_/VSARM/sdk/pico/pico-sdk/lib/lwip/src/netif/ppp/eap.c.obj
 .text          0x00000000        0x0 CMakeFiles/AHT20.dir/C_/VSARM/sdk/pico/pico-sdk/lib/lwip/src/netif/ppp/ecp.c.obj
 .data          0x00000000        0x0 CMakeFiles/AHT20.dir/C_/VSARM/sdk/pico/pico-sdk/lib/lwip/src/netif/ppp/ecp.c.obj
 .bss           0x00000000        0x0 CMakeFiles/AHT20.dir/C_/VSARM/sdk/pico/pico-sdk/lib/lwip/src/netif/ppp/ecp.c.obj
 .debug_info    0x00000000       0x73 CMakeFiles/AHT20.dir/C_/VSARM/sdk/pico/pico-sdk/lib/lwip/src/netif/ppp/ecp.c.obj
 .debug_abbrev  0x00000000       0x26 CMakeFiles/AHT20.dir/C_/VSARM/sdk/pico/pico-sdk/lib/lwip/src/netif/ppp/ecp.c.obj
 .debug_aranges
                0x00000000       0x18 CMakeFiles/AHT20.dir/C_/VSARM/sdk/pico/pico-sdk/lib/lwip/src/netif/ppp/ecp.c.obj
 .debug_line    0x00000000       0x58 CMakeFiles/AHT20.dir/C_/VSARM/sdk/pico/pico-sdk/lib/lwip/src/netif/ppp/ecp.c.obj
 .debug_str     0x00000000      0x182 CMakeFiles/AHT20.dir/C_/VSARM/sdk/pico/pico-sdk/lib/lwip/src/netif/ppp/ecp.c.obj
 .comment       0x00000000       0x46 CMakeFiles/AHT20.dir/C_/VSARM/sdk/pico/pico-sdk/lib/lwip/src/netif/ppp/ecp.c.obj
 .ARM.attributes
                0x00000000       0x2c CMakeFiles/AHT20.dir/C_/VSARM/sdk/pico/pico-sdk/lib/lwip/src/netif/ppp/ecp.c.obj
 .text          0x00000000        0x0 CMakeFiles/AHT20.dir/C_/VSARM/sdk/pico/pico-sdk/lib/lwip/src/netif/ppp/eui64.c.obj
 .data          0x00000000        0x0 CMakeFiles/AHT20.dir/C_/VSARM/sdk/pico/pico-sdk/lib/lwip/src/netif/ppp/eui64.c.obj
 .bss           0x00000000        0x0 CMakeFiles/AHT20.dir/C_/VSARM/sdk/pico/pico-sdk/lib/lwip/src/netif/ppp/eui64.c.obj
 .debug_info    0x00000000       0x73 CMakeFiles/AHT20.dir/C_/VSARM/sdk/pico/pico-sdk/lib/lwip/src/netif/ppp/eui64.c.obj
 .debug_abbrev  0x00000000       0x26 CMakeFiles/AHT20.dir/C_/VSARM/sdk/pico/pico-sdk/lib/lwip/src/netif/ppp/eui64.c.obj
 .debug_aranges
                0x00000000       0x18 CMakeFiles/AHT20.dir/C_/VSARM/sdk/pico/pico-sdk/lib/lwip/src/netif/ppp/eui64.c.obj
 .debug_line    0x00000000       0x5a CMakeFiles/AHT20.dir/C_/VSARM/sdk/pico/pico-sdk/lib/lwip/src/netif/ppp/eui64.c.obj
 .debug_str     0x00000000      0x184 CMakeFiles/AHT20.dir/C_/VSARM/sdk/pico/pico-sdk/lib/lwip/src/netif/ppp/eui64.c.obj
 .comment       0x00000000       0x46 CMakeFiles/AHT20.dir/C_/VSARM/sdk/pico/pico-sdk/lib/lwip/src/netif/ppp/eui64.c.obj
 .ARM.attributes
                0x00000000       0x2c CMakeFiles/AHT20.dir/C_/VSARM/sdk/pico/pico-sdk/lib/lwip/src/netif/ppp/eui64.c.obj
 .text          0x00000000        0x0 CMakeFiles/AHT20.dir/C_/VSARM/sdk/pico/pico-sdk/lib/lwip/src/netif/ppp/fsm.c.obj
 .data          0x00000000        0x0 CMakeFiles/AHT20.dir/C_/VSARM/sdk/pico/pico-sdk/lib/lwip/src/netif/ppp/fsm.c.obj
 .bss           0x00000000        0x0 CMakeFiles/AHT20.dir/C_/VSARM/sdk/pico/pico-sdk/lib/lwip/src/netif/ppp/fsm.c.obj
 .debug_info    0x00000000       0x73 CMakeFiles/AHT20.dir/C_/VSARM/sdk/pico/pico-sdk/lib/lwip/src/netif/ppp/fsm.c.obj
 .debug_abbrev  0x00000000       0x26 CMakeFiles/AHT20.dir/C_/VSARM/sdk/pico/pico-sdk/lib/lwip/src/netif/ppp/fsm.c.obj
 .debug_aranges
                0x00000000       0x18 CMakeFiles/AHT20.dir/C_/VSARM/sdk/pico/pico-sdk/lib/lwip/src/netif/ppp/fsm.c.obj
 .debug_line    0x00000000       0x58 CMakeFiles/AHT20.dir/C_/VSARM/sdk/pico/pico-sdk/lib/lwip/src/netif/ppp/fsm.c.obj
 .debug_str     0x00000000      0x182 CMakeFiles/AHT20.dir/C_/VSARM/sdk/pico/pico-sdk/lib/lwip/src/netif/ppp/fsm.c.obj
 .comment       0x00000000       0x46 CMakeFiles/AHT20.dir/C_/VSARM/sdk/pico/pico-sdk/lib/lwip/src/netif/ppp/fsm.c.obj
 .ARM.attributes
                0x00000000       0x2c CMakeFiles/AHT20.dir/C_/VSARM/sdk/pico/pico-sdk/lib/lwip/src/netif/ppp/fsm.c.obj
 .text          0x00000000        0x0 CMakeFiles/AHT20.dir/C_/VSARM/sdk/pico/pico-sdk/lib/lwip/src/netif/ppp/ipcp.c.obj
 .data          0x00000000        0x0 CMakeFiles/AHT20.dir/C_/VSARM/sdk/pico/pico-sdk/lib/lwip/src/netif/ppp/ipcp.c.obj
 .bss           0x00000000        0x0 CMakeFiles/AHT20.dir/C_/VSARM/sdk/pico/pico-sdk/lib/lwip/src/netif/ppp/ipcp.c.obj
 .debug_info    0x00000000       0x73 CMakeFiles/AHT20.dir/C_/VSARM/sdk/pico/pico-sdk/lib/lwip/src/netif/ppp/ipcp.c.obj
 .debug_abbrev  0x00000000       0x26 CMakeFiles/AHT20.dir/C_/VSARM/sdk/pico/pico-sdk/lib/lwip/src/netif/ppp/ipcp.c.obj
 .debug_aranges
                0x00000000       0x18 CMakeFiles/AHT20.dir/C_/VSARM/sdk/pico/pico-sdk/lib/lwip/src/netif/ppp/ipcp.c.obj
 .debug_line    0x00000000       0x59 CMakeFiles/AHT20.dir/C_/VSARM/sdk/pico/pico-sdk/lib/lwip/src/netif/ppp/ipcp.c.obj
 .debug_str     0x00000000      0x183 CMakeFiles/AHT20.dir/C_/VSARM/sdk/pico/pico-sdk/lib/lwip/src/netif/ppp/ipcp.c.obj
 .comment       0x00000000       0x46 CMakeFiles/AHT20.dir/C_/VSARM/sdk/pico/pico-sdk/lib/lwip/src/netif/ppp/ipcp.c.obj
 .ARM.attributes
                0x00000000       0x2c CMakeFiles/AHT20.dir/C_/VSARM/sdk/pico/pico-sdk/lib/lwip/src/netif/ppp/ipcp.c.obj
 .text          0x00000000        0x0 CMakeFiles/AHT20.dir/C_/VSARM/sdk/pico/pico-sdk/lib/lwip/src/netif/ppp/ipv6cp.c.obj
 .data          0x00000000        0x0 CMakeFiles/AHT20.dir/C_/VSARM/sdk/pico/pico-sdk/lib/lwip/src/netif/ppp/ipv6cp.c.obj
 .bss           0x00000000        0x0 CMakeFiles/AHT20.dir/C_/VSARM/sdk/pico/pico-sdk/lib/lwip/src/netif/ppp/ipv6cp.c.obj
 .debug_info    0x00000000       0x73 CMakeFiles/AHT20.dir/C_/VSARM/sdk/pico/pico-sdk/lib/lwip/src/netif/ppp/ipv6cp.c.obj
 .debug_abbrev  0x00000000       0x26 CMakeFiles/AHT20.dir/C_/VSARM/sdk/pico/pico-sdk/lib/lwip/src/netif/ppp/ipv6cp.c.obj
 .debug_aranges
                0x00000000       0x18 CMakeFiles/AHT20.dir/C_/VSARM/sdk/pico/pico-sdk/lib/lwip/src/netif/ppp/ipv6cp.c.obj
 .debug_line    0x00000000       0x5b CMakeFiles/AHT20.dir/C_/VSARM/sdk/pico/pico-sdk/lib/lwip/src/netif/ppp/ipv6cp.c.obj
 .debug_str     0x00000000      0x185 CMakeFiles/AHT20.dir/C_/VSARM/sdk/pico/pico-sdk/lib/lwip/src/netif/ppp/ipv6cp.c.obj
 .comment       0x00000000       0x46 CMakeFiles/AHT20.dir/C_/VSARM/sdk/pico/pico-sdk/lib/lwip/src/netif/ppp/ipv6cp.c.obj
 .ARM.attributes
                0x00000000       0x2c CMakeFiles/AHT20.dir/C_/VSARM/sdk/pico/pico-sdk/lib/lwip/src/netif/ppp/ipv6cp.c.obj
 .text          0x00000000        0x0 CMakeFiles/AHT20.dir/C_/VSARM/sdk/pico/pico-sdk/lib/lwip/src/netif/ppp/lcp.c.obj
 .data          0x00000000        0x0 CMakeFiles/AHT20.dir/C_/VSARM/sdk/pico/pico-sdk/lib/lwip/src/netif/ppp/lcp.c.obj
 .bss           0x00000000        0x0 CMakeFiles/AHT20.dir/C_/VSARM/sdk/pico/pico-sdk/lib/lwip/src/netif/ppp/lcp.c.obj
 .debug_info    0x00000000       0x73 CMakeFiles/AHT20.dir/C_/VSARM/sdk/pico/pico-sdk/lib/lwip/src/netif/ppp/lcp.c.obj
 .debug_abbrev  0x00000000       0x26 CMakeFiles/AHT20.dir/C_/VSARM/sdk/pico/pico-sdk/lib/lwip/src/netif/ppp/lcp.c.obj
 .debug_aranges
                0x00000000       0x18 CMakeFiles/AHT20.dir/C_/VSARM/sdk/pico/pico-sdk/lib/lwip/src/netif/ppp/lcp.c.obj
 .debug_line    0x00000000       0x58 CMakeFiles/AHT20.dir/C_/VSARM/sdk/pico/pico-sdk/lib/lwip/src/netif/ppp/lcp.c.obj
 .debug_str     0x00000000      0x182 CMakeFiles/AHT20.dir/C_/VSARM/sdk/pico/pico-sdk/lib/lwip/src/netif/ppp/lcp.c.obj
 .comment       0x00000000       0x46 CMakeFiles/AHT20.dir/C_/VSARM/sdk/pico/pico-sdk/lib/lwip/src/netif/ppp/lcp.c.obj
 .ARM.attributes
                0x00000000       0x2c CMakeFiles/AHT20.dir/C_/VSARM/sdk/pico/pico-sdk/lib/lwip/src/netif/ppp/lcp.c.obj
 .text          0x00000000        0x0 CMakeFiles/AHT20.dir/C_/VSARM/sdk/pico/pico-sdk/lib/lwip/src/netif/ppp/magic.c.obj
 .data          0x00000000        0x0 CMakeFiles/AHT20.dir/C_/VSARM/sdk/pico/pico-sdk/lib/lwip/src/netif/ppp/magic.c.obj
 .bss           0x00000000        0x0 CMakeFiles/AHT20.dir/C_/VSARM/sdk/pico/pico-sdk/lib/lwip/src/netif/ppp/magic.c.obj
 .debug_info    0x00000000       0x73 CMakeFiles/AHT20.dir/C_/VSARM/sdk/pico/pico-sdk/lib/lwip/src/netif/ppp/magic.c.obj
 .debug_abbrev  0x00000000       0x26 CMakeFiles/AHT20.dir/C_/VSARM/sdk/pico/pico-sdk/lib/lwip/src/netif/ppp/magic.c.obj
 .debug_aranges
                0x00000000       0x18 CMakeFiles/AHT20.dir/C_/VSARM/sdk/pico/pico-sdk/lib/lwip/src/netif/ppp/magic.c.obj
 .debug_line    0x00000000       0x5a CMakeFiles/AHT20.dir/C_/VSARM/sdk/pico/pico-sdk/lib/lwip/src/netif/ppp/magic.c.obj
 .debug_str     0x00000000      0x184 CMakeFiles/AHT20.dir/C_/VSARM/sdk/pico/pico-sdk/lib/lwip/src/netif/ppp/magic.c.obj
 .comment       0x00000000       0x46 CMakeFiles/AHT20.dir/C_/VSARM/sdk/pico/pico-sdk/lib/lwip/src/netif/ppp/magic.c.obj
 .ARM.attributes
                0x00000000       0x2c CMakeFiles/AHT20.dir/C_/VSARM/sdk/pico/pico-sdk/lib/lwip/src/netif/ppp/magic.c.obj
 .text          0x00000000        0x0 CMakeFiles/AHT20.dir/C_/VSARM/sdk/pico/pico-sdk/lib/lwip/src/netif/ppp/mppe.c.obj
 .data          0x00000000        0x0 CMakeFiles/AHT20.dir/C_/VSARM/sdk/pico/pico-sdk/lib/lwip/src/netif/ppp/mppe.c.obj
 .bss           0x00000000        0x0 CMakeFiles/AHT20.dir/C_/VSARM/sdk/pico/pico-sdk/lib/lwip/src/netif/ppp/mppe.c.obj
 .debug_info    0x00000000       0x73 CMakeFiles/AHT20.dir/C_/VSARM/sdk/pico/pico-sdk/lib/lwip/src/netif/ppp/mppe.c.obj
 .debug_abbrev  0x00000000       0x26 CMakeFiles/AHT20.dir/C_/VSARM/sdk/pico/pico-sdk/lib/lwip/src/netif/ppp/mppe.c.obj
 .debug_aranges
                0x00000000       0x18 CMakeFiles/AHT20.dir/C_/VSARM/sdk/pico/pico-sdk/lib/lwip/src/netif/ppp/mppe.c.obj
 .debug_line    0x00000000       0x59 CMakeFiles/AHT20.dir/C_/VSARM/sdk/pico/pico-sdk/lib/lwip/src/netif/ppp/mppe.c.obj
 .debug_str     0x00000000      0x183 CMakeFiles/AHT20.dir/C_/VSARM/sdk/pico/pico-sdk/lib/lwip/src/netif/ppp/mppe.c.obj
 .comment       0x00000000       0x46 CMakeFiles/AHT20.dir/C_/VSARM/sdk/pico/pico-sdk/lib/lwip/src/netif/ppp/mppe.c.obj
 .ARM.attributes
                0x00000000       0x2c CMakeFiles/AHT20.dir/C_/VSARM/sdk/pico/pico-sdk/lib/lwip/src/netif/ppp/mppe.c.obj
 .text          0x00000000        0x0 CMakeFiles/AHT20.dir/C_/VSARM/sdk/pico/pico-sdk/lib/lwip/src/netif/ppp/multilink.c.obj
 .data          0x00000000        0x0 CMakeFiles/AHT20.dir/C_/VSARM/sdk/pico/pico-sdk/lib/lwip/src/netif/ppp/multilink.c.obj
 .bss           0x00000000        0x0 CMakeFiles/AHT20.dir/C_/VSARM/sdk/pico/pico-sdk/lib/lwip/src/netif/ppp/multilink.c.obj
 .debug_info    0x00000000       0x73 CMakeFiles/AHT20.dir/C_/VSARM/sdk/pico/pico-sdk/lib/lwip/src/netif/ppp/multilink.c.obj
 .debug_abbrev  0x00000000       0x26 CMakeFiles/AHT20.dir/C_/VSARM/sdk/pico/pico-sdk/lib/lwip/src/netif/ppp/multilink.c.obj
 .debug_aranges
                0x00000000       0x18 CMakeFiles/AHT20.dir/C_/VSARM/sdk/pico/pico-sdk/lib/lwip/src/netif/ppp/multilink.c.obj
 .debug_line    0x00000000       0x5e CMakeFiles/AHT20.dir/C_/VSARM/sdk/pico/pico-sdk/lib/lwip/src/netif/ppp/multilink.c.obj
 .debug_str     0x00000000      0x188 CMakeFiles/AHT20.dir/C_/VSARM/sdk/pico/pico-sdk/lib/lwip/src/netif/ppp/multilink.c.obj
 .comment       0x00000000       0x46 CMakeFiles/AHT20.dir/C_/VSARM/sdk/pico/pico-sdk/lib/lwip/src/netif/ppp/multilink.c.obj
 .ARM.attributes
                0x00000000       0x2c CMakeFiles/AHT20.dir/C_/VSARM/sdk/pico/pico-sdk/lib/lwip/src/netif/ppp/multilink.c.obj
 .text          0x00000000        0x0 CMakeFiles/AHT20.dir/C_/VSARM/sdk/pico/pico-sdk/lib/lwip/src/netif/ppp/ppp.c.obj
 .data          0x00000000        0x0 CMakeFiles/AHT20.dir/C_/VSARM/sdk/pico/pico-sdk/lib/lwip/src/netif/ppp/ppp.c.obj
 .bss           0x00000000        0x0 CMakeFiles/AHT20.dir/C_/VSARM/sdk/pico/pico-sdk/lib/lwip/src/netif/ppp/ppp.c.obj
 .debug_info    0x00000000       0x73 CMakeFiles/AHT20.dir/C_/VSARM/sdk/pico/pico-sdk/lib/lwip/src/netif/ppp/ppp.c.obj
 .debug_abbrev  0x00000000       0x26 CMakeFiles/AHT20.dir/C_/VSARM/sdk/pico/pico-sdk/lib/lwip/src/netif/ppp/ppp.c.obj
 .debug_aranges
                0x00000000       0x18 CMakeFiles/AHT20.dir/C_/VSARM/sdk/pico/pico-sdk/lib/lwip/src/netif/ppp/ppp.c.obj
 .debug_line    0x00000000       0x58 CMakeFiles/AHT20.dir/C_/VSARM/sdk/pico/pico-sdk/lib/lwip/src/netif/ppp/ppp.c.obj
 .debug_str     0x00000000      0x182 CMakeFiles/AHT20.dir/C_/VSARM/sdk/pico/pico-sdk/lib/lwip/src/netif/ppp/ppp.c.obj
 .comment       0x00000000       0x46 CMakeFiles/AHT20.dir/C_/VSARM/sdk/pico/pico-sdk/lib/lwip/src/netif/ppp/ppp.c.obj
 .ARM.attributes
                0x00000000       0x2c CMakeFiles/AHT20.dir/C_/VSARM/sdk/pico/pico-sdk/lib/lwip/src/netif/ppp/ppp.c.obj
 .text          0x00000000        0x0 CMakeFiles/AHT20.dir/C_/VSARM/sdk/pico/pico-sdk/lib/lwip/src/netif/ppp/pppapi.c.obj
 .data          0x00000000        0x0 CMakeFiles/AHT20.dir/C_/VSARM/sdk/pico/pico-sdk/lib/lwip/src/netif/ppp/pppapi.c.obj
 .bss           0x00000000        0x0 CMakeFiles/AHT20.dir/C_/VSARM/sdk/pico/pico-sdk/lib/lwip/src/netif/ppp/pppapi.c.obj
 .debug_info    0x00000000       0x73 CMakeFiles/AHT20.dir/C_/VSARM/sdk/pico/pico-sdk/lib/lwip/src/netif/ppp/pppapi.c.obj
 .debug_abbrev  0x00000000       0x26 CMakeFiles/AHT20.dir/C_/VSARM/sdk/pico/pico-sdk/lib/lwip/src/netif/ppp/pppapi.c.obj
 .debug_aranges
                0x00000000       0x18 CMakeFiles/AHT20.dir/C_/VSARM/sdk/pico/pico-sdk/lib/lwip/src/netif/ppp/pppapi.c.obj
 .debug_line    0x00000000       0x5b CMakeFiles/AHT20.dir/C_/VSARM/sdk/pico/pico-sdk/lib/lwip/src/netif/ppp/pppapi.c.obj
 .debug_str     0x00000000      0x185 CMakeFiles/AHT20.dir/C_/VSARM/sdk/pico/pico-sdk/lib/lwip/src/netif/ppp/pppapi.c.obj
 .comment       0x00000000       0x46 CMakeFiles/AHT20.dir/C_/VSARM/sdk/pico/pico-sdk/lib/lwip/src/netif/ppp/pppapi.c.obj
 .ARM.attributes
                0x00000000       0x2c CMakeFiles/AHT20.dir/C_/VSARM/sdk/pico/pico-sdk/lib/lwip/src/netif/ppp/pppapi.c.obj
 .text          0x00000000        0x0 CMakeFiles/AHT20.dir/C_/VSARM/sdk/pico/pico-sdk/lib/lwip/src/netif/ppp/pppcrypt.c.obj
 .data          0x00000000        0x0 CMakeFiles/AHT20.dir/C_/VSARM/sdk/pico/pico-sdk/lib/lwip/src/netif/ppp/pppcrypt.c.obj
 .bss           0x00000000        0x0 CMakeFiles/AHT20.dir/C_/VSARM/sdk/pico/pico-sdk/lib/lwip/src/netif/ppp/pppcrypt.c.obj
 .debug_info    0x00000000       0x73 CMakeFiles/AHT20.dir/C_/VSARM/sdk/pico/pico-sdk/lib/lwip/src/netif/ppp/pppcrypt.c.obj
 .debug_abbrev  0x00000000       0x26 CMakeFiles/AHT20.dir/C_/VSARM/sdk/pico/pico-sdk/lib/lwip/src/netif/ppp/pppcrypt.c.obj
 .debug_aranges
                0x00000000       0x18 CMakeFiles/AHT20.dir/C_/VSARM/sdk/pico/pico-sdk/lib/lwip/src/netif/ppp/pppcrypt.c.obj
 .debug_line    0x00000000       0x5d CMakeFiles/AHT20.dir/C_/VSARM/sdk/pico/pico-sdk/lib/lwip/src/netif/ppp/pppcrypt.c.obj
 .debug_str     0x00000000      0x187 CMakeFiles/AHT20.dir/C_/VSARM/sdk/pico/pico-sdk/lib/lwip/src/netif/ppp/pppcrypt.c.obj
 .comment       0x00000000       0x46 CMakeFiles/AHT20.dir/C_/VSARM/sdk/pico/pico-sdk/lib/lwip/src/netif/ppp/pppcrypt.c.obj
 .ARM.attributes
                0x00000000       0x2c CMakeFiles/AHT20.dir/C_/VSARM/sdk/pico/pico-sdk/lib/lwip/src/netif/ppp/pppcrypt.c.obj
 .text          0x00000000        0x0 CMakeFiles/AHT20.dir/C_/VSARM/sdk/pico/pico-sdk/lib/lwip/src/netif/ppp/pppoe.c.obj
 .data          0x00000000        0x0 CMakeFiles/AHT20.dir/C_/VSARM/sdk/pico/pico-sdk/lib/lwip/src/netif/ppp/pppoe.c.obj
 .bss           0x00000000        0x0 CMakeFiles/AHT20.dir/C_/VSARM/sdk/pico/pico-sdk/lib/lwip/src/netif/ppp/pppoe.c.obj
 .debug_info    0x00000000       0x73 CMakeFiles/AHT20.dir/C_/VSARM/sdk/pico/pico-sdk/lib/lwip/src/netif/ppp/pppoe.c.obj
 .debug_abbrev  0x00000000       0x26 CMakeFiles/AHT20.dir/C_/VSARM/sdk/pico/pico-sdk/lib/lwip/src/netif/ppp/pppoe.c.obj
 .debug_aranges
                0x00000000       0x18 CMakeFiles/AHT20.dir/C_/VSARM/sdk/pico/pico-sdk/lib/lwip/src/netif/ppp/pppoe.c.obj
 .debug_line    0x00000000       0x5a CMakeFiles/AHT20.dir/C_/VSARM/sdk/pico/pico-sdk/lib/lwip/src/netif/ppp/pppoe.c.obj
 .debug_str     0x00000000      0x184 CMakeFiles/AHT20.dir/C_/VSARM/sdk/pico/pico-sdk/lib/lwip/src/netif/ppp/pppoe.c.obj
 .comment       0x00000000       0x46 CMakeFiles/AHT20.dir/C_/VSARM/sdk/pico/pico-sdk/lib/lwip/src/netif/ppp/pppoe.c.obj
 .ARM.attributes
                0x00000000       0x2c CMakeFiles/AHT20.dir/C_/VSARM/sdk/pico/pico-sdk/lib/lwip/src/netif/ppp/pppoe.c.obj
 .text          0x00000000        0x0 CMakeFiles/AHT20.dir/C_/VSARM/sdk/pico/pico-sdk/lib/lwip/src/netif/ppp/pppol2tp.c.obj
 .data          0x00000000        0x0 CMakeFiles/AHT20.dir/C_/VSARM/sdk/pico/pico-sdk/lib/lwip/src/netif/ppp/pppol2tp.c.obj
 .bss           0x00000000        0x0 CMakeFiles/AHT20.dir/C_/VSARM/sdk/pico/pico-sdk/lib/lwip/src/netif/ppp/pppol2tp.c.obj
 .debug_info    0x00000000       0x73 CMakeFiles/AHT20.dir/C_/VSARM/sdk/pico/pico-sdk/lib/lwip/src/netif/ppp/pppol2tp.c.obj
 .debug_abbrev  0x00000000       0x26 CMakeFiles/AHT20.dir/C_/VSARM/sdk/pico/pico-sdk/lib/lwip/src/netif/ppp/pppol2tp.c.obj
 .debug_aranges
                0x00000000       0x18 CMakeFiles/AHT20.dir/C_/VSARM/sdk/pico/pico-sdk/lib/lwip/src/netif/ppp/pppol2tp.c.obj
 .debug_line    0x00000000       0x5d CMakeFiles/AHT20.dir/C_/VSARM/sdk/pico/pico-sdk/lib/lwip/src/netif/ppp/pppol2tp.c.obj
 .debug_str     0x00000000      0x187 CMakeFiles/AHT20.dir/C_/VSARM/sdk/pico/pico-sdk/lib/lwip/src/netif/ppp/pppol2tp.c.obj
 .comment       0x00000000       0x46 CMakeFiles/AHT20.dir/C_/VSARM/sdk/pico/pico-sdk/lib/lwip/src/netif/ppp/pppol2tp.c.obj
 .ARM.attributes
                0x00000000       0x2c CMakeFiles/AHT20.dir/C_/VSARM/sdk/pico/pico-sdk/lib/lwip/src/netif/ppp/pppol2tp.c.obj
 .text          0x00000000        0x0 CMakeFiles/AHT20.dir/C_/VSARM/sdk/pico/pico-sdk/lib/lwip/src/netif/ppp/pppos.c.obj
 .data          0x00000000        0x0 CMakeFiles/AHT20.dir/C_/VSARM/sdk/pico/pico-sdk/lib/lwip/src/netif/ppp/pppos.c.obj
 .bss           0x00000000        0x0 CMakeFiles/AHT20.dir/C_/VSARM/sdk/pico/pico-sdk/lib/lwip/src/netif/ppp/pppos.c.obj
 .debug_info    0x00000000       0x73 CMakeFiles/AHT20.dir/C_/VSARM/sdk/pico/pico-sdk/lib/lwip/src/netif/ppp/pppos.c.obj
 .debug_abbrev  0x00000000       0x26 CMakeFiles/AHT20.dir/C_/VSARM/sdk/pico/pico-sdk/lib/lwip/src/netif/ppp/pppos.c.obj
 .debug_aranges
                0x00000000       0x18 CMakeFiles/AHT20.dir/C_/VSARM/sdk/pico/pico-sdk/lib/lwip/src/netif/ppp/pppos.c.obj
 .debug_line    0x00000000       0x5a CMakeFiles/AHT20.dir/C_/VSARM/sdk/pico/pico-sdk/lib/lwip/src/netif/ppp/pppos.c.obj
 .debug_str     0x00000000      0x184 CMakeFiles/AHT20.dir/C_/VSARM/sdk/pico/pico-sdk/lib/lwip/src/netif/ppp/pppos.c.obj
 .comment       0x00000000       0x46 CMakeFiles/AHT20.dir/C_/VSARM/sdk/pico/pico-sdk/lib/lwip/src/netif/ppp/pppos.c.obj
 .ARM.attributes
                0x00000000       0x2c CMakeFiles/AHT20.dir/C_/VSARM/sdk/pico/pico-sdk/lib/lwip/src/netif/ppp/pppos.c.obj
 .text          0x00000000        0x0 CMakeFiles/AHT20.dir/C_/VSARM/sdk/pico/pico-sdk/lib/lwip/src/netif/ppp/upap.c.obj
 .data          0x00000000        0x0 CMakeFiles/AHT20.dir/C_/VSARM/sdk/pico/pico-sdk/lib/lwip/src/netif/ppp/upap.c.obj
 .bss           0x00000000        0x0 CMakeFiles/AHT20.dir/C_/VSARM/sdk/pico/pico-sdk/lib/lwip/src/netif/ppp/upap.c.obj
 .debug_info    0x00000000       0x73 CMakeFiles/AHT20.dir/C_/VSARM/sdk/pico/pico-sdk/lib/lwip/src/netif/ppp/upap.c.obj
 .debug_abbrev  0x00000000       0x26 CMakeFiles/AHT20.dir/C_/VSARM/sdk/pico/pico-sdk/lib/lwip/src/netif/ppp/upap.c.obj
 .debug_aranges
                0x00000000       0x18 CMakeFiles/AHT20.dir/C_/VSARM/sdk/pico/pico-sdk/lib/lwip/src/netif/ppp/upap.c.obj
 .debug_line    0x00000000       0x59 CMakeFiles/AHT20.dir/C_/VSARM/sdk/pico/pico-sdk/lib/lwip/src/netif/ppp/upap.c.obj
 .debug_str     0x00000000      0x183 CMakeFiles/AHT20.dir/C_/VSARM/sdk/pico/pico-sdk/lib/lwip/src/netif/ppp/upap.c.obj
 .comment       0x00000000       0x46 CMakeFiles/AHT20.dir/C_/VSARM/sdk/pico/pico-sdk/lib/lwip/src/netif/ppp/upap.c.obj
 .ARM.attributes
                0x00000000       0x2c CMakeFiles/AHT20.dir/C_/VSARM/sdk/pico/pico-sdk/lib/lwip/src/netif/ppp/upap.c.obj
 .text          0x00000000        0x0 CMakeFiles/AHT20.dir/C_/VSARM/sdk/pico/pico-sdk/lib/lwip/src/netif/ppp/utils.c.obj
 .data          0x00000000        0x0 CMakeFiles/AHT20.dir/C_/VSARM/sdk/pico/pico-sdk/lib/lwip/src/netif/ppp/utils.c.obj
 .bss           0x00000000        0x0 CMakeFiles/AHT20.dir/C_/VSARM/sdk/pico/pico-sdk/lib/lwip/src/netif/ppp/utils.c.obj
 .debug_info    0x00000000       0x73 CMakeFiles/AHT20.dir/C_/VSARM/sdk/pico/pico-sdk/lib/lwip/src/netif/ppp/utils.c.obj
 .debug_abbrev  0x00000000       0x26 CMakeFiles/AHT20.dir/C_/VSARM/sdk/pico/pico-sdk/lib/lwip/src/netif/ppp/utils.c.obj
 .debug_aranges
                0x00000000       0x18 CMakeFiles/AHT20.dir/C_/VSARM/sdk/pico/pico-sdk/lib/lwip/src/netif/ppp/utils.c.obj
 .debug_line    0x00000000       0x5a CMakeFiles/AHT20.dir/C_/VSARM/sdk/pico/pico-sdk/lib/lwip/src/netif/ppp/utils.c.obj
 .debug_str     0x00000000      0x184 CMakeFiles/AHT20.dir/C_/VSARM/sdk/pico/pico-sdk/lib/lwip/src/netif/ppp/utils.c.obj
 .comment       0x00000000       0x46 CMakeFiles/AHT20.dir/C_/VSARM/sdk/pico/pico-sdk/lib/lwip/src/netif/ppp/utils.c.obj
 .ARM.attributes
                0x00000000       0x2c CMakeFiles/AHT20.dir/C_/VSARM/sdk/pico/pico-sdk/lib/lwip/src/netif/ppp/utils.c.obj
 .text          0x00000000        0x0 CMakeFiles/AHT20.dir/C_/VSARM/sdk/pico/pico-sdk/lib/lwip/src/netif/ppp/vj.c.obj
 .data          0x00000000        0x0 CMakeFiles/AHT20.dir/C_/VSARM/sdk/pico/pico-sdk/lib/lwip/src/netif/ppp/vj.c.obj
 .bss           0x00000000        0x0 CMakeFiles/AHT20.dir/C_/VSARM/sdk/pico/pico-sdk/lib/lwip/src/netif/ppp/vj.c.obj
 .debug_info    0x00000000       0x73 CMakeFiles/AHT20.dir/C_/VSARM/sdk/pico/pico-sdk/lib/lwip/src/netif/ppp/vj.c.obj
 .debug_abbrev  0x00000000       0x26 CMakeFiles/AHT20.dir/C_/VSARM/sdk/pico/pico-sdk/lib/lwip/src/netif/ppp/vj.c.obj
 .debug_aranges
                0x00000000       0x18 CMakeFiles/AHT20.dir/C_/VSARM/sdk/pico/pico-sdk/lib/lwip/src/netif/ppp/vj.c.obj
 .debug_line    0x00000000       0x57 CMakeFiles/AHT20.dir/C_/VSARM/sdk/pico/pico-sdk/lib/lwip/src/netif/ppp/vj.c.obj
 .debug_str     0x00000000      0x181 CMakeFiles/AHT20.dir/C_/VSARM/sdk/pico/pico-sdk/lib/lwip/src/netif/ppp/vj.c.obj
 .comment       0x00000000       0x46 CMakeFiles/AHT20.dir/C_/VSARM/sdk/pico/pico-sdk/lib/lwip/src/netif/ppp/vj.c.obj
 .ARM.attributes
                0x00000000       0x2c CMakeFiles/AHT20.dir/C_/VSARM/sdk/pico/pico-sdk/lib/lwip/src/netif/ppp/vj.c.obj
 .text          0x00000000        0x0 CMakeFiles/AHT20.dir/C_/VSARM/sdk/pico/pico-sdk/lib/lwip/src/netif/ppp/polarssl/arc4.c.obj
 .data          0x00000000        0x0 CMakeFiles/AHT20.dir/C_/VSARM/sdk/pico/pico-sdk/lib/lwip/src/netif/ppp/polarssl/arc4.c.obj
 .bss           0x00000000        0x0 CMakeFiles/AHT20.dir/C_/VSARM/sdk/pico/pico-sdk/lib/lwip/src/netif/ppp/polarssl/arc4.c.obj
 .debug_info    0x00000000       0x73 CMakeFiles/AHT20.dir/C_/VSARM/sdk/pico/pico-sdk/lib/lwip/src/netif/ppp/polarssl/arc4.c.obj
 .debug_abbrev  0x00000000       0x26 CMakeFiles/AHT20.dir/C_/VSARM/sdk/pico/pico-sdk/lib/lwip/src/netif/ppp/polarssl/arc4.c.obj
 .debug_aranges
                0x00000000       0x18 CMakeFiles/AHT20.dir/C_/VSARM/sdk/pico/pico-sdk/lib/lwip/src/netif/ppp/polarssl/arc4.c.obj
 .debug_line    0x00000000       0x62 CMakeFiles/AHT20.dir/C_/VSARM/sdk/pico/pico-sdk/lib/lwip/src/netif/ppp/polarssl/arc4.c.obj
 .debug_str     0x00000000      0x18c CMakeFiles/AHT20.dir/C_/VSARM/sdk/pico/pico-sdk/lib/lwip/src/netif/ppp/polarssl/arc4.c.obj
 .comment       0x00000000       0x46 CMakeFiles/AHT20.dir/C_/VSARM/sdk/pico/pico-sdk/lib/lwip/src/netif/ppp/polarssl/arc4.c.obj
 .ARM.attributes
                0x00000000       0x2c CMakeFiles/AHT20.dir/C_/VSARM/sdk/pico/pico-sdk/lib/lwip/src/netif/ppp/polarssl/arc4.c.obj
 .text          0x00000000        0x0 CMakeFiles/AHT20.dir/C_/VSARM/sdk/pico/pico-sdk/lib/lwip/src/netif/ppp/polarssl/des.c.obj
 .data          0x00000000        0x0 CMakeFiles/AHT20.dir/C_/VSARM/sdk/pico/pico-sdk/lib/lwip/src/netif/ppp/polarssl/des.c.obj
 .bss           0x00000000        0x0 CMakeFiles/AHT20.dir/C_/VSARM/sdk/pico/pico-sdk/lib/lwip/src/netif/ppp/polarssl/des.c.obj
 .debug_info    0x00000000       0x73 CMakeFiles/AHT20.dir/C_/VSARM/sdk/pico/pico-sdk/lib/lwip/src/netif/ppp/polarssl/des.c.obj
 .debug_abbrev  0x00000000       0x26 CMakeFiles/AHT20.dir/C_/VSARM/sdk/pico/pico-sdk/lib/lwip/src/netif/ppp/polarssl/des.c.obj
 .debug_aranges
                0x00000000       0x18 CMakeFiles/AHT20.dir/C_/VSARM/sdk/pico/pico-sdk/lib/lwip/src/netif/ppp/polarssl/des.c.obj
 .debug_line    0x00000000       0x61 CMakeFiles/AHT20.dir/C_/VSARM/sdk/pico/pico-sdk/lib/lwip/src/netif/ppp/polarssl/des.c.obj
 .debug_str     0x00000000      0x18b CMakeFiles/AHT20.dir/C_/VSARM/sdk/pico/pico-sdk/lib/lwip/src/netif/ppp/polarssl/des.c.obj
 .comment       0x00000000       0x46 CMakeFiles/AHT20.dir/C_/VSARM/sdk/pico/pico-sdk/lib/lwip/src/netif/ppp/polarssl/des.c.obj
 .ARM.attributes
                0x00000000       0x2c CMakeFiles/AHT20.dir/C_/VSARM/sdk/pico/pico-sdk/lib/lwip/src/netif/ppp/polarssl/des.c.obj
 .text          0x00000000        0x0 CMakeFiles/AHT20.dir/C_/VSARM/sdk/pico/pico-sdk/lib/lwip/src/netif/ppp/polarssl/md4.c.obj
 .data          0x00000000        0x0 CMakeFiles/AHT20.dir/C_/VSARM/sdk/pico/pico-sdk/lib/lwip/src/netif/ppp/polarssl/md4.c.obj
 .bss           0x00000000        0x0 CMakeFiles/AHT20.dir/C_/VSARM/sdk/pico/pico-sdk/lib/lwip/src/netif/ppp/polarssl/md4.c.obj
 .debug_info    0x00000000       0x73 CMakeFiles/AHT20.dir/C_/VSARM/sdk/pico/pico-sdk/lib/lwip/src/netif/ppp/polarssl/md4.c.obj
 .debug_abbrev  0x00000000       0x26 CMakeFiles/AHT20.dir/C_/VSARM/sdk/pico/pico-sdk/lib/lwip/src/netif/ppp/polarssl/md4.c.obj
 .debug_aranges
                0x00000000       0x18 CMakeFiles/AHT20.dir/C_/VSARM/sdk/pico/pico-sdk/lib/lwip/src/netif/ppp/polarssl/md4.c.obj
 .debug_line    0x00000000       0x61 CMakeFiles/AHT20.dir/C_/VSARM/sdk/pico/pico-sdk/lib/lwip/src/netif/ppp/polarssl/md4.c.obj
 .debug_str     0x00000000      0x18b CMakeFiles/AHT20.dir/C_/VSARM/sdk/pico/pico-sdk/lib/lwip/src/netif/ppp/polarssl/md4.c.obj
 .comment       0x00000000       0x46 CMakeFiles/AHT20.dir/C_/VSARM/sdk/pico/pico-sdk/lib/lwip/src/netif/ppp/polarssl/md4.c.obj
 .ARM.attributes
                0x00000000       0x2c CMakeFiles/AHT20.dir/C_/VSARM/sdk/pico/pico-sdk/lib/lwip/src/netif/ppp/polarssl/md4.c.obj
 .text          0x00000000        0x0 CMakeFiles/AHT20.dir/C_/VSARM/sdk/pico/pico-sdk/lib/lwip/src/netif/ppp/polarssl/md5.c.obj
 .data          0x00000000        0x0 CMakeFiles/AHT20.dir/C_/VSARM/sdk/pico/pico-sdk/lib/lwip/src/netif/ppp/polarssl/md5.c.obj
 .bss           0x00000000        0x0 CMakeFiles/AHT20.dir/C_/VSARM/sdk/pico/pico-sdk/lib/lwip/src/netif/ppp/polarssl/md5.c.obj
 .debug_info    0x00000000       0x73 CMakeFiles/AHT20.dir/C_/VSARM/sdk/pico/pico-sdk/lib/lwip/src/netif/ppp/polarssl/md5.c.obj
 .debug_abbrev  0x00000000       0x26 CMakeFiles/AHT20.dir/C_/VSARM/sdk/pico/pico-sdk/lib/lwip/src/netif/ppp/polarssl/md5.c.obj
 .debug_aranges
                0x00000000       0x18 CMakeFiles/AHT20.dir/C_/VSARM/sdk/pico/pico-sdk/lib/lwip/src/netif/ppp/polarssl/md5.c.obj
 .debug_line    0x00000000       0x61 CMakeFiles/AHT20.dir/C_/VSARM/sdk/pico/pico-sdk/lib/lwip/src/netif/ppp/polarssl/md5.c.obj
 .debug_str     0x00000000      0x18b CMakeFiles/AHT20.dir/C_/VSARM/sdk/pico/pico-sdk/lib/lwip/src/netif/ppp/polarssl/md5.c.obj
 .comment       0x00000000       0x46 CMakeFiles/AHT20.dir/C_/VSARM/sdk/pico/pico-sdk/lib/lwip/src/netif/ppp/polarssl/md5.c.obj
 .ARM.attributes
                0x00000000       0x2c CMakeFiles/AHT20.dir/C_/VSARM/sdk/pico/pico-sdk/lib/lwip/src/netif/ppp/polarssl/md5.c.obj
 .text          0x00000000        0x0 CMakeFiles/AHT20.dir/C_/VSARM/sdk/pico/pico-sdk/lib/lwip/src/netif/ppp/polarssl/sha1.c.obj
 .data          0x00000000        0x0 CMakeFiles/AHT20.dir/C_/VSARM/sdk/pico/pico-sdk/lib/lwip/src/netif/ppp/polarssl/sha1.c.obj
 .bss           0x00000000        0x0 CMakeFiles/AHT20.dir/C_/VSARM/sdk/pico/pico-sdk/lib/lwip/src/netif/ppp/polarssl/sha1.c.obj
 .debug_info    0x00000000       0x73 CMakeFiles/AHT20.dir/C_/VSARM/sdk/pico/pico-sdk/lib/lwip/src/netif/ppp/polarssl/sha1.c.obj
 .debug_abbrev  0x00000000       0x26 CMakeFiles/AHT20.dir/C_/VSARM/sdk/pico/pico-sdk/lib/lwip/src/netif/ppp/polarssl/sha1.c.obj
 .debug_aranges
                0x00000000       0x18 CMakeFiles/AHT20.dir/C_/VSARM/sdk/pico/pico-sdk/lib/lwip/src/netif/ppp/polarssl/sha1.c.obj
 .debug_line    0x00000000       0x62 CMakeFiles/AHT20.dir/C_/VSARM/sdk/pico/pico-sdk/lib/lwip/src/netif/ppp/polarssl/sha1.c.obj
 .debug_str     0x00000000      0x18c CMakeFiles/AHT20.dir/C_/VSARM/sdk/pico/pico-sdk/lib/lwip/src/netif/ppp/polarssl/sha1.c.obj
 .comment       0x00000000       0x46 CMakeFiles/AHT20.dir/C_/VSARM/sdk/pico/pico-sdk/lib/lwip/src/netif/ppp/polarssl/sha1.c.obj
 .ARM.attributes
                0x00000000       0x2c CMakeFiles/AHT20.dir/C_/VSARM/sdk/pico/pico-sdk/lib/lwip/src/netif/ppp/polarssl/sha1.c.obj
 .text          0x00000000        0x0 CMakeFiles/AHT20.dir/C_/VSARM/sdk/pico/pico-sdk/src/rp2_common/pico_cyw43_arch/cyw43_arch.c.obj
 .data          0x00000000        0x0 CMakeFiles/AHT20.dir/C_/VSARM/sdk/pico/pico-sdk/src/rp2_common/pico_cyw43_arch/cyw43_arch.c.obj
 .bss           0x00000000        0x0 CMakeFiles/AHT20.dir/C_/VSARM/sdk/pico/pico-sdk/src/rp2_common/pico_cyw43_arch/cyw43_arch.c.obj
 .text.time_reached
                0x00000000       0x28 CMakeFiles/AHT20.dir/C_/VSARM/sdk/pico/pico-sdk/src/rp2_common/pico_cyw43_arch/cyw43_arch.c.obj
 .rodata.cyw43_tcpip_link_status_name.str1.4
                0x00000000       0x54 CMakeFiles/AHT20.dir/C_/VSARM/sdk/pico/pico-sdk/src/rp2_common/pico_cyw43_arch/cyw43_arch.c.obj
 .text.cyw43_tcpip_link_status_name
                0x00000000       0x54 CMakeFiles/AHT20.dir/C_/VSARM/sdk/pico/pico-sdk/src/rp2_common/pico_cyw43_arch/cyw43_arch.c.obj
 .rodata.cyw43_tcpip_link_status_name
                0x00000000       0x1c CMakeFiles/AHT20.dir/C_/VSARM/sdk/pico/pico-sdk/src/rp2_common/pico_cyw43_arch/cyw43_arch.c.obj
 .rodata.update_us_since_boot.str1.4
                0x00000000       0x61 CMakeFiles/AHT20.dir/C_/VSARM/sdk/pico/pico-sdk/src/rp2_common/pico_cyw43_arch/cyw43_arch.c.obj
 .text.update_us_since_boot
                0x00000000       0x24 CMakeFiles/AHT20.dir/C_/VSARM/sdk/pico/pico-sdk/src/rp2_common/pico_cyw43_arch/cyw43_arch.c.obj
 .text.delayed_by_ms
                0x00000000       0x44 CMakeFiles/AHT20.dir/C_/VSARM/sdk/pico/pico-sdk/src/rp2_common/pico_cyw43_arch/cyw43_arch.c.obj
 .text.get_absolute_time
                0x00000000       0x22 CMakeFiles/AHT20.dir/C_/VSARM/sdk/pico/pico-sdk/src/rp2_common/pico_cyw43_arch/cyw43_arch.c.obj
 .text.make_timeout_time_ms
                0x00000000       0x20 CMakeFiles/AHT20.dir/C_/VSARM/sdk/pico/pico-sdk/src/rp2_common/pico_cyw43_arch/cyw43_arch.c.obj
 .text.cyw43_arch_set_async_context
                0x00000000        0xc CMakeFiles/AHT20.dir/C_/VSARM/sdk/pico/pico-sdk/src/rp2_common/pico_cyw43_arch/cyw43_arch.c.obj
 .rodata.cyw43_arch_disable_sta_mode.str1.4
                0x00000000       0x6b CMakeFiles/AHT20.dir/C_/VSARM/sdk/pico/pico-sdk/src/rp2_common/pico_cyw43_arch/cyw43_arch.c.obj
 .text.cyw43_arch_disable_sta_mode
                0x00000000       0x6c CMakeFiles/AHT20.dir/C_/VSARM/sdk/pico/pico-sdk/src/rp2_common/pico_cyw43_arch/cyw43_arch.c.obj
 .text.cyw43_arch_wifi_connect_bssid_async
                0x00000000       0x5c CMakeFiles/AHT20.dir/C_/VSARM/sdk/pico/pico-sdk/src/rp2_common/pico_cyw43_arch/cyw43_arch.c.obj
 .text.cyw43_arch_wifi_connect_async
                0x00000000        0xe CMakeFiles/AHT20.dir/C_/VSARM/sdk/pico/pico-sdk/src/rp2_common/pico_cyw43_arch/cyw43_arch.c.obj
 .text.cyw43_arch_get_country_code
                0x00000000        0xc CMakeFiles/AHT20.dir/C_/VSARM/sdk/pico/pico-sdk/src/rp2_common/pico_cyw43_arch/cyw43_arch.c.obj
 .text.cyw43_arch_enable_sta_mode
                0x00000000       0x40 CMakeFiles/AHT20.dir/C_/VSARM/sdk/pico/pico-sdk/src/rp2_common/pico_cyw43_arch/cyw43_arch.c.obj
 .text.cyw43_arch_enable_ap_mode
                0x00000000       0xac CMakeFiles/AHT20.dir/C_/VSARM/sdk/pico/pico-sdk/src/rp2_common/pico_cyw43_arch/cyw43_arch.c.obj
 .text.cyw43_arch_disable_ap_mode
                0x00000000       0x4c CMakeFiles/AHT20.dir/C_/VSARM/sdk/pico/pico-sdk/src/rp2_common/pico_cyw43_arch/cyw43_arch.c.obj
 .text.cyw43_arch_init_with_country
                0x00000000       0x10 CMakeFiles/AHT20.dir/C_/VSARM/sdk/pico/pico-sdk/src/rp2_common/pico_cyw43_arch/cyw43_arch.c.obj
 .text.cyw43_arch_gpio_put
                0x00000000       0x14 CMakeFiles/AHT20.dir/C_/VSARM/sdk/pico/pico-sdk/src/rp2_common/pico_cyw43_arch/cyw43_arch.c.obj
 .text.cyw43_arch_gpio_get
                0x00000000       0x24 CMakeFiles/AHT20.dir/C_/VSARM/sdk/pico/pico-sdk/src/rp2_common/pico_cyw43_arch/cyw43_arch.c.obj
 .text.cyw43_arch_async_context
                0x00000000        0xc CMakeFiles/AHT20.dir/C_/VSARM/sdk/pico/pico-sdk/src/rp2_common/pico_cyw43_arch/cyw43_arch.c.obj
 .text.cyw43_arch_poll
                0x00000000       0x18 CMakeFiles/AHT20.dir/C_/VSARM/sdk/pico/pico-sdk/src/rp2_common/pico_cyw43_arch/cyw43_arch.c.obj
 .text.cyw43_arch_wait_for_work_until
                0x00000000       0x18 CMakeFiles/AHT20.dir/C_/VSARM/sdk/pico/pico-sdk/src/rp2_common/pico_cyw43_arch/cyw43_arch.c.obj
 .rodata.cyw43_arch_wifi_connect_bssid_until.str1.4
                0x00000000       0x69 CMakeFiles/AHT20.dir/C_/VSARM/sdk/pico/pico-sdk/src/rp2_common/pico_cyw43_arch/cyw43_arch.c.obj
 .text.cyw43_arch_wifi_connect_bssid_until
                0x00000000       0xdc CMakeFiles/AHT20.dir/C_/VSARM/sdk/pico/pico-sdk/src/rp2_common/pico_cyw43_arch/cyw43_arch.c.obj
 .text.cyw43_arch_wifi_connect_until
                0x00000000       0x1a CMakeFiles/AHT20.dir/C_/VSARM/sdk/pico/pico-sdk/src/rp2_common/pico_cyw43_arch/cyw43_arch.c.obj
 .text.cyw43_arch_wifi_connect_blocking
                0x00000000       0x1c CMakeFiles/AHT20.dir/C_/VSARM/sdk/pico/pico-sdk/src/rp2_common/pico_cyw43_arch/cyw43_arch.c.obj
 .text.cyw43_arch_wifi_connect_timeout_ms
                0x00000000       0x28 CMakeFiles/AHT20.dir/C_/VSARM/sdk/pico/pico-sdk/src/rp2_common/pico_cyw43_arch/cyw43_arch.c.obj
 .text.cyw43_arch_wifi_connect_bssid_blocking
                0x00000000       0x1c CMakeFiles/AHT20.dir/C_/VSARM/sdk/pico/pico-sdk/src/rp2_common/pico_cyw43_arch/cyw43_arch.c.obj
 .text.cyw43_arch_wifi_connect_bssid_timeout_ms
                0x00000000       0x2c CMakeFiles/AHT20.dir/C_/VSARM/sdk/pico/pico-sdk/src/rp2_common/pico_cyw43_arch/cyw43_arch.c.obj
 .rodata.__func__.0
                0x00000000       0x15 CMakeFiles/AHT20.dir/C_/VSARM/sdk/pico/pico-sdk/src/rp2_common/pico_cyw43_arch/cyw43_arch.c.obj
 .rodata.__func__.1
                0x00000000       0x24 CMakeFiles/AHT20.dir/C_/VSARM/sdk/pico/pico-sdk/src/rp2_common/pico_cyw43_arch/cyw43_arch.c.obj
 .rodata.__func__.2
                0x00000000       0x1b CMakeFiles/AHT20.dir/C_/VSARM/sdk/pico/pico-sdk/src/rp2_common/pico_cyw43_arch/cyw43_arch.c.obj
 .rodata.__func__.3
                0x00000000       0x1a CMakeFiles/AHT20.dir/C_/VSARM/sdk/pico/pico-sdk/src/rp2_common/pico_cyw43_arch/cyw43_arch.c.obj
 .rodata.__func__.4
                0x00000000       0x1c CMakeFiles/AHT20.dir/C_/VSARM/sdk/pico/pico-sdk/src/rp2_common/pico_cyw43_arch/cyw43_arch.c.obj
 .rodata.__func__.5
                0x00000000       0x1b CMakeFiles/AHT20.dir/C_/VSARM/sdk/pico/pico-sdk/src/rp2_common/pico_cyw43_arch/cyw43_arch.c.obj
 .bss.async_context
                0x00000000        0x4 CMakeFiles/AHT20.dir/C_/VSARM/sdk/pico/pico-sdk/src/rp2_common/pico_cyw43_arch/cyw43_arch.c.obj
 .data.country_code
                0x00000000        0x4 CMakeFiles/AHT20.dir/C_/VSARM/sdk/pico/pico-sdk/src/rp2_common/pico_cyw43_arch/cyw43_arch.c.obj
 .debug_info    0x00000000     0x1d38 CMakeFiles/AHT20.dir/C_/VSARM/sdk/pico/pico-sdk/src/rp2_common/pico_cyw43_arch/cyw43_arch.c.obj
 .debug_abbrev  0x00000000      0x4aa CMakeFiles/AHT20.dir/C_/VSARM/sdk/pico/pico-sdk/src/rp2_common/pico_cyw43_arch/cyw43_arch.c.obj
 .debug_loclists
                0x00000000      0x6c2 CMakeFiles/AHT20.dir/C_/VSARM/sdk/pico/pico-sdk/src/rp2_common/pico_cyw43_arch/cyw43_arch.c.obj
 .debug_aranges
                0x00000000       0xe8 CMakeFiles/AHT20.dir/C_/VSARM/sdk/pico/pico-sdk/src/rp2_common/pico_cyw43_arch/cyw43_arch.c.obj
 .debug_rnglists
                0x00000000       0xd4 CMakeFiles/AHT20.dir/C_/VSARM/sdk/pico/pico-sdk/src/rp2_common/pico_cyw43_arch/cyw43_arch.c.obj
 .debug_line    0x00000000      0xaf5 CMakeFiles/AHT20.dir/C_/VSARM/sdk/pico/pico-sdk/src/rp2_common/pico_cyw43_arch/cyw43_arch.c.obj
 .debug_str     0x00000000      0xf0d CMakeFiles/AHT20.dir/C_/VSARM/sdk/pico/pico-sdk/src/rp2_common/pico_cyw43_arch/cyw43_arch.c.obj
 .comment       0x00000000       0x46 CMakeFiles/AHT20.dir/C_/VSARM/sdk/pico/pico-sdk/src/rp2_common/pico_cyw43_arch/cyw43_arch.c.obj
 .debug_frame   0x00000000      0x2ac CMakeFiles/AHT20.dir/C_/VSARM/sdk/pico/pico-sdk/src/rp2_common/pico_cyw43_arch/cyw43_arch.c.obj
 .ARM.attributes
                0x00000000       0x2c CMakeFiles/AHT20.dir/C_/VSARM/sdk/pico/pico-sdk/src/rp2_common/pico_cyw43_arch/cyw43_arch.c.obj
 .text          0x00000000        0x0 CMakeFiles/AHT20.dir/C_/VSARM/sdk/pico/pico-sdk/src/rp2_common/pico_cyw43_arch/cyw43_arch_poll.c.obj
 .data          0x00000000        0x0 CMakeFiles/AHT20.dir/C_/VSARM/sdk/pico/pico-sdk/src/rp2_common/pico_cyw43_arch/cyw43_arch_poll.c.obj
 .bss           0x00000000        0x0 CMakeFiles/AHT20.dir/C_/VSARM/sdk/pico/pico-sdk/src/rp2_common/pico_cyw43_arch/cyw43_arch_poll.c.obj
 .debug_line    0x00000000        0x0 CMakeFiles/AHT20.dir/C_/VSARM/sdk/pico/pico-sdk/src/rp2_common/pico_cyw43_arch/cyw43_arch_poll.c.obj
 .debug_str     0x00000000      0x101 CMakeFiles/AHT20.dir/C_/VSARM/sdk/pico/pico-sdk/src/rp2_common/pico_cyw43_arch/cyw43_arch_poll.c.obj
 .comment       0x00000000       0x46 CMakeFiles/AHT20.dir/C_/VSARM/sdk/pico/pico-sdk/src/rp2_common/pico_cyw43_arch/cyw43_arch_poll.c.obj
 .ARM.attributes
                0x00000000       0x2c CMakeFiles/AHT20.dir/C_/VSARM/sdk/pico/pico-sdk/src/rp2_common/pico_cyw43_arch/cyw43_arch_poll.c.obj
 .text          0x00000000        0x0 CMakeFiles/AHT20.dir/C_/VSARM/sdk/pico/pico-sdk/src/rp2_common/pico_cyw43_arch/cyw43_arch_threadsafe_background.c.obj
 .data          0x00000000        0x0 CMakeFiles/AHT20.dir/C_/VSARM/sdk/pico/pico-sdk/src/rp2_common/pico_cyw43_arch/cyw43_arch_threadsafe_background.c.obj
 .bss           0x00000000        0x0 CMakeFiles/AHT20.dir/C_/VSARM/sdk/pico/pico-sdk/src/rp2_common/pico_cyw43_arch/cyw43_arch_threadsafe_background.c.obj
 .text.cyw43_arch_init_default_async_context
                0x00000000       0x20 CMakeFiles/AHT20.dir/C_/VSARM/sdk/pico/pico-sdk/src/rp2_common/pico_cyw43_arch/cyw43_arch_threadsafe_background.c.obj
 .text.cyw43_arch_deinit
                0x00000000       0x30 CMakeFiles/AHT20.dir/C_/VSARM/sdk/pico/pico-sdk/src/rp2_common/pico_cyw43_arch/cyw43_arch_threadsafe_background.c.obj
 .text.cyw43_arch_init
                0x00000000       0x42 CMakeFiles/AHT20.dir/C_/VSARM/sdk/pico/pico-sdk/src/rp2_common/pico_cyw43_arch/cyw43_arch_threadsafe_background.c.obj
 .bss.cyw43_async_context_threadsafe_background
                0x00000000       0x48 CMakeFiles/AHT20.dir/C_/VSARM/sdk/pico/pico-sdk/src/rp2_common/pico_cyw43_arch/cyw43_arch_threadsafe_background.c.obj
 .debug_info    0x00000000      0x8ae CMakeFiles/AHT20.dir/C_/VSARM/sdk/pico/pico-sdk/src/rp2_common/pico_cyw43_arch/cyw43_arch_threadsafe_background.c.obj
 .debug_abbrev  0x00000000      0x272 CMakeFiles/AHT20.dir/C_/VSARM/sdk/pico/pico-sdk/src/rp2_common/pico_cyw43_arch/cyw43_arch_threadsafe_background.c.obj
 .debug_loclists
                0x00000000       0x95 CMakeFiles/AHT20.dir/C_/VSARM/sdk/pico/pico-sdk/src/rp2_common/pico_cyw43_arch/cyw43_arch_threadsafe_background.c.obj
 .debug_aranges
                0x00000000       0x30 CMakeFiles/AHT20.dir/C_/VSARM/sdk/pico/pico-sdk/src/rp2_common/pico_cyw43_arch/cyw43_arch_threadsafe_background.c.obj
 .debug_rnglists
                0x00000000       0x1f CMakeFiles/AHT20.dir/C_/VSARM/sdk/pico/pico-sdk/src/rp2_common/pico_cyw43_arch/cyw43_arch_threadsafe_background.c.obj
 .debug_line    0x00000000      0x50e CMakeFiles/AHT20.dir/C_/VSARM/sdk/pico/pico-sdk/src/rp2_common/pico_cyw43_arch/cyw43_arch_threadsafe_background.c.obj
 .debug_str     0x00000000      0x958 CMakeFiles/AHT20.dir/C_/VSARM/sdk/pico/pico-sdk/src/rp2_common/pico_cyw43_arch/cyw43_arch_threadsafe_background.c.obj
 .comment       0x00000000       0x46 CMakeFiles/AHT20.dir/C_/VSARM/sdk/pico/pico-sdk/src/rp2_common/pico_cyw43_arch/cyw43_arch_threadsafe_background.c.obj
 .debug_frame   0x00000000       0x5c CMakeFiles/AHT20.dir/C_/VSARM/sdk/pico/pico-sdk/src/rp2_common/pico_cyw43_arch/cyw43_arch_threadsafe_background.c.obj
 .ARM.attributes
                0x00000000       0x2c CMakeFiles/AHT20.dir/C_/VSARM/sdk/pico/pico-sdk/src/rp2_common/pico_cyw43_arch/cyw43_arch_threadsafe_background.c.obj
 .text          0x00000000        0x0 CMakeFiles/AHT20.dir/C_/VSARM/sdk/pico/pico-sdk/src/rp2_common/pico_cyw43_arch/cyw43_arch_freertos.c.obj
 .data          0x00000000        0x0 CMakeFiles/AHT20.dir/C_/VSARM/sdk/pico/pico-sdk/src/rp2_common/pico_cyw43_arch/cyw43_arch_freertos.c.obj
 .bss           0x00000000        0x0 CMakeFiles/AHT20.dir/C_/VSARM/sdk/pico/pico-sdk/src/rp2_common/pico_cyw43_arch/cyw43_arch_freertos.c.obj
 .debug_line    0x00000000        0x0 CMakeFiles/AHT20.dir/C_/VSARM/sdk/pico/pico-sdk/src/rp2_common/pico_cyw43_arch/cyw43_arch_freertos.c.obj
 .debug_str     0x00000000      0x105 CMakeFiles/AHT20.dir/C_/VSARM/sdk/pico/pico-sdk/src/rp2_common/pico_cyw43_arch/cyw43_arch_freertos.c.obj
 .comment       0x00000000       0x46 CMakeFiles/AHT20.dir/C_/VSARM/sdk/pico/pico-sdk/src/rp2_common/pico_cyw43_arch/cyw43_arch_freertos.c.obj
 .ARM.attributes
                0x00000000       0x2c CMakeFiles/AHT20.dir/C_/VSARM/sdk/pico/pico-sdk/src/rp2_common/pico_cyw43_arch/cyw43_arch_freertos.c.obj
 .text          0x00000000        0x0 CMakeFiles/AHT20.dir/C_/VSARM/sdk/pico/pico-sdk/src/rp2_common/pico_cyw43_driver/cyw43_bus_pio_spi.c.obj
 .data          0x00000000        0x0 CMakeFiles/AHT20.dir/C_/VSARM/sdk/pico/pico-sdk/src/rp2_common/pico_cyw43_driver/cyw43_bus_pio_spi.c.obj
 .bss           0x00000000        0x0 CMakeFiles/AHT20.dir/C_/VSARM/sdk/pico/pico-sdk/src/rp2_common/pico_cyw43_driver/cyw43_bus_pio_spi.c.obj
 .text.pio_get_default_sm_config
                0x00000000       0x28 CMakeFiles/AHT20.dir/C_/VSARM/sdk/pico/pico-sdk/src/rp2_common/pico_cyw43_driver/cyw43_bus_pio_spi.c.obj
 .text.spi_gap01_sample0_program_get_default_config
                0x00000000       0x3c CMakeFiles/AHT20.dir/C_/VSARM/sdk/pico/pico-sdk/src/rp2_common/pico_cyw43_driver/cyw43_bus_pio_spi.c.obj
 .text.cs_set   0x00000000       0x1c CMakeFiles/AHT20.dir/C_/VSARM/sdk/pico/pico-sdk/src/rp2_common/pico_cyw43_driver/cyw43_bus_pio_spi.c.obj
 .rodata.channel_config_set_chain_to.str1.4
                0x00000000       0x6e CMakeFiles/AHT20.dir/C_/VSARM/sdk/pico/pico-sdk/src/rp2_common/pico_cyw43_driver/cyw43_bus_pio_spi.c.obj
 .text.channel_config_set_chain_to
                0x00000000       0x30 CMakeFiles/AHT20.dir/C_/VSARM/sdk/pico/pico-sdk/src/rp2_common/pico_cyw43_driver/cyw43_bus_pio_spi.c.obj
 .text.dma_channel_get_default_config
                0x00000000       0x74 CMakeFiles/AHT20.dir/C_/VSARM/sdk/pico/pico-sdk/src/rp2_common/pico_cyw43_driver/cyw43_bus_pio_spi.c.obj
 .rodata.channel_config_set_dreq.str1.4
                0x00000000       0x13 CMakeFiles/AHT20.dir/C_/VSARM/sdk/pico/pico-sdk/src/rp2_common/pico_cyw43_driver/cyw43_bus_pio_spi.c.obj
 .text.channel_config_set_dreq
                0x00000000       0x30 CMakeFiles/AHT20.dir/C_/VSARM/sdk/pico/pico-sdk/src/rp2_common/pico_cyw43_driver/cyw43_bus_pio_spi.c.obj
 .text.start_spi_comms
                0x00000000       0x2c CMakeFiles/AHT20.dir/C_/VSARM/sdk/pico/pico-sdk/src/rp2_common/pico_cyw43_driver/cyw43_bus_pio_spi.c.obj
 .text.ns_delay
                0x00000000       0x20 CMakeFiles/AHT20.dir/C_/VSARM/sdk/pico/pico-sdk/src/rp2_common/pico_cyw43_driver/cyw43_bus_pio_spi.c.obj
 .text.stop_spi_comms
                0x00000000       0x10 CMakeFiles/AHT20.dir/C_/VSARM/sdk/pico/pico-sdk/src/rp2_common/pico_cyw43_driver/cyw43_bus_pio_spi.c.obj
 .text.cyw43_spi_deinit
                0x00000000       0x74 CMakeFiles/AHT20.dir/C_/VSARM/sdk/pico/pico-sdk/src/rp2_common/pico_cyw43_driver/cyw43_bus_pio_spi.c.obj
 .rodata.cyw43_spi_init.str1.4
                0x00000000       0x60 CMakeFiles/AHT20.dir/C_/VSARM/sdk/pico/pico-sdk/src/rp2_common/pico_cyw43_driver/cyw43_bus_pio_spi.c.obj
 .text.cyw43_spi_init
                0x00000000      0x234 CMakeFiles/AHT20.dir/C_/VSARM/sdk/pico/pico-sdk/src/rp2_common/pico_cyw43_driver/cyw43_bus_pio_spi.c.obj
 .rodata.cyw43_spi_transfer.str1.4
                0x00000000       0x79 CMakeFiles/AHT20.dir/C_/VSARM/sdk/pico/pico-sdk/src/rp2_common/pico_cyw43_driver/cyw43_bus_pio_spi.c.obj
 .text.cyw43_spi_transfer
                0x00000000      0x568 CMakeFiles/AHT20.dir/C_/VSARM/sdk/pico/pico-sdk/src/rp2_common/pico_cyw43_driver/cyw43_bus_pio_spi.c.obj
 .text._cyw43_read_reg
                0x00000000       0x50 CMakeFiles/AHT20.dir/C_/VSARM/sdk/pico/pico-sdk/src/rp2_common/pico_cyw43_driver/cyw43_bus_pio_spi.c.obj
 .text._cyw43_write_reg
                0x00000000       0x58 CMakeFiles/AHT20.dir/C_/VSARM/sdk/pico/pico-sdk/src/rp2_common/pico_cyw43_driver/cyw43_bus_pio_spi.c.obj
 .text.cyw43_spi_gpio_setup
                0x00000000       0x3a CMakeFiles/AHT20.dir/C_/VSARM/sdk/pico/pico-sdk/src/rp2_common/pico_cyw43_driver/cyw43_bus_pio_spi.c.obj
 .text.cyw43_spi_reset
                0x00000000       0x28 CMakeFiles/AHT20.dir/C_/VSARM/sdk/pico/pico-sdk/src/rp2_common/pico_cyw43_driver/cyw43_bus_pio_spi.c.obj
 .rodata.read_reg_u32_swap.str1.4
                0x00000000       0x19 CMakeFiles/AHT20.dir/C_/VSARM/sdk/pico/pico-sdk/src/rp2_common/pico_cyw43_driver/cyw43_bus_pio_spi.c.obj
 .text.read_reg_u32_swap
                0x00000000       0x68 CMakeFiles/AHT20.dir/C_/VSARM/sdk/pico/pico-sdk/src/rp2_common/pico_cyw43_driver/cyw43_bus_pio_spi.c.obj
 .text.cyw43_read_reg_u32
                0x00000000        0xa CMakeFiles/AHT20.dir/C_/VSARM/sdk/pico/pico-sdk/src/rp2_common/pico_cyw43_driver/cyw43_bus_pio_spi.c.obj
 .text.cyw43_read_reg_u16
                0x00000000        0xa CMakeFiles/AHT20.dir/C_/VSARM/sdk/pico/pico-sdk/src/rp2_common/pico_cyw43_driver/cyw43_bus_pio_spi.c.obj
 .text.cyw43_read_reg_u8
                0x00000000        0xa CMakeFiles/AHT20.dir/C_/VSARM/sdk/pico/pico-sdk/src/rp2_common/pico_cyw43_driver/cyw43_bus_pio_spi.c.obj
 .text.write_reg_u32_swap
                0x00000000       0x34 CMakeFiles/AHT20.dir/C_/VSARM/sdk/pico/pico-sdk/src/rp2_common/pico_cyw43_driver/cyw43_bus_pio_spi.c.obj
 .text.cyw43_write_reg_u32
                0x00000000       0x10 CMakeFiles/AHT20.dir/C_/VSARM/sdk/pico/pico-sdk/src/rp2_common/pico_cyw43_driver/cyw43_bus_pio_spi.c.obj
 .text.cyw43_write_reg_u16
                0x00000000       0x10 CMakeFiles/AHT20.dir/C_/VSARM/sdk/pico/pico-sdk/src/rp2_common/pico_cyw43_driver/cyw43_bus_pio_spi.c.obj
 .text.cyw43_write_reg_u8
                0x00000000       0x10 CMakeFiles/AHT20.dir/C_/VSARM/sdk/pico/pico-sdk/src/rp2_common/pico_cyw43_driver/cyw43_bus_pio_spi.c.obj
 .rodata.cyw43_read_bytes.str1.4
                0x00000000       0xe6 CMakeFiles/AHT20.dir/C_/VSARM/sdk/pico/pico-sdk/src/rp2_common/pico_cyw43_driver/cyw43_bus_pio_spi.c.obj
 .text.cyw43_read_bytes
                0x00000000       0xfc CMakeFiles/AHT20.dir/C_/VSARM/sdk/pico/pico-sdk/src/rp2_common/pico_cyw43_driver/cyw43_bus_pio_spi.c.obj
 .rodata.cyw43_write_bytes.str1.4
                0x00000000       0x59 CMakeFiles/AHT20.dir/C_/VSARM/sdk/pico/pico-sdk/src/rp2_common/pico_cyw43_driver/cyw43_bus_pio_spi.c.obj
 .text.cyw43_write_bytes
                0x00000000      0x124 CMakeFiles/AHT20.dir/C_/VSARM/sdk/pico/pico-sdk/src/rp2_common/pico_cyw43_driver/cyw43_bus_pio_spi.c.obj
 .rodata.__func__.0
                0x00000000       0x12 CMakeFiles/AHT20.dir/C_/VSARM/sdk/pico/pico-sdk/src/rp2_common/pico_cyw43_driver/cyw43_bus_pio_spi.c.obj
 .rodata.__func__.1
                0x00000000       0x11 CMakeFiles/AHT20.dir/C_/VSARM/sdk/pico/pico-sdk/src/rp2_common/pico_cyw43_driver/cyw43_bus_pio_spi.c.obj
 .rodata.__func__.2
                0x00000000       0x12 CMakeFiles/AHT20.dir/C_/VSARM/sdk/pico/pico-sdk/src/rp2_common/pico_cyw43_driver/cyw43_bus_pio_spi.c.obj
 .rodata.__func__.3
                0x00000000       0x18 CMakeFiles/AHT20.dir/C_/VSARM/sdk/pico/pico-sdk/src/rp2_common/pico_cyw43_driver/cyw43_bus_pio_spi.c.obj
 .rodata.__func__.6
                0x00000000       0x1c CMakeFiles/AHT20.dir/C_/VSARM/sdk/pico/pico-sdk/src/rp2_common/pico_cyw43_driver/cyw43_bus_pio_spi.c.obj
 .rodata.__func__.7
                0x00000000       0x13 CMakeFiles/AHT20.dir/C_/VSARM/sdk/pico/pico-sdk/src/rp2_common/pico_cyw43_driver/cyw43_bus_pio_spi.c.obj
 .rodata.__func__.8
                0x00000000        0xf CMakeFiles/AHT20.dir/C_/VSARM/sdk/pico/pico-sdk/src/rp2_common/pico_cyw43_driver/cyw43_bus_pio_spi.c.obj
 .bss.bus_data_instance
                0x00000000        0xc CMakeFiles/AHT20.dir/C_/VSARM/sdk/pico/pico-sdk/src/rp2_common/pico_cyw43_driver/cyw43_bus_pio_spi.c.obj
 .rodata.spi_gap01_sample0_program
                0x00000000        0x6 CMakeFiles/AHT20.dir/C_/VSARM/sdk/pico/pico-sdk/src/rp2_common/pico_cyw43_driver/cyw43_bus_pio_spi.c.obj
 .rodata.spi_gap01_sample0_program_instructions
                0x00000000        0xc CMakeFiles/AHT20.dir/C_/VSARM/sdk/pico/pico-sdk/src/rp2_common/pico_cyw43_driver/cyw43_bus_pio_spi.c.obj
 .rodata        0x00000000        0x8 CMakeFiles/AHT20.dir/C_/VSARM/sdk/pico/pico-sdk/src/rp2_common/pico_cyw43_driver/cyw43_bus_pio_spi.c.obj
 .debug_info    0x00000000     0x4f56 CMakeFiles/AHT20.dir/C_/VSARM/sdk/pico/pico-sdk/src/rp2_common/pico_cyw43_driver/cyw43_bus_pio_spi.c.obj
 .debug_abbrev  0x00000000      0x66f CMakeFiles/AHT20.dir/C_/VSARM/sdk/pico/pico-sdk/src/rp2_common/pico_cyw43_driver/cyw43_bus_pio_spi.c.obj
 .debug_loclists
                0x00000000     0x1d4c CMakeFiles/AHT20.dir/C_/VSARM/sdk/pico/pico-sdk/src/rp2_common/pico_cyw43_driver/cyw43_bus_pio_spi.c.obj
 .debug_aranges
                0x00000000       0xe8 CMakeFiles/AHT20.dir/C_/VSARM/sdk/pico/pico-sdk/src/rp2_common/pico_cyw43_driver/cyw43_bus_pio_spi.c.obj
 .debug_rnglists
                0x00000000       0xf1 CMakeFiles/AHT20.dir/C_/VSARM/sdk/pico/pico-sdk/src/rp2_common/pico_cyw43_driver/cyw43_bus_pio_spi.c.obj
 .debug_line    0x00000000     0x1d54 CMakeFiles/AHT20.dir/C_/VSARM/sdk/pico/pico-sdk/src/rp2_common/pico_cyw43_driver/cyw43_bus_pio_spi.c.obj
 .debug_str     0x00000000     0x1884 CMakeFiles/AHT20.dir/C_/VSARM/sdk/pico/pico-sdk/src/rp2_common/pico_cyw43_driver/cyw43_bus_pio_spi.c.obj
 .comment       0x00000000       0x46 CMakeFiles/AHT20.dir/C_/VSARM/sdk/pico/pico-sdk/src/rp2_common/pico_cyw43_driver/cyw43_bus_pio_spi.c.obj
 .debug_frame   0x00000000      0x2ec CMakeFiles/AHT20.dir/C_/VSARM/sdk/pico/pico-sdk/src/rp2_common/pico_cyw43_driver/cyw43_bus_pio_spi.c.obj
 .ARM.attributes
                0x00000000       0x2c CMakeFiles/AHT20.dir/C_/VSARM/sdk/pico/pico-sdk/src/rp2_common/pico_cyw43_driver/cyw43_bus_pio_spi.c.obj
 .text          0x00000000        0x0 CMakeFiles/AHT20.dir/C_/VSARM/sdk/pico/pico-sdk/lib/cyw43-driver/src/cyw43_ll.c.obj
 .data          0x00000000        0x0 CMakeFiles/AHT20.dir/C_/VSARM/sdk/pico/pico-sdk/lib/cyw43-driver/src/cyw43_ll.c.obj
 .bss           0x00000000        0x0 CMakeFiles/AHT20.dir/C_/VSARM/sdk/pico/pico-sdk/lib/cyw43-driver/src/cyw43_ll.c.obj
 .text.get_core_address
                0x00000000       0x1c CMakeFiles/AHT20.dir/C_/VSARM/sdk/pico/pico-sdk/lib/cyw43-driver/src/cyw43_ll.c.obj
 .rodata.sdpcm_process_rx_packet.str1.4
                0x00000000      0x127 CMakeFiles/AHT20.dir/C_/VSARM/sdk/pico/pico-sdk/lib/cyw43-driver/src/cyw43_ll.c.obj
 .text.sdpcm_process_rx_packet
                0x00000000      0x180 CMakeFiles/AHT20.dir/C_/VSARM/sdk/pico/pico-sdk/lib/cyw43-driver/src/cyw43_ll.c.obj
 .text.cyw43_ll_wifi_parse_scan_result
                0x00000000       0x9c CMakeFiles/AHT20.dir/C_/VSARM/sdk/pico/pico-sdk/lib/cyw43-driver/src/cyw43_ll.c.obj
 .text.cyw43_ll_parse_async_event
                0x00000000       0x8e CMakeFiles/AHT20.dir/C_/VSARM/sdk/pico/pico-sdk/lib/cyw43-driver/src/cyw43_ll.c.obj
 .rodata.cyw43_kso_set.str1.4
                0x00000000       0x23 CMakeFiles/AHT20.dir/C_/VSARM/sdk/pico/pico-sdk/lib/cyw43-driver/src/cyw43_ll.c.obj
 .text.cyw43_kso_set
                0x00000000       0x98 CMakeFiles/AHT20.dir/C_/VSARM/sdk/pico/pico-sdk/lib/cyw43-driver/src/cyw43_ll.c.obj
 .text.cyw43_ll_bus_sleep_helper
                0x00000000        0xe CMakeFiles/AHT20.dir/C_/VSARM/sdk/pico/pico-sdk/lib/cyw43-driver/src/cyw43_ll.c.obj
 .rodata.cyw43_read_reg.str1.4
                0x00000000       0x62 CMakeFiles/AHT20.dir/C_/VSARM/sdk/pico/pico-sdk/lib/cyw43-driver/src/cyw43_ll.c.obj
 .text.cyw43_read_reg
                0x00000000       0x48 CMakeFiles/AHT20.dir/C_/VSARM/sdk/pico/pico-sdk/lib/cyw43-driver/src/cyw43_ll.c.obj
 .text.cyw43_write_reg
                0x00000000       0x4c CMakeFiles/AHT20.dir/C_/VSARM/sdk/pico/pico-sdk/lib/cyw43-driver/src/cyw43_ll.c.obj
 .text.cyw43_set_backplane_window
                0x00000000       0x78 CMakeFiles/AHT20.dir/C_/VSARM/sdk/pico/pico-sdk/lib/cyw43-driver/src/cyw43_ll.c.obj
 .text.cyw43_read_backplane
                0x00000000       0x30 CMakeFiles/AHT20.dir/C_/VSARM/sdk/pico/pico-sdk/lib/cyw43-driver/src/cyw43_ll.c.obj
 .rodata.disable_device_core.str1.4
                0x00000000       0x1a CMakeFiles/AHT20.dir/C_/VSARM/sdk/pico/pico-sdk/lib/cyw43-driver/src/cyw43_ll.c.obj
 .text.disable_device_core
                0x00000000       0x3c CMakeFiles/AHT20.dir/C_/VSARM/sdk/pico/pico-sdk/lib/cyw43-driver/src/cyw43_ll.c.obj
 .rodata.device_core_is_up.str1.4
                0x00000000       0x14 CMakeFiles/AHT20.dir/C_/VSARM/sdk/pico/pico-sdk/lib/cyw43-driver/src/cyw43_ll.c.obj
 .text.device_core_is_up
                0x00000000       0x4c CMakeFiles/AHT20.dir/C_/VSARM/sdk/pico/pico-sdk/lib/cyw43-driver/src/cyw43_ll.c.obj
 .text.cyw43_write_backplane
                0x00000000       0x34 CMakeFiles/AHT20.dir/C_/VSARM/sdk/pico/pico-sdk/lib/cyw43-driver/src/cyw43_ll.c.obj
 .text.reset_device_core
                0x00000000       0x74 CMakeFiles/AHT20.dir/C_/VSARM/sdk/pico/pico-sdk/lib/cyw43-driver/src/cyw43_ll.c.obj
 .rodata.cyw43_download_resource.str1.4
                0x00000000       0xb2 CMakeFiles/AHT20.dir/C_/VSARM/sdk/pico/pico-sdk/lib/cyw43-driver/src/cyw43_ll.c.obj
 .text.cyw43_download_resource
                0x00000000      0x17c CMakeFiles/AHT20.dir/C_/VSARM/sdk/pico/pico-sdk/lib/cyw43-driver/src/cyw43_ll.c.obj
 .text.cyw43_ll_init
                0x00000000       0x20 CMakeFiles/AHT20.dir/C_/VSARM/sdk/pico/pico-sdk/lib/cyw43-driver/src/cyw43_ll.c.obj
 .text.cyw43_ll_deinit
                0x00000000        0x8 CMakeFiles/AHT20.dir/C_/VSARM/sdk/pico/pico-sdk/lib/cyw43-driver/src/cyw43_ll.c.obj
 .text.cyw43_ll_bus_sleep
                0x00000000       0x34 CMakeFiles/AHT20.dir/C_/VSARM/sdk/pico/pico-sdk/lib/cyw43-driver/src/cyw43_ll.c.obj
 .rodata.cyw43_ll_sdpcm_poll_device.str1.4
                0x00000000       0x91 CMakeFiles/AHT20.dir/C_/VSARM/sdk/pico/pico-sdk/lib/cyw43-driver/src/cyw43_ll.c.obj
 .text.cyw43_ll_sdpcm_poll_device
                0x00000000      0x158 CMakeFiles/AHT20.dir/C_/VSARM/sdk/pico/pico-sdk/lib/cyw43-driver/src/cyw43_ll.c.obj
 .rodata.cyw43_ll_process_packets.str1.4
                0x00000000       0x1a CMakeFiles/AHT20.dir/C_/VSARM/sdk/pico/pico-sdk/lib/cyw43-driver/src/cyw43_ll.c.obj
 .text.cyw43_ll_process_packets
                0x00000000       0x60 CMakeFiles/AHT20.dir/C_/VSARM/sdk/pico/pico-sdk/lib/cyw43-driver/src/cyw43_ll.c.obj
 .rodata.cyw43_sdpcm_send_common.str1.4
                0x00000000       0x22 CMakeFiles/AHT20.dir/C_/VSARM/sdk/pico/pico-sdk/lib/cyw43-driver/src/cyw43_ll.c.obj
 .text.cyw43_sdpcm_send_common
                0x00000000      0x104 CMakeFiles/AHT20.dir/C_/VSARM/sdk/pico/pico-sdk/lib/cyw43-driver/src/cyw43_ll.c.obj
 .text.cyw43_ll_send_ethernet
                0x00000000       0x5e CMakeFiles/AHT20.dir/C_/VSARM/sdk/pico/pico-sdk/lib/cyw43-driver/src/cyw43_ll.c.obj
 .text.cyw43_send_ioctl
                0x00000000       0x56 CMakeFiles/AHT20.dir/C_/VSARM/sdk/pico/pico-sdk/lib/cyw43-driver/src/cyw43_ll.c.obj
 .rodata.cyw43_do_ioctl.str1.4
                0x00000000       0x53 CMakeFiles/AHT20.dir/C_/VSARM/sdk/pico/pico-sdk/lib/cyw43-driver/src/cyw43_ll.c.obj
 .text.cyw43_do_ioctl
                0x00000000       0xc0 CMakeFiles/AHT20.dir/C_/VSARM/sdk/pico/pico-sdk/lib/cyw43-driver/src/cyw43_ll.c.obj
 .text.cyw43_ll_ioctl
                0x00000000       0x1e CMakeFiles/AHT20.dir/C_/VSARM/sdk/pico/pico-sdk/lib/cyw43-driver/src/cyw43_ll.c.obj
 .rodata.cyw43_clm_load.str1.4
                0x00000000       0x18 CMakeFiles/AHT20.dir/C_/VSARM/sdk/pico/pico-sdk/lib/cyw43-driver/src/cyw43_ll.c.obj
 .text.cyw43_clm_load
                0x00000000       0xdc CMakeFiles/AHT20.dir/C_/VSARM/sdk/pico/pico-sdk/lib/cyw43-driver/src/cyw43_ll.c.obj
 .text.cyw43_write_iovar_u32
                0x00000000       0x60 CMakeFiles/AHT20.dir/C_/VSARM/sdk/pico/pico-sdk/lib/cyw43-driver/src/cyw43_ll.c.obj
 .text.cyw43_write_iovar_n
                0x00000000       0x50 CMakeFiles/AHT20.dir/C_/VSARM/sdk/pico/pico-sdk/lib/cyw43-driver/src/cyw43_ll.c.obj
 .text.cyw43_set_ioctl_u32
                0x00000000       0x30 CMakeFiles/AHT20.dir/C_/VSARM/sdk/pico/pico-sdk/lib/cyw43-driver/src/cyw43_ll.c.obj
 .text.cyw43_read_iovar_u32
                0x00000000       0x6e CMakeFiles/AHT20.dir/C_/VSARM/sdk/pico/pico-sdk/lib/cyw43-driver/src/cyw43_ll.c.obj
 .text.cyw43_get_ioctl_u32
                0x00000000       0x50 CMakeFiles/AHT20.dir/C_/VSARM/sdk/pico/pico-sdk/lib/cyw43-driver/src/cyw43_ll.c.obj
 .text.cyw43_write_iovar_u32_u32
                0x00000000       0x74 CMakeFiles/AHT20.dir/C_/VSARM/sdk/pico/pico-sdk/lib/cyw43-driver/src/cyw43_ll.c.obj
 .rodata.cyw43_ll_wifi_on.str1.4
                0x00000000       0x52 CMakeFiles/AHT20.dir/C_/VSARM/sdk/pico/pico-sdk/lib/cyw43-driver/src/cyw43_ll.c.obj
 .text.cyw43_ll_wifi_on
                0x00000000      0x1a8 CMakeFiles/AHT20.dir/C_/VSARM/sdk/pico/pico-sdk/lib/cyw43-driver/src/cyw43_ll.c.obj
 .text.cyw43_ll_wifi_get_mac
                0x00000000       0x44 CMakeFiles/AHT20.dir/C_/VSARM/sdk/pico/pico-sdk/lib/cyw43-driver/src/cyw43_ll.c.obj
 .rodata.cyw43_ll_bus_init.str1.4
                0x00000000       0xc2 CMakeFiles/AHT20.dir/C_/VSARM/sdk/pico/pico-sdk/lib/cyw43-driver/src/cyw43_ll.c.obj
 .text.cyw43_ll_bus_init
                0x00000000      0x360 CMakeFiles/AHT20.dir/C_/VSARM/sdk/pico/pico-sdk/lib/cyw43-driver/src/cyw43_ll.c.obj
 .rodata.cyw43_ll_wifi_update_multicast_filter.str1.4
                0x00000000        0xb CMakeFiles/AHT20.dir/C_/VSARM/sdk/pico/pico-sdk/lib/cyw43-driver/src/cyw43_ll.c.obj
 .text.cyw43_ll_wifi_update_multicast_filter
                0x00000000      0x124 CMakeFiles/AHT20.dir/C_/VSARM/sdk/pico/pico-sdk/lib/cyw43-driver/src/cyw43_ll.c.obj
 .rodata.cyw43_ll_wifi_pm.str1.4
                0x00000000       0x35 CMakeFiles/AHT20.dir/C_/VSARM/sdk/pico/pico-sdk/lib/cyw43-driver/src/cyw43_ll.c.obj
 .text.cyw43_ll_wifi_pm
                0x00000000       0xcc CMakeFiles/AHT20.dir/C_/VSARM/sdk/pico/pico-sdk/lib/cyw43-driver/src/cyw43_ll.c.obj
 .text.cyw43_ll_wifi_get_pm
                0x00000000       0x5c CMakeFiles/AHT20.dir/C_/VSARM/sdk/pico/pico-sdk/lib/cyw43-driver/src/cyw43_ll.c.obj
 .rodata.cyw43_ll_wifi_scan.str1.4
                0x00000000        0x6 CMakeFiles/AHT20.dir/C_/VSARM/sdk/pico/pico-sdk/lib/cyw43-driver/src/cyw43_ll.c.obj
 .text.cyw43_ll_wifi_scan
                0x00000000       0x4c CMakeFiles/AHT20.dir/C_/VSARM/sdk/pico/pico-sdk/lib/cyw43-driver/src/cyw43_ll.c.obj
 .rodata.cyw43_ll_wifi_join.str1.4
                0x00000000       0x41 CMakeFiles/AHT20.dir/C_/VSARM/sdk/pico/pico-sdk/lib/cyw43-driver/src/cyw43_ll.c.obj
 .text.cyw43_ll_wifi_join
                0x00000000      0x258 CMakeFiles/AHT20.dir/C_/VSARM/sdk/pico/pico-sdk/lib/cyw43-driver/src/cyw43_ll.c.obj
 .text.cyw43_ll_wifi_set_wpa_auth
                0x00000000        0xe CMakeFiles/AHT20.dir/C_/VSARM/sdk/pico/pico-sdk/lib/cyw43-driver/src/cyw43_ll.c.obj
 .text.cyw43_ll_wifi_rejoin
                0x00000000       0x20 CMakeFiles/AHT20.dir/C_/VSARM/sdk/pico/pico-sdk/lib/cyw43-driver/src/cyw43_ll.c.obj
 .text.cyw43_ll_wifi_get_bssid
                0x00000000       0x18 CMakeFiles/AHT20.dir/C_/VSARM/sdk/pico/pico-sdk/lib/cyw43-driver/src/cyw43_ll.c.obj
 .rodata.cyw43_ll_wifi_ap_init.str1.4
                0x00000000       0x31 CMakeFiles/AHT20.dir/C_/VSARM/sdk/pico/pico-sdk/lib/cyw43-driver/src/cyw43_ll.c.obj
 .text.cyw43_ll_wifi_ap_init
                0x00000000      0x194 CMakeFiles/AHT20.dir/C_/VSARM/sdk/pico/pico-sdk/lib/cyw43-driver/src/cyw43_ll.c.obj
 .rodata.cyw43_ll_wifi_ap_set_up.str1.4
                0x00000000        0x4 CMakeFiles/AHT20.dir/C_/VSARM/sdk/pico/pico-sdk/lib/cyw43-driver/src/cyw43_ll.c.obj
 .text.cyw43_ll_wifi_ap_set_up
                0x00000000       0x20 CMakeFiles/AHT20.dir/C_/VSARM/sdk/pico/pico-sdk/lib/cyw43-driver/src/cyw43_ll.c.obj
 .text.cyw43_ll_wifi_ap_get_stas
                0x00000000       0xe4 CMakeFiles/AHT20.dir/C_/VSARM/sdk/pico/pico-sdk/lib/cyw43-driver/src/cyw43_ll.c.obj
 .rodata.cyw43_ll_gpio_set.str1.4
                0x00000000        0x8 CMakeFiles/AHT20.dir/C_/VSARM/sdk/pico/pico-sdk/lib/cyw43-driver/src/cyw43_ll.c.obj
 .text.cyw43_ll_gpio_set
                0x00000000       0x30 CMakeFiles/AHT20.dir/C_/VSARM/sdk/pico/pico-sdk/lib/cyw43-driver/src/cyw43_ll.c.obj
 .text.cyw43_ll_gpio_get
                0x00000000       0x6c CMakeFiles/AHT20.dir/C_/VSARM/sdk/pico/pico-sdk/lib/cyw43-driver/src/cyw43_ll.c.obj
 .text.cyw43_ll_has_work
                0x00000000       0x12 CMakeFiles/AHT20.dir/C_/VSARM/sdk/pico/pico-sdk/lib/cyw43-driver/src/cyw43_ll.c.obj
 .rodata.__func__.0
                0x00000000       0x18 CMakeFiles/AHT20.dir/C_/VSARM/sdk/pico/pico-sdk/lib/cyw43-driver/src/cyw43_ll.c.obj
 .rodata.__func__.1
                0x00000000       0x10 CMakeFiles/AHT20.dir/C_/VSARM/sdk/pico/pico-sdk/lib/cyw43-driver/src/cyw43_ll.c.obj
 .rodata.__func__.2
                0x00000000        0xf CMakeFiles/AHT20.dir/C_/VSARM/sdk/pico/pico-sdk/lib/cyw43-driver/src/cyw43_ll.c.obj
 .bss.last_spi_int.3
                0x00000000        0x2 CMakeFiles/AHT20.dir/C_/VSARM/sdk/pico/pico-sdk/lib/cyw43-driver/src/cyw43_ll.c.obj
 .rodata.fw_data
                0x00000000        0x4 CMakeFiles/AHT20.dir/C_/VSARM/sdk/pico/pico-sdk/lib/cyw43-driver/src/cyw43_ll.c.obj
 .rodata.w43439A0_7_95_49_00_combined
                0x00000000    0x36fd8 CMakeFiles/AHT20.dir/C_/VSARM/sdk/pico/pico-sdk/lib/cyw43-driver/src/cyw43_ll.c.obj
 .rodata.wifi_nvram_4343
                0x00000000      0x2e7 CMakeFiles/AHT20.dir/C_/VSARM/sdk/pico/pico-sdk/lib/cyw43-driver/src/cyw43_ll.c.obj
 .rodata        0x00000000       0x7a CMakeFiles/AHT20.dir/C_/VSARM/sdk/pico/pico-sdk/lib/cyw43-driver/src/cyw43_ll.c.obj
 .debug_info    0x00000000     0x57dc CMakeFiles/AHT20.dir/C_/VSARM/sdk/pico/pico-sdk/lib/cyw43-driver/src/cyw43_ll.c.obj
 .debug_abbrev  0x00000000      0x4d2 CMakeFiles/AHT20.dir/C_/VSARM/sdk/pico/pico-sdk/lib/cyw43-driver/src/cyw43_ll.c.obj
 .debug_loclists
                0x00000000     0x2af4 CMakeFiles/AHT20.dir/C_/VSARM/sdk/pico/pico-sdk/lib/cyw43-driver/src/cyw43_ll.c.obj
 .debug_aranges
                0x00000000      0x1a0 CMakeFiles/AHT20.dir/C_/VSARM/sdk/pico/pico-sdk/lib/cyw43-driver/src/cyw43_ll.c.obj
 .debug_rnglists
                0x00000000      0x289 CMakeFiles/AHT20.dir/C_/VSARM/sdk/pico/pico-sdk/lib/cyw43-driver/src/cyw43_ll.c.obj
 .debug_line    0x00000000     0x25eb CMakeFiles/AHT20.dir/C_/VSARM/sdk/pico/pico-sdk/lib/cyw43-driver/src/cyw43_ll.c.obj
 .debug_str     0x00000000     0x1201 CMakeFiles/AHT20.dir/C_/VSARM/sdk/pico/pico-sdk/lib/cyw43-driver/src/cyw43_ll.c.obj
 .comment       0x00000000       0x46 CMakeFiles/AHT20.dir/C_/VSARM/sdk/pico/pico-sdk/lib/cyw43-driver/src/cyw43_ll.c.obj
 .debug_frame   0x00000000      0x64c CMakeFiles/AHT20.dir/C_/VSARM/sdk/pico/pico-sdk/lib/cyw43-driver/src/cyw43_ll.c.obj
 .ARM.attributes
                0x00000000       0x2c CMakeFiles/AHT20.dir/C_/VSARM/sdk/pico/pico-sdk/lib/cyw43-driver/src/cyw43_ll.c.obj
 .text          0x00000000        0x0 CMakeFiles/AHT20.dir/C_/VSARM/sdk/pico/pico-sdk/lib/cyw43-driver/src/cyw43_stats.c.obj
 .data          0x00000000        0x0 CMakeFiles/AHT20.dir/C_/VSARM/sdk/pico/pico-sdk/lib/cyw43-driver/src/cyw43_stats.c.obj
 .bss           0x00000000        0x0 CMakeFiles/AHT20.dir/C_/VSARM/sdk/pico/pico-sdk/lib/cyw43-driver/src/cyw43_stats.c.obj
 .rodata.cyw43_dump_stats.str1.4
                0x00000000       0x21 CMakeFiles/AHT20.dir/C_/VSARM/sdk/pico/pico-sdk/lib/cyw43-driver/src/cyw43_stats.c.obj
 .text.cyw43_dump_stats
                0x00000000       0x24 CMakeFiles/AHT20.dir/C_/VSARM/sdk/pico/pico-sdk/lib/cyw43-driver/src/cyw43_stats.c.obj
 .bss.reported.0
                0x00000000        0x1 CMakeFiles/AHT20.dir/C_/VSARM/sdk/pico/pico-sdk/lib/cyw43-driver/src/cyw43_stats.c.obj
 .debug_info    0x00000000       0xc9 CMakeFiles/AHT20.dir/C_/VSARM/sdk/pico/pico-sdk/lib/cyw43-driver/src/cyw43_stats.c.obj
 .debug_abbrev  0x00000000       0x79 CMakeFiles/AHT20.dir/C_/VSARM/sdk/pico/pico-sdk/lib/cyw43-driver/src/cyw43_stats.c.obj
 .debug_aranges
                0x00000000       0x20 CMakeFiles/AHT20.dir/C_/VSARM/sdk/pico/pico-sdk/lib/cyw43-driver/src/cyw43_stats.c.obj
 .debug_rnglists
                0x00000000       0x13 CMakeFiles/AHT20.dir/C_/VSARM/sdk/pico/pico-sdk/lib/cyw43-driver/src/cyw43_stats.c.obj
 .debug_line    0x00000000       0x99 CMakeFiles/AHT20.dir/C_/VSARM/sdk/pico/pico-sdk/lib/cyw43-driver/src/cyw43_stats.c.obj
 .debug_str     0x00000000      0x1bc CMakeFiles/AHT20.dir/C_/VSARM/sdk/pico/pico-sdk/lib/cyw43-driver/src/cyw43_stats.c.obj
 .comment       0x00000000       0x46 CMakeFiles/AHT20.dir/C_/VSARM/sdk/pico/pico-sdk/lib/cyw43-driver/src/cyw43_stats.c.obj
 .debug_frame   0x00000000       0x28 CMakeFiles/AHT20.dir/C_/VSARM/sdk/pico/pico-sdk/lib/cyw43-driver/src/cyw43_stats.c.obj
 .ARM.attributes
                0x00000000       0x2c CMakeFiles/AHT20.dir/C_/VSARM/sdk/pico/pico-sdk/lib/cyw43-driver/src/cyw43_stats.c.obj
 .text          0x00000000        0x0 CMakeFiles/AHT20.dir/C_/VSARM/sdk/pico/pico-sdk/lib/cyw43-driver/src/cyw43_lwip.c.obj
 .data          0x00000000        0x0 CMakeFiles/AHT20.dir/C_/VSARM/sdk/pico/pico-sdk/lib/cyw43-driver/src/cyw43_lwip.c.obj
 .bss           0x00000000        0x0 CMakeFiles/AHT20.dir/C_/VSARM/sdk/pico/pico-sdk/lib/cyw43-driver/src/cyw43_lwip.c.obj
 .text.cyw43_netif_init
                0x00000000       0x3c CMakeFiles/AHT20.dir/C_/VSARM/sdk/pico/pico-sdk/lib/cyw43-driver/src/cyw43_lwip.c.obj
 .rodata.cyw43_netif_output.str1.4
                0x00000000       0x22 CMakeFiles/AHT20.dir/C_/VSARM/sdk/pico/pico-sdk/lib/cyw43-driver/src/cyw43_lwip.c.obj
 .text.cyw43_netif_output
                0x00000000       0x38 CMakeFiles/AHT20.dir/C_/VSARM/sdk/pico/pico-sdk/lib/cyw43-driver/src/cyw43_lwip.c.obj
 .rodata.cyw43_cb_tcpip_init.str1.4
                0x00000000        0x6 CMakeFiles/AHT20.dir/C_/VSARM/sdk/pico/pico-sdk/lib/cyw43-driver/src/cyw43_lwip.c.obj
 .text.cyw43_cb_tcpip_init
                0x00000000       0xc4 CMakeFiles/AHT20.dir/C_/VSARM/sdk/pico/pico-sdk/lib/cyw43-driver/src/cyw43_lwip.c.obj
 .text.cyw43_cb_tcpip_deinit
                0x00000000       0x44 CMakeFiles/AHT20.dir/C_/VSARM/sdk/pico/pico-sdk/lib/cyw43-driver/src/cyw43_lwip.c.obj
 .text.cyw43_cb_process_ethernet
                0x00000000       0x74 CMakeFiles/AHT20.dir/C_/VSARM/sdk/pico/pico-sdk/lib/cyw43-driver/src/cyw43_lwip.c.obj
 .text.cyw43_cb_tcpip_set_link_up
                0x00000000       0x16 CMakeFiles/AHT20.dir/C_/VSARM/sdk/pico/pico-sdk/lib/cyw43-driver/src/cyw43_lwip.c.obj
 .text.cyw43_cb_tcpip_set_link_down
                0x00000000       0x16 CMakeFiles/AHT20.dir/C_/VSARM/sdk/pico/pico-sdk/lib/cyw43-driver/src/cyw43_lwip.c.obj
 .text.cyw43_tcpip_link_status
                0x00000000       0x3c CMakeFiles/AHT20.dir/C_/VSARM/sdk/pico/pico-sdk/lib/cyw43-driver/src/cyw43_lwip.c.obj
 .debug_info    0x00000000      0xf5f CMakeFiles/AHT20.dir/C_/VSARM/sdk/pico/pico-sdk/lib/cyw43-driver/src/cyw43_lwip.c.obj
 .debug_abbrev  0x00000000      0x381 CMakeFiles/AHT20.dir/C_/VSARM/sdk/pico/pico-sdk/lib/cyw43-driver/src/cyw43_lwip.c.obj
 .debug_loclists
                0x00000000      0x3f9 CMakeFiles/AHT20.dir/C_/VSARM/sdk/pico/pico-sdk/lib/cyw43-driver/src/cyw43_lwip.c.obj
 .debug_aranges
                0x00000000       0x58 CMakeFiles/AHT20.dir/C_/VSARM/sdk/pico/pico-sdk/lib/cyw43-driver/src/cyw43_lwip.c.obj
 .debug_rnglists
                0x00000000       0x56 CMakeFiles/AHT20.dir/C_/VSARM/sdk/pico/pico-sdk/lib/cyw43-driver/src/cyw43_lwip.c.obj
 .debug_line    0x00000000      0x4ff CMakeFiles/AHT20.dir/C_/VSARM/sdk/pico/pico-sdk/lib/cyw43-driver/src/cyw43_lwip.c.obj
 .debug_str     0x00000000      0x8a9 CMakeFiles/AHT20.dir/C_/VSARM/sdk/pico/pico-sdk/lib/cyw43-driver/src/cyw43_lwip.c.obj
 .comment       0x00000000       0x46 CMakeFiles/AHT20.dir/C_/VSARM/sdk/pico/pico-sdk/lib/cyw43-driver/src/cyw43_lwip.c.obj
 .debug_frame   0x00000000       0xf0 CMakeFiles/AHT20.dir/C_/VSARM/sdk/pico/pico-sdk/lib/cyw43-driver/src/cyw43_lwip.c.obj
 .ARM.attributes
                0x00000000       0x2c CMakeFiles/AHT20.dir/C_/VSARM/sdk/pico/pico-sdk/lib/cyw43-driver/src/cyw43_lwip.c.obj
 .text          0x00000000        0x0 CMakeFiles/AHT20.dir/C_/VSARM/sdk/pico/pico-sdk/lib/cyw43-driver/src/cyw43_ctrl.c.obj
 .data          0x00000000        0x0 CMakeFiles/AHT20.dir/C_/VSARM/sdk/pico/pico-sdk/lib/cyw43-driver/src/cyw43_ctrl.c.obj
 .bss           0x00000000        0x0 CMakeFiles/AHT20.dir/C_/VSARM/sdk/pico/pico-sdk/lib/cyw43-driver/src/cyw43_ctrl.c.obj
 .text.to_ms_since_boot
                0x00000000       0x1c CMakeFiles/AHT20.dir/C_/VSARM/sdk/pico/pico-sdk/lib/cyw43-driver/src/cyw43_ctrl.c.obj
 .rodata.update_us_since_boot.str1.4
                0x00000000       0x61 CMakeFiles/AHT20.dir/C_/VSARM/sdk/pico/pico-sdk/lib/cyw43-driver/src/cyw43_ctrl.c.obj
 .text.update_us_since_boot
                0x00000000       0x24 CMakeFiles/AHT20.dir/C_/VSARM/sdk/pico/pico-sdk/lib/cyw43-driver/src/cyw43_ctrl.c.obj
 .text.cyw43_poll_func
                0x00000000       0xac CMakeFiles/AHT20.dir/C_/VSARM/sdk/pico/pico-sdk/lib/cyw43-driver/src/cyw43_ctrl.c.obj
 .text.get_absolute_time
                0x00000000       0x22 CMakeFiles/AHT20.dir/C_/VSARM/sdk/pico/pico-sdk/lib/cyw43-driver/src/cyw43_ctrl.c.obj
 .text.cyw43_hal_ticks_ms
                0x00000000       0x16 CMakeFiles/AHT20.dir/C_/VSARM/sdk/pico/pico-sdk/lib/cyw43-driver/src/cyw43_ctrl.c.obj
 .rodata.cyw43_dump_async_event.str1.4
                0x00000000       0x28 CMakeFiles/AHT20.dir/C_/VSARM/sdk/pico/pico-sdk/lib/cyw43-driver/src/cyw43_ctrl.c.obj
 .text.cyw43_dump_async_event
                0x00000000       0x58 CMakeFiles/AHT20.dir/C_/VSARM/sdk/pico/pico-sdk/lib/cyw43-driver/src/cyw43_ctrl.c.obj
 .rodata.cyw43_ensure_up.str1.4
                0x00000000       0x90 CMakeFiles/AHT20.dir/C_/VSARM/sdk/pico/pico-sdk/lib/cyw43-driver/src/cyw43_ctrl.c.obj
 .text.cyw43_ensure_up
                0x00000000       0xec CMakeFiles/AHT20.dir/C_/VSARM/sdk/pico/pico-sdk/lib/cyw43-driver/src/cyw43_ctrl.c.obj
 .text.cyw43_wifi_on
                0x00000000       0x2c CMakeFiles/AHT20.dir/C_/VSARM/sdk/pico/pico-sdk/lib/cyw43-driver/src/cyw43_ctrl.c.obj
 .text.cyw43_wifi_ap_init
                0x00000000       0x5c CMakeFiles/AHT20.dir/C_/VSARM/sdk/pico/pico-sdk/lib/cyw43-driver/src/cyw43_ctrl.c.obj
 .text.cyw43_wifi_ap_set_up
                0x00000000       0x28 CMakeFiles/AHT20.dir/C_/VSARM/sdk/pico/pico-sdk/lib/cyw43-driver/src/cyw43_ctrl.c.obj
 .text.cyw43_init
                0x00000000       0x8c CMakeFiles/AHT20.dir/C_/VSARM/sdk/pico/pico-sdk/lib/cyw43-driver/src/cyw43_ctrl.c.obj
 .text.cyw43_deinit
                0x00000000       0x3c CMakeFiles/AHT20.dir/C_/VSARM/sdk/pico/pico-sdk/lib/cyw43-driver/src/cyw43_ctrl.c.obj
 .text.cyw43_cb_read_host_interrupt_pin
                0x00000000        0xe CMakeFiles/AHT20.dir/C_/VSARM/sdk/pico/pico-sdk/lib/cyw43-driver/src/cyw43_ctrl.c.obj
 .text.cyw43_cb_ensure_awake
                0x00000000        0xc CMakeFiles/AHT20.dir/C_/VSARM/sdk/pico/pico-sdk/lib/cyw43-driver/src/cyw43_ctrl.c.obj
 .text.cyw43_cb_process_async_event
                0x00000000      0x1b0 CMakeFiles/AHT20.dir/C_/VSARM/sdk/pico/pico-sdk/lib/cyw43-driver/src/cyw43_ctrl.c.obj
 .rodata.cyw43_cb_process_async_event
                0x00000000       0xbc CMakeFiles/AHT20.dir/C_/VSARM/sdk/pico/pico-sdk/lib/cyw43-driver/src/cyw43_ctrl.c.obj
 .text.cyw43_ioctl
                0x00000000       0x3c CMakeFiles/AHT20.dir/C_/VSARM/sdk/pico/pico-sdk/lib/cyw43-driver/src/cyw43_ctrl.c.obj
 .text.cyw43_send_ethernet
                0x00000000       0x3e CMakeFiles/AHT20.dir/C_/VSARM/sdk/pico/pico-sdk/lib/cyw43-driver/src/cyw43_ctrl.c.obj
 .text.cyw43_wifi_pm
                0x00000000       0x4a CMakeFiles/AHT20.dir/C_/VSARM/sdk/pico/pico-sdk/lib/cyw43-driver/src/cyw43_ctrl.c.obj
 .text.cyw43_wifi_get_pm
                0x00000000       0x86 CMakeFiles/AHT20.dir/C_/VSARM/sdk/pico/pico-sdk/lib/cyw43-driver/src/cyw43_ctrl.c.obj
 .text.cyw43_wifi_get_mac
                0x00000000        0xe CMakeFiles/AHT20.dir/C_/VSARM/sdk/pico/pico-sdk/lib/cyw43-driver/src/cyw43_ctrl.c.obj
 .text.cyw43_wifi_update_multicast_filter
                0x00000000       0x20 CMakeFiles/AHT20.dir/C_/VSARM/sdk/pico/pico-sdk/lib/cyw43-driver/src/cyw43_ctrl.c.obj
 .text.cyw43_wifi_set_up
                0x00000000       0x90 CMakeFiles/AHT20.dir/C_/VSARM/sdk/pico/pico-sdk/lib/cyw43-driver/src/cyw43_ctrl.c.obj
 .text.cyw43_wifi_scan
                0x00000000       0x60 CMakeFiles/AHT20.dir/C_/VSARM/sdk/pico/pico-sdk/lib/cyw43-driver/src/cyw43_ctrl.c.obj
 .text.cyw43_wifi_link_status
                0x00000000       0x3c CMakeFiles/AHT20.dir/C_/VSARM/sdk/pico/pico-sdk/lib/cyw43-driver/src/cyw43_ctrl.c.obj
 .text.cyw43_wifi_join
                0x00000000       0x78 CMakeFiles/AHT20.dir/C_/VSARM/sdk/pico/pico-sdk/lib/cyw43-driver/src/cyw43_ctrl.c.obj
 .text.cyw43_wifi_leave
                0x00000000       0x14 CMakeFiles/AHT20.dir/C_/VSARM/sdk/pico/pico-sdk/lib/cyw43-driver/src/cyw43_ctrl.c.obj
 .text.cyw43_wifi_get_rssi
                0x00000000       0x2e CMakeFiles/AHT20.dir/C_/VSARM/sdk/pico/pico-sdk/lib/cyw43-driver/src/cyw43_ctrl.c.obj
 .text.cyw43_wifi_get_bssid
                0x00000000       0x1c CMakeFiles/AHT20.dir/C_/VSARM/sdk/pico/pico-sdk/lib/cyw43-driver/src/cyw43_ctrl.c.obj
 .text.cyw43_wifi_ap_get_stas
                0x00000000       0x2c CMakeFiles/AHT20.dir/C_/VSARM/sdk/pico/pico-sdk/lib/cyw43-driver/src/cyw43_ctrl.c.obj
 .text.cyw43_wifi_ap_get_max_stas
                0x00000000        0xa CMakeFiles/AHT20.dir/C_/VSARM/sdk/pico/pico-sdk/lib/cyw43-driver/src/cyw43_ctrl.c.obj
 .text.cyw43_gpio_set
                0x00000000       0x30 CMakeFiles/AHT20.dir/C_/VSARM/sdk/pico/pico-sdk/lib/cyw43-driver/src/cyw43_ctrl.c.obj
 .text.cyw43_gpio_get
                0x00000000       0x30 CMakeFiles/AHT20.dir/C_/VSARM/sdk/pico/pico-sdk/lib/cyw43-driver/src/cyw43_ctrl.c.obj
 .rodata.__func__.0
                0x00000000       0x10 CMakeFiles/AHT20.dir/C_/VSARM/sdk/pico/pico-sdk/lib/cyw43-driver/src/cyw43_ctrl.c.obj
 .rodata.__func__.1
                0x00000000       0x15 CMakeFiles/AHT20.dir/C_/VSARM/sdk/pico/pico-sdk/lib/cyw43-driver/src/cyw43_ctrl.c.obj
 .rodata.str1.4
                0x00000000       0x9e CMakeFiles/AHT20.dir/C_/VSARM/sdk/pico/pico-sdk/lib/cyw43-driver/src/cyw43_ctrl.c.obj
 .rodata.cyw43_async_event_name_table
                0x00000000      0x164 CMakeFiles/AHT20.dir/C_/VSARM/sdk/pico/pico-sdk/lib/cyw43-driver/src/cyw43_ctrl.c.obj
 .bss.cyw43_sleep
                0x00000000        0x4 CMakeFiles/AHT20.dir/C_/VSARM/sdk/pico/pico-sdk/lib/cyw43-driver/src/cyw43_ctrl.c.obj
 .bss.cyw43_poll
                0x00000000        0x4 CMakeFiles/AHT20.dir/C_/VSARM/sdk/pico/pico-sdk/lib/cyw43-driver/src/cyw43_ctrl.c.obj
 .bss.cyw43_state
                0x00000000      0x9a0 CMakeFiles/AHT20.dir/C_/VSARM/sdk/pico/pico-sdk/lib/cyw43-driver/src/cyw43_ctrl.c.obj
 .debug_info    0x00000000     0x2bd8 CMakeFiles/AHT20.dir/C_/VSARM/sdk/pico/pico-sdk/lib/cyw43-driver/src/cyw43_ctrl.c.obj
 .debug_abbrev  0x00000000      0x5e9 CMakeFiles/AHT20.dir/C_/VSARM/sdk/pico/pico-sdk/lib/cyw43-driver/src/cyw43_ctrl.c.obj
 .debug_loclists
                0x00000000      0xd7d CMakeFiles/AHT20.dir/C_/VSARM/sdk/pico/pico-sdk/lib/cyw43-driver/src/cyw43_ctrl.c.obj
 .debug_aranges
                0x00000000      0x118 CMakeFiles/AHT20.dir/C_/VSARM/sdk/pico/pico-sdk/lib/cyw43-driver/src/cyw43_ctrl.c.obj
 .debug_rnglists
                0x00000000       0xe2 CMakeFiles/AHT20.dir/C_/VSARM/sdk/pico/pico-sdk/lib/cyw43-driver/src/cyw43_ctrl.c.obj
 .debug_line    0x00000000     0x1120 CMakeFiles/AHT20.dir/C_/VSARM/sdk/pico/pico-sdk/lib/cyw43-driver/src/cyw43_ctrl.c.obj
 .debug_str     0x00000000     0x121c CMakeFiles/AHT20.dir/C_/VSARM/sdk/pico/pico-sdk/lib/cyw43-driver/src/cyw43_ctrl.c.obj
 .comment       0x00000000       0x46 CMakeFiles/AHT20.dir/C_/VSARM/sdk/pico/pico-sdk/lib/cyw43-driver/src/cyw43_ctrl.c.obj
 .debug_frame   0x00000000      0x374 CMakeFiles/AHT20.dir/C_/VSARM/sdk/pico/pico-sdk/lib/cyw43-driver/src/cyw43_ctrl.c.obj
 .ARM.attributes
                0x00000000       0x2c CMakeFiles/AHT20.dir/C_/VSARM/sdk/pico/pico-sdk/lib/cyw43-driver/src/cyw43_ctrl.c.obj
 .text          0x00000000        0x0 CMakeFiles/AHT20.dir/C_/VSARM/sdk/pico/pico-sdk/src/rp2_common/pico_cyw43_driver/cybt_shared_bus/cybt_shared_bus.c.obj
 .data          0x00000000        0x0 CMakeFiles/AHT20.dir/C_/VSARM/sdk/pico/pico-sdk/src/rp2_common/pico_cyw43_driver/cybt_shared_bus/cybt_shared_bus.c.obj
 .bss           0x00000000        0x0 CMakeFiles/AHT20.dir/C_/VSARM/sdk/pico/pico-sdk/src/rp2_common/pico_cyw43_driver/cybt_shared_bus/cybt_shared_bus.c.obj
 .text.to_ms_since_boot
                0x00000000       0x1c CMakeFiles/AHT20.dir/C_/VSARM/sdk/pico/pico-sdk/src/rp2_common/pico_cyw43_driver/cybt_shared_bus/cybt_shared_bus.c.obj
 .rodata.update_us_since_boot.str1.4
                0x00000000       0x61 CMakeFiles/AHT20.dir/C_/VSARM/sdk/pico/pico-sdk/src/rp2_common/pico_cyw43_driver/cybt_shared_bus/cybt_shared_bus.c.obj
 .text.update_us_since_boot
                0x00000000       0x24 CMakeFiles/AHT20.dir/C_/VSARM/sdk/pico/pico-sdk/src/rp2_common/pico_cyw43_driver/cybt_shared_bus/cybt_shared_bus.c.obj
 .text.cybt_fw_download_prepare
                0x00000000       0x3a CMakeFiles/AHT20.dir/C_/VSARM/sdk/pico/pico-sdk/src/rp2_common/pico_cyw43_driver/cybt_shared_bus/cybt_shared_bus.c.obj
 .text.cybt_fw_download_finish
                0x00000000       0x1a CMakeFiles/AHT20.dir/C_/VSARM/sdk/pico/pico-sdk/src/rp2_common/pico_cyw43_driver/cybt_shared_bus/cybt_shared_bus.c.obj
 .text.cybt_wait_bt_ready
                0x00000000       0x2a CMakeFiles/AHT20.dir/C_/VSARM/sdk/pico/pico-sdk/src/rp2_common/pico_cyw43_driver/cybt_shared_bus/cybt_shared_bus.c.obj
 .text.get_absolute_time
                0x00000000       0x22 CMakeFiles/AHT20.dir/C_/VSARM/sdk/pico/pico-sdk/src/rp2_common/pico_cyw43_driver/cybt_shared_bus/cybt_shared_bus.c.obj
 .text.cyw43_hal_ticks_ms
                0x00000000       0x16 CMakeFiles/AHT20.dir/C_/VSARM/sdk/pico/pico-sdk/src/rp2_common/pico_cyw43_driver/cybt_shared_bus/cybt_shared_bus.c.obj
 .text.cybt_wait_bt_awake
                0x00000000       0x24 CMakeFiles/AHT20.dir/C_/VSARM/sdk/pico/pico-sdk/src/rp2_common/pico_cyw43_driver/cybt_shared_bus/cybt_shared_bus.c.obj
 .rodata.cybt_bus_request.str1.4
                0x00000000       0x6a CMakeFiles/AHT20.dir/C_/VSARM/sdk/pico/pico-sdk/src/rp2_common/pico_cyw43_driver/cybt_shared_bus/cybt_shared_bus.c.obj
 .text.cybt_bus_request
                0x00000000       0x48 CMakeFiles/AHT20.dir/C_/VSARM/sdk/pico/pico-sdk/src/rp2_common/pico_cyw43_driver/cybt_shared_bus/cybt_shared_bus.c.obj
 .rodata.cybt_hci_write_buf.str1.4
                0x00000000       0x2c CMakeFiles/AHT20.dir/C_/VSARM/sdk/pico/pico-sdk/src/rp2_common/pico_cyw43_driver/cybt_shared_bus/cybt_shared_bus.c.obj
 .text.cybt_hci_write_buf
                0x00000000       0xcc CMakeFiles/AHT20.dir/C_/VSARM/sdk/pico/pico-sdk/src/rp2_common/pico_cyw43_driver/cybt_shared_bus/cybt_shared_bus.c.obj
 .text.cybt_bus_release
                0x00000000        0x8 CMakeFiles/AHT20.dir/C_/VSARM/sdk/pico/pico-sdk/src/rp2_common/pico_cyw43_driver/cybt_shared_bus/cybt_shared_bus.c.obj
 .rodata.cybt_hci_read.str1.4
                0x00000000       0xaa CMakeFiles/AHT20.dir/C_/VSARM/sdk/pico/pico-sdk/src/rp2_common/pico_cyw43_driver/cybt_shared_bus/cybt_shared_bus.c.obj
 .text.cybt_hci_read
                0x00000000      0x164 CMakeFiles/AHT20.dir/C_/VSARM/sdk/pico/pico-sdk/src/rp2_common/pico_cyw43_driver/cybt_shared_bus/cybt_shared_bus.c.obj
 .rodata.cybt_hci_read_packet.str1.4
                0x00000000      0x110 CMakeFiles/AHT20.dir/C_/VSARM/sdk/pico/pico-sdk/src/rp2_common/pico_cyw43_driver/cybt_shared_bus/cybt_shared_bus.c.obj
 .text.cybt_hci_read_packet
                0x00000000      0x18c CMakeFiles/AHT20.dir/C_/VSARM/sdk/pico/pico-sdk/src/rp2_common/pico_cyw43_driver/cybt_shared_bus/cybt_shared_bus.c.obj
 .rodata.cyw43_btbus_init.str1.4
                0x00000000       0x71 CMakeFiles/AHT20.dir/C_/VSARM/sdk/pico/pico-sdk/src/rp2_common/pico_cyw43_driver/cybt_shared_bus/cybt_shared_bus.c.obj
 .text.cyw43_btbus_init
                0x00000000      0x104 CMakeFiles/AHT20.dir/C_/VSARM/sdk/pico/pico-sdk/src/rp2_common/pico_cyw43_driver/cybt_shared_bus/cybt_shared_bus.c.obj
 .text.cyw43_btbus_write
                0x00000000       0x2a CMakeFiles/AHT20.dir/C_/VSARM/sdk/pico/pico-sdk/src/rp2_common/pico_cyw43_driver/cybt_shared_bus/cybt_shared_bus.c.obj
 .text.cyw43_btbus_read
                0x00000000       0x2a CMakeFiles/AHT20.dir/C_/VSARM/sdk/pico/pico-sdk/src/rp2_common/pico_cyw43_driver/cybt_shared_bus/cybt_shared_bus.c.obj
 .bss.available.0
                0x00000000        0x4 CMakeFiles/AHT20.dir/C_/VSARM/sdk/pico/pico-sdk/src/rp2_common/pico_cyw43_driver/cybt_shared_bus/cybt_shared_bus.c.obj
 .rodata.__func__.1
                0x00000000        0xe CMakeFiles/AHT20.dir/C_/VSARM/sdk/pico/pico-sdk/src/rp2_common/pico_cyw43_driver/cybt_shared_bus/cybt_shared_bus.c.obj
 .rodata.__func__.2
                0x00000000       0x15 CMakeFiles/AHT20.dir/C_/VSARM/sdk/pico/pico-sdk/src/rp2_common/pico_cyw43_driver/cybt_shared_bus/cybt_shared_bus.c.obj
 .rodata.__func__.3
                0x00000000       0x13 CMakeFiles/AHT20.dir/C_/VSARM/sdk/pico/pico-sdk/src/rp2_common/pico_cyw43_driver/cybt_shared_bus/cybt_shared_bus.c.obj
 .rodata.__func__.4
                0x00000000       0x11 CMakeFiles/AHT20.dir/C_/VSARM/sdk/pico/pico-sdk/src/rp2_common/pico_cyw43_driver/cybt_shared_bus/cybt_shared_bus.c.obj
 .rodata.__func__.5
                0x00000000       0x15 CMakeFiles/AHT20.dir/C_/VSARM/sdk/pico/pico-sdk/src/rp2_common/pico_cyw43_driver/cybt_shared_bus/cybt_shared_bus.c.obj
 .rodata.__func__.6
                0x00000000       0x11 CMakeFiles/AHT20.dir/C_/VSARM/sdk/pico/pico-sdk/src/rp2_common/pico_cyw43_driver/cybt_shared_bus/cybt_shared_bus.c.obj
 .rodata.cyw43_btfw_43439_len
                0x00000000        0x4 CMakeFiles/AHT20.dir/C_/VSARM/sdk/pico/pico-sdk/src/rp2_common/pico_cyw43_driver/cybt_shared_bus/cybt_shared_bus.c.obj
 .rodata.cyw43_btfw_43439
                0x00000000     0x1814 CMakeFiles/AHT20.dir/C_/VSARM/sdk/pico/pico-sdk/src/rp2_common/pico_cyw43_driver/cybt_shared_bus/cybt_shared_bus.c.obj
 .debug_info    0x00000000     0x1353 CMakeFiles/AHT20.dir/C_/VSARM/sdk/pico/pico-sdk/src/rp2_common/pico_cyw43_driver/cybt_shared_bus/cybt_shared_bus.c.obj
 .debug_abbrev  0x00000000      0x3f0 CMakeFiles/AHT20.dir/C_/VSARM/sdk/pico/pico-sdk/src/rp2_common/pico_cyw43_driver/cybt_shared_bus/cybt_shared_bus.c.obj
 .debug_loclists
                0x00000000      0x6bc CMakeFiles/AHT20.dir/C_/VSARM/sdk/pico/pico-sdk/src/rp2_common/pico_cyw43_driver/cybt_shared_bus/cybt_shared_bus.c.obj
 .debug_aranges
                0x00000000       0x98 CMakeFiles/AHT20.dir/C_/VSARM/sdk/pico/pico-sdk/src/rp2_common/pico_cyw43_driver/cybt_shared_bus/cybt_shared_bus.c.obj
 .debug_rnglists
                0x00000000       0x8b CMakeFiles/AHT20.dir/C_/VSARM/sdk/pico/pico-sdk/src/rp2_common/pico_cyw43_driver/cybt_shared_bus/cybt_shared_bus.c.obj
 .debug_line    0x00000000      0xa38 CMakeFiles/AHT20.dir/C_/VSARM/sdk/pico/pico-sdk/src/rp2_common/pico_cyw43_driver/cybt_shared_bus/cybt_shared_bus.c.obj
 .debug_str     0x00000000      0xa39 CMakeFiles/AHT20.dir/C_/VSARM/sdk/pico/pico-sdk/src/rp2_common/pico_cyw43_driver/cybt_shared_bus/cybt_shared_bus.c.obj
 .comment       0x00000000       0x46 CMakeFiles/AHT20.dir/C_/VSARM/sdk/pico/pico-sdk/src/rp2_common/pico_cyw43_driver/cybt_shared_bus/cybt_shared_bus.c.obj
 .debug_frame   0x00000000      0x1c8 CMakeFiles/AHT20.dir/C_/VSARM/sdk/pico/pico-sdk/src/rp2_common/pico_cyw43_driver/cybt_shared_bus/cybt_shared_bus.c.obj
 .ARM.attributes
                0x00000000       0x2c CMakeFiles/AHT20.dir/C_/VSARM/sdk/pico/pico-sdk/src/rp2_common/pico_cyw43_driver/cybt_shared_bus/cybt_shared_bus.c.obj
 .text          0x00000000        0x0 CMakeFiles/AHT20.dir/C_/VSARM/sdk/pico/pico-sdk/src/rp2_common/pico_cyw43_driver/cybt_shared_bus/cybt_shared_bus_driver.c.obj
 .data          0x00000000        0x0 CMakeFiles/AHT20.dir/C_/VSARM/sdk/pico/pico-sdk/src/rp2_common/pico_cyw43_driver/cybt_shared_bus/cybt_shared_bus_driver.c.obj
 .bss           0x00000000        0x0 CMakeFiles/AHT20.dir/C_/VSARM/sdk/pico/pico-sdk/src/rp2_common/pico_cyw43_driver/cybt_shared_bus/cybt_shared_bus_driver.c.obj
 .rodata.cybt_get_addr.str1.4
                0x00000000       0x69 CMakeFiles/AHT20.dir/C_/VSARM/sdk/pico/pico-sdk/src/rp2_common/pico_cyw43_driver/cybt_shared_bus/cybt_shared_bus_driver.c.obj
 .text.cybt_get_addr
                0x00000000       0x58 CMakeFiles/AHT20.dir/C_/VSARM/sdk/pico/pico-sdk/src/rp2_common/pico_cyw43_driver/cybt_shared_bus/cybt_shared_bus_driver.c.obj
 .rodata.cybt_get_addr
                0x00000000       0x18 CMakeFiles/AHT20.dir/C_/VSARM/sdk/pico/pico-sdk/src/rp2_common/pico_cyw43_driver/cybt_shared_bus/cybt_shared_bus_driver.c.obj
 .text.cybt_fw_get_data
                0x00000000       0xd6 CMakeFiles/AHT20.dir/C_/VSARM/sdk/pico/pico-sdk/src/rp2_common/pico_cyw43_driver/cybt_shared_bus/cybt_shared_bus_driver.c.obj
 .text.cybt_reg_write
                0x00000000       0x30 CMakeFiles/AHT20.dir/C_/VSARM/sdk/pico/pico-sdk/src/rp2_common/pico_cyw43_driver/cybt_shared_bus/cybt_shared_bus_driver.c.obj
 .rodata.cybt_mem_read.str1.4
                0x00000000        0xe CMakeFiles/AHT20.dir/C_/VSARM/sdk/pico/pico-sdk/src/rp2_common/pico_cyw43_driver/cybt_shared_bus/cybt_shared_bus_driver.c.obj
 .text.cybt_mem_read
                0x00000000       0x60 CMakeFiles/AHT20.dir/C_/VSARM/sdk/pico/pico-sdk/src/rp2_common/pico_cyw43_driver/cybt_shared_bus/cybt_shared_bus_driver.c.obj
 .text.cybt_mem_write
                0x00000000       0x44 CMakeFiles/AHT20.dir/C_/VSARM/sdk/pico/pico-sdk/src/rp2_common/pico_cyw43_driver/cybt_shared_bus/cybt_shared_bus_driver.c.obj
 .text.cybt_reg_read
                0x00000000       0x30 CMakeFiles/AHT20.dir/C_/VSARM/sdk/pico/pico-sdk/src/rp2_common/pico_cyw43_driver/cybt_shared_bus/cybt_shared_bus_driver.c.obj
 .rodata.cybt_fw_download.str1.4
                0x00000000       0x42 CMakeFiles/AHT20.dir/C_/VSARM/sdk/pico/pico-sdk/src/rp2_common/pico_cyw43_driver/cybt_shared_bus/cybt_shared_bus_driver.c.obj
 .text.cybt_fw_download
                0x00000000      0x188 CMakeFiles/AHT20.dir/C_/VSARM/sdk/pico/pico-sdk/src/rp2_common/pico_cyw43_driver/cybt_shared_bus/cybt_shared_bus_driver.c.obj
 .text.cybt_set_host_ready
                0x00000000       0x34 CMakeFiles/AHT20.dir/C_/VSARM/sdk/pico/pico-sdk/src/rp2_common/pico_cyw43_driver/cybt_shared_bus/cybt_shared_bus_driver.c.obj
 .text.cybt_set_bt_intr
                0x00000000       0x3c CMakeFiles/AHT20.dir/C_/VSARM/sdk/pico/pico-sdk/src/rp2_common/pico_cyw43_driver/cybt_shared_bus/cybt_shared_bus_driver.c.obj
 .text.cybt_ready
                0x00000000       0x28 CMakeFiles/AHT20.dir/C_/VSARM/sdk/pico/pico-sdk/src/rp2_common/pico_cyw43_driver/cybt_shared_bus/cybt_shared_bus_driver.c.obj
 .text.cybt_awake
                0x00000000       0x28 CMakeFiles/AHT20.dir/C_/VSARM/sdk/pico/pico-sdk/src/rp2_common/pico_cyw43_driver/cybt_shared_bus/cybt_shared_bus_driver.c.obj
 .text.cybt_set_bt_awake
                0x00000000       0x44 CMakeFiles/AHT20.dir/C_/VSARM/sdk/pico/pico-sdk/src/rp2_common/pico_cyw43_driver/cybt_shared_bus/cybt_shared_bus_driver.c.obj
 .rodata.cybt_debug_dump.str1.4
                0x00000000      0x18c CMakeFiles/AHT20.dir/C_/VSARM/sdk/pico/pico-sdk/src/rp2_common/pico_cyw43_driver/cybt_shared_bus/cybt_shared_bus_driver.c.obj
 .text.cybt_debug_dump
                0x00000000       0xec CMakeFiles/AHT20.dir/C_/VSARM/sdk/pico/pico-sdk/src/rp2_common/pico_cyw43_driver/cybt_shared_bus/cybt_shared_bus_driver.c.obj
 .rodata.cybt_toggle_bt_intr.str1.4
                0x00000000       0x59 CMakeFiles/AHT20.dir/C_/VSARM/sdk/pico/pico-sdk/src/rp2_common/pico_cyw43_driver/cybt_shared_bus/cybt_shared_bus_driver.c.obj
 .text.cybt_toggle_bt_intr
                0x00000000       0x50 CMakeFiles/AHT20.dir/C_/VSARM/sdk/pico/pico-sdk/src/rp2_common/pico_cyw43_driver/cybt_shared_bus/cybt_shared_bus_driver.c.obj
 .rodata.cybt_get_bt_buf_index.str1.4
                0x00000000       0xf1 CMakeFiles/AHT20.dir/C_/VSARM/sdk/pico/pico-sdk/src/rp2_common/pico_cyw43_driver/cybt_shared_bus/cybt_shared_bus_driver.c.obj
 .text.cybt_get_bt_buf_index
                0x00000000       0xdc CMakeFiles/AHT20.dir/C_/VSARM/sdk/pico/pico-sdk/src/rp2_common/pico_cyw43_driver/cybt_shared_bus/cybt_shared_bus_driver.c.obj
 .rodata.cybt_reg_write_idx.str1.4
                0x00000000       0x5e CMakeFiles/AHT20.dir/C_/VSARM/sdk/pico/pico-sdk/src/rp2_common/pico_cyw43_driver/cybt_shared_bus/cybt_shared_bus_driver.c.obj
 .text.cybt_reg_write_idx
                0x00000000       0x6c CMakeFiles/AHT20.dir/C_/VSARM/sdk/pico/pico-sdk/src/rp2_common/pico_cyw43_driver/cybt_shared_bus/cybt_shared_bus_driver.c.obj
 .rodata.cybt_mem_write_idx.str1.4
                0x00000000       0x43 CMakeFiles/AHT20.dir/C_/VSARM/sdk/pico/pico-sdk/src/rp2_common/pico_cyw43_driver/cybt_shared_bus/cybt_shared_bus_driver.c.obj
 .text.cybt_mem_write_idx
                0x00000000       0x60 CMakeFiles/AHT20.dir/C_/VSARM/sdk/pico/pico-sdk/src/rp2_common/pico_cyw43_driver/cybt_shared_bus/cybt_shared_bus_driver.c.obj
 .rodata.cybt_mem_read_idx.str1.4
                0x00000000       0x1c CMakeFiles/AHT20.dir/C_/VSARM/sdk/pico/pico-sdk/src/rp2_common/pico_cyw43_driver/cybt_shared_bus/cybt_shared_bus_driver.c.obj
 .text.cybt_mem_read_idx
                0x00000000       0x54 CMakeFiles/AHT20.dir/C_/VSARM/sdk/pico/pico-sdk/src/rp2_common/pico_cyw43_driver/cybt_shared_bus/cybt_shared_bus_driver.c.obj
 .text.cybt_init_buffer
                0x00000000       0x78 CMakeFiles/AHT20.dir/C_/VSARM/sdk/pico/pico-sdk/src/rp2_common/pico_cyw43_driver/cybt_shared_bus/cybt_shared_bus_driver.c.obj
 .text.cybt_sharedbus_driver_init
                0x00000000        0xc CMakeFiles/AHT20.dir/C_/VSARM/sdk/pico/pico-sdk/src/rp2_common/pico_cyw43_driver/cybt_shared_bus/cybt_shared_bus_driver.c.obj
 .rodata.__func__.0
                0x00000000       0x12 CMakeFiles/AHT20.dir/C_/VSARM/sdk/pico/pico-sdk/src/rp2_common/pico_cyw43_driver/cybt_shared_bus/cybt_shared_bus_driver.c.obj
 .rodata.__func__.1
                0x00000000       0x13 CMakeFiles/AHT20.dir/C_/VSARM/sdk/pico/pico-sdk/src/rp2_common/pico_cyw43_driver/cybt_shared_bus/cybt_shared_bus_driver.c.obj
 .rodata.__func__.2
                0x00000000        0xe CMakeFiles/AHT20.dir/C_/VSARM/sdk/pico/pico-sdk/src/rp2_common/pico_cyw43_driver/cybt_shared_bus/cybt_shared_bus_driver.c.obj
 .rodata.__func__.3
                0x00000000       0x13 CMakeFiles/AHT20.dir/C_/VSARM/sdk/pico/pico-sdk/src/rp2_common/pico_cyw43_driver/cybt_shared_bus/cybt_shared_bus_driver.c.obj
 .rodata.__func__.4
                0x00000000       0x16 CMakeFiles/AHT20.dir/C_/VSARM/sdk/pico/pico-sdk/src/rp2_common/pico_cyw43_driver/cybt_shared_bus/cybt_shared_bus_driver.c.obj
 .rodata.__func__.6
                0x00000000        0xe CMakeFiles/AHT20.dir/C_/VSARM/sdk/pico/pico-sdk/src/rp2_common/pico_cyw43_driver/cybt_shared_bus/cybt_shared_bus_driver.c.obj
 .rodata.__func__.7
                0x00000000       0x11 CMakeFiles/AHT20.dir/C_/VSARM/sdk/pico/pico-sdk/src/rp2_common/pico_cyw43_driver/cybt_shared_bus/cybt_shared_bus_driver.c.obj
 .bss.cyw43_ll  0x00000000        0x4 CMakeFiles/AHT20.dir/C_/VSARM/sdk/pico/pico-sdk/src/rp2_common/pico_cyw43_driver/cybt_shared_bus/cybt_shared_bus_driver.c.obj
 .bss.buf_info  0x00000000       0x18 CMakeFiles/AHT20.dir/C_/VSARM/sdk/pico/pico-sdk/src/rp2_common/pico_cyw43_driver/cybt_shared_bus/cybt_shared_bus_driver.c.obj
 .bss.host_ctrl_cache_reg
                0x00000000        0x4 CMakeFiles/AHT20.dir/C_/VSARM/sdk/pico/pico-sdk/src/rp2_common/pico_cyw43_driver/cybt_shared_bus/cybt_shared_bus_driver.c.obj
 .bss.wlan_ram_base_addr
                0x00000000        0x4 CMakeFiles/AHT20.dir/C_/VSARM/sdk/pico/pico-sdk/src/rp2_common/pico_cyw43_driver/cybt_shared_bus/cybt_shared_bus_driver.c.obj
 .bss.last_bt_ctrl_reg
                0x00000000        0x4 CMakeFiles/AHT20.dir/C_/VSARM/sdk/pico/pico-sdk/src/rp2_common/pico_cyw43_driver/cybt_shared_bus/cybt_shared_bus_driver.c.obj
 .bss.last_host_ctrl_reg
                0x00000000        0x4 CMakeFiles/AHT20.dir/C_/VSARM/sdk/pico/pico-sdk/src/rp2_common/pico_cyw43_driver/cybt_shared_bus/cybt_shared_bus_driver.c.obj
 .bss.last_buf_index
                0x00000000       0x10 CMakeFiles/AHT20.dir/C_/VSARM/sdk/pico/pico-sdk/src/rp2_common/pico_cyw43_driver/cybt_shared_bus/cybt_shared_bus_driver.c.obj
 .debug_info    0x00000000     0x1508 CMakeFiles/AHT20.dir/C_/VSARM/sdk/pico/pico-sdk/src/rp2_common/pico_cyw43_driver/cybt_shared_bus/cybt_shared_bus_driver.c.obj
 .debug_abbrev  0x00000000      0x303 CMakeFiles/AHT20.dir/C_/VSARM/sdk/pico/pico-sdk/src/rp2_common/pico_cyw43_driver/cybt_shared_bus/cybt_shared_bus_driver.c.obj
 .debug_loclists
                0x00000000      0x819 CMakeFiles/AHT20.dir/C_/VSARM/sdk/pico/pico-sdk/src/rp2_common/pico_cyw43_driver/cybt_shared_bus/cybt_shared_bus_driver.c.obj
 .debug_aranges
                0x00000000       0xb8 CMakeFiles/AHT20.dir/C_/VSARM/sdk/pico/pico-sdk/src/rp2_common/pico_cyw43_driver/cybt_shared_bus/cybt_shared_bus_driver.c.obj
 .debug_rnglists
                0x00000000       0xbb CMakeFiles/AHT20.dir/C_/VSARM/sdk/pico/pico-sdk/src/rp2_common/pico_cyw43_driver/cybt_shared_bus/cybt_shared_bus_driver.c.obj
 .debug_line    0x00000000      0xb6e CMakeFiles/AHT20.dir/C_/VSARM/sdk/pico/pico-sdk/src/rp2_common/pico_cyw43_driver/cybt_shared_bus/cybt_shared_bus_driver.c.obj
 .debug_str     0x00000000      0xac1 CMakeFiles/AHT20.dir/C_/VSARM/sdk/pico/pico-sdk/src/rp2_common/pico_cyw43_driver/cybt_shared_bus/cybt_shared_bus_driver.c.obj
 .comment       0x00000000       0x46 CMakeFiles/AHT20.dir/C_/VSARM/sdk/pico/pico-sdk/src/rp2_common/pico_cyw43_driver/cybt_shared_bus/cybt_shared_bus_driver.c.obj
 .debug_frame   0x00000000      0x244 CMakeFiles/AHT20.dir/C_/VSARM/sdk/pico/pico-sdk/src/rp2_common/pico_cyw43_driver/cybt_shared_bus/cybt_shared_bus_driver.c.obj
 .ARM.attributes
                0x00000000       0x2c CMakeFiles/AHT20.dir/C_/VSARM/sdk/pico/pico-sdk/src/rp2_common/pico_cyw43_driver/cybt_shared_bus/cybt_shared_bus_driver.c.obj
 .text          0x00000000        0x0 CMakeFiles/AHT20.dir/C_/VSARM/sdk/pico/pico-sdk/src/rp2_common/hardware_pio/pio.c.obj
 .data          0x00000000        0x0 CMakeFiles/AHT20.dir/C_/VSARM/sdk/pico/pico-sdk/src/rp2_common/hardware_pio/pio.c.obj
 .bss           0x00000000        0x0 CMakeFiles/AHT20.dir/C_/VSARM/sdk/pico/pico-sdk/src/rp2_common/hardware_pio/pio.c.obj
 .text.pio_get_default_sm_config
                0x00000000       0x28 CMakeFiles/AHT20.dir/C_/VSARM/sdk/pico/pico-sdk/src/rp2_common/hardware_pio/pio.c.obj
 .text._pio_can_add_program_at_offset
                0x00000000       0x3c CMakeFiles/AHT20.dir/C_/VSARM/sdk/pico/pico-sdk/src/rp2_common/hardware_pio/pio.c.obj
 .rodata._pio_find_offset_for_program.str1.4
                0x00000000       0x69 CMakeFiles/AHT20.dir/C_/VSARM/sdk/pico/pico-sdk/src/rp2_common/hardware_pio/pio.c.obj
 .text._pio_find_offset_for_program
                0x00000000       0x7c CMakeFiles/AHT20.dir/C_/VSARM/sdk/pico/pico-sdk/src/rp2_common/hardware_pio/pio.c.obj
 .rodata._pio_add_program_at_offset.str1.4
                0x00000000       0x11 CMakeFiles/AHT20.dir/C_/VSARM/sdk/pico/pico-sdk/src/rp2_common/hardware_pio/pio.c.obj
 .text._pio_add_program_at_offset
                0x00000000       0x7c CMakeFiles/AHT20.dir/C_/VSARM/sdk/pico/pico-sdk/src/rp2_common/hardware_pio/pio.c.obj
 .rodata.pio_sm_claim.str1.4
                0x00000000       0x40 CMakeFiles/AHT20.dir/C_/VSARM/sdk/pico/pico-sdk/src/rp2_common/hardware_pio/pio.c.obj
 .text.pio_sm_claim
                0x00000000       0x30 CMakeFiles/AHT20.dir/C_/VSARM/sdk/pico/pico-sdk/src/rp2_common/hardware_pio/pio.c.obj
 .text.pio_claim_sm_mask
                0x00000000       0x22 CMakeFiles/AHT20.dir/C_/VSARM/sdk/pico/pico-sdk/src/rp2_common/hardware_pio/pio.c.obj
 .text.pio_sm_unclaim
                0x00000000       0x20 CMakeFiles/AHT20.dir/C_/VSARM/sdk/pico/pico-sdk/src/rp2_common/hardware_pio/pio.c.obj
 .rodata.pio_claim_unused_sm.str1.4
                0x00000000       0x24 CMakeFiles/AHT20.dir/C_/VSARM/sdk/pico/pico-sdk/src/rp2_common/hardware_pio/pio.c.obj
 .text.pio_claim_unused_sm
                0x00000000       0x3c CMakeFiles/AHT20.dir/C_/VSARM/sdk/pico/pico-sdk/src/rp2_common/hardware_pio/pio.c.obj
 .text.pio_sm_is_claimed
                0x00000000       0x20 CMakeFiles/AHT20.dir/C_/VSARM/sdk/pico/pico-sdk/src/rp2_common/hardware_pio/pio.c.obj
 .text.pio_can_add_program
                0x00000000       0x26 CMakeFiles/AHT20.dir/C_/VSARM/sdk/pico/pico-sdk/src/rp2_common/hardware_pio/pio.c.obj
 .text.pio_can_add_program_at_offset
                0x00000000       0x24 CMakeFiles/AHT20.dir/C_/VSARM/sdk/pico/pico-sdk/src/rp2_common/hardware_pio/pio.c.obj
 .text.pio_add_program
                0x00000000       0x38 CMakeFiles/AHT20.dir/C_/VSARM/sdk/pico/pico-sdk/src/rp2_common/hardware_pio/pio.c.obj
 .text.pio_add_program_at_offset
                0x00000000       0x20 CMakeFiles/AHT20.dir/C_/VSARM/sdk/pico/pico-sdk/src/rp2_common/hardware_pio/pio.c.obj
 .rodata.pio_remove_program.str1.4
                0x00000000       0x4d CMakeFiles/AHT20.dir/C_/VSARM/sdk/pico/pico-sdk/src/rp2_common/hardware_pio/pio.c.obj
 .text.pio_remove_program
                0x00000000       0x58 CMakeFiles/AHT20.dir/C_/VSARM/sdk/pico/pico-sdk/src/rp2_common/hardware_pio/pio.c.obj
 .text.pio_clear_instruction_memory
                0x00000000       0x3c CMakeFiles/AHT20.dir/C_/VSARM/sdk/pico/pico-sdk/src/rp2_common/hardware_pio/pio.c.obj
 .text.pio_sm_set_pins
                0x00000000       0x9e CMakeFiles/AHT20.dir/C_/VSARM/sdk/pico/pico-sdk/src/rp2_common/hardware_pio/pio.c.obj
 .text.pio_sm_set_pins_with_mask
                0x00000000       0x9a CMakeFiles/AHT20.dir/C_/VSARM/sdk/pico/pico-sdk/src/rp2_common/hardware_pio/pio.c.obj
 .text.pio_sm_set_pindirs_with_mask
                0x00000000       0x9c CMakeFiles/AHT20.dir/C_/VSARM/sdk/pico/pico-sdk/src/rp2_common/hardware_pio/pio.c.obj
 .text.pio_sm_set_consecutive_pindirs
                0x00000000       0xa4 CMakeFiles/AHT20.dir/C_/VSARM/sdk/pico/pico-sdk/src/rp2_common/hardware_pio/pio.c.obj
 .text.pio_sm_init
                0x00000000       0xb0 CMakeFiles/AHT20.dir/C_/VSARM/sdk/pico/pico-sdk/src/rp2_common/hardware_pio/pio.c.obj
 .text.pio_sm_drain_tx_fifo
                0x00000000       0x40 CMakeFiles/AHT20.dir/C_/VSARM/sdk/pico/pico-sdk/src/rp2_common/hardware_pio/pio.c.obj
 .rodata.__func__.0
                0x00000000       0x13 CMakeFiles/AHT20.dir/C_/VSARM/sdk/pico/pico-sdk/src/rp2_common/hardware_pio/pio.c.obj
 .rodata.__func__.1
                0x00000000       0x1d CMakeFiles/AHT20.dir/C_/VSARM/sdk/pico/pico-sdk/src/rp2_common/hardware_pio/pio.c.obj
 .bss._used_instruction_space
                0x00000000        0x8 CMakeFiles/AHT20.dir/C_/VSARM/sdk/pico/pico-sdk/src/rp2_common/hardware_pio/pio.c.obj
 .bss.claimed   0x00000000        0x1 CMakeFiles/AHT20.dir/C_/VSARM/sdk/pico/pico-sdk/src/rp2_common/hardware_pio/pio.c.obj
 .debug_info    0x00000000     0x222f CMakeFiles/AHT20.dir/C_/VSARM/sdk/pico/pico-sdk/src/rp2_common/hardware_pio/pio.c.obj
 .debug_abbrev  0x00000000      0x4c3 CMakeFiles/AHT20.dir/C_/VSARM/sdk/pico/pico-sdk/src/rp2_common/hardware_pio/pio.c.obj
 .debug_loclists
                0x00000000     0x11a9 CMakeFiles/AHT20.dir/C_/VSARM/sdk/pico/pico-sdk/src/rp2_common/hardware_pio/pio.c.obj
 .debug_aranges
                0x00000000       0xc0 CMakeFiles/AHT20.dir/C_/VSARM/sdk/pico/pico-sdk/src/rp2_common/hardware_pio/pio.c.obj
 .debug_rnglists
                0x00000000       0xc0 CMakeFiles/AHT20.dir/C_/VSARM/sdk/pico/pico-sdk/src/rp2_common/hardware_pio/pio.c.obj
 .debug_line    0x00000000      0xe5d CMakeFiles/AHT20.dir/C_/VSARM/sdk/pico/pico-sdk/src/rp2_common/hardware_pio/pio.c.obj
 .debug_str     0x00000000      0xa31 CMakeFiles/AHT20.dir/C_/VSARM/sdk/pico/pico-sdk/src/rp2_common/hardware_pio/pio.c.obj
 .comment       0x00000000       0x46 CMakeFiles/AHT20.dir/C_/VSARM/sdk/pico/pico-sdk/src/rp2_common/hardware_pio/pio.c.obj
 .debug_frame   0x00000000      0x278 CMakeFiles/AHT20.dir/C_/VSARM/sdk/pico/pico-sdk/src/rp2_common/hardware_pio/pio.c.obj
 .ARM.attributes
                0x00000000       0x2c CMakeFiles/AHT20.dir/C_/VSARM/sdk/pico/pico-sdk/src/rp2_common/hardware_pio/pio.c.obj
 .text          0x00000000        0x0 CMakeFiles/AHT20.dir/C_/VSARM/sdk/pico/pico-sdk/src/rp2_common/hardware_dma/dma.c.obj
 .data          0x00000000        0x0 CMakeFiles/AHT20.dir/C_/VSARM/sdk/pico/pico-sdk/src/rp2_common/hardware_dma/dma.c.obj
 .bss           0x00000000        0x0 CMakeFiles/AHT20.dir/C_/VSARM/sdk/pico/pico-sdk/src/rp2_common/hardware_dma/dma.c.obj
 .rodata.dma_channel_claim.str1.4
                0x00000000       0x22 CMakeFiles/AHT20.dir/C_/VSARM/sdk/pico/pico-sdk/src/rp2_common/hardware_dma/dma.c.obj
 .text.dma_channel_claim
                0x00000000       0x18 CMakeFiles/AHT20.dir/C_/VSARM/sdk/pico/pico-sdk/src/rp2_common/hardware_dma/dma.c.obj
 .text.dma_claim_mask
                0x00000000       0x1e CMakeFiles/AHT20.dir/C_/VSARM/sdk/pico/pico-sdk/src/rp2_common/hardware_dma/dma.c.obj
 .text.dma_channel_unclaim
                0x00000000       0x14 CMakeFiles/AHT20.dir/C_/VSARM/sdk/pico/pico-sdk/src/rp2_common/hardware_dma/dma.c.obj
 .text.dma_unclaim_mask
                0x00000000       0x1e CMakeFiles/AHT20.dir/C_/VSARM/sdk/pico/pico-sdk/src/rp2_common/hardware_dma/dma.c.obj
 .rodata.dma_claim_unused_channel.str1.4
                0x00000000       0x1e CMakeFiles/AHT20.dir/C_/VSARM/sdk/pico/pico-sdk/src/rp2_common/hardware_dma/dma.c.obj
 .text.dma_claim_unused_channel
                0x00000000       0x24 CMakeFiles/AHT20.dir/C_/VSARM/sdk/pico/pico-sdk/src/rp2_common/hardware_dma/dma.c.obj
 .text.dma_channel_is_claimed
                0x00000000       0x14 CMakeFiles/AHT20.dir/C_/VSARM/sdk/pico/pico-sdk/src/rp2_common/hardware_dma/dma.c.obj
 .rodata.dma_timer_claim.str1.4
                0x00000000       0x20 CMakeFiles/AHT20.dir/C_/VSARM/sdk/pico/pico-sdk/src/rp2_common/hardware_dma/dma.c.obj
 .text.dma_timer_claim
                0x00000000       0x18 CMakeFiles/AHT20.dir/C_/VSARM/sdk/pico/pico-sdk/src/rp2_common/hardware_dma/dma.c.obj
 .text.dma_timer_unclaim
                0x00000000       0x14 CMakeFiles/AHT20.dir/C_/VSARM/sdk/pico/pico-sdk/src/rp2_common/hardware_dma/dma.c.obj
 .rodata.dma_claim_unused_timer.str1.4
                0x00000000       0x1c CMakeFiles/AHT20.dir/C_/VSARM/sdk/pico/pico-sdk/src/rp2_common/hardware_dma/dma.c.obj
 .text.dma_claim_unused_timer
                0x00000000       0x24 CMakeFiles/AHT20.dir/C_/VSARM/sdk/pico/pico-sdk/src/rp2_common/hardware_dma/dma.c.obj
 .text.dma_timer_is_claimed
                0x00000000       0x14 CMakeFiles/AHT20.dir/C_/VSARM/sdk/pico/pico-sdk/src/rp2_common/hardware_dma/dma.c.obj
 .text.dma_channel_cleanup
                0x00000000       0x5c CMakeFiles/AHT20.dir/C_/VSARM/sdk/pico/pico-sdk/src/rp2_common/hardware_dma/dma.c.obj
 .rodata.print_dma_ctrl.str1.4
                0x00000000       0x63 CMakeFiles/AHT20.dir/C_/VSARM/sdk/pico/pico-sdk/src/rp2_common/hardware_dma/dma.c.obj
 .text.print_dma_ctrl
                0x00000000       0xac CMakeFiles/AHT20.dir/C_/VSARM/sdk/pico/pico-sdk/src/rp2_common/hardware_dma/dma.c.obj
 .bss._timer_claimed
                0x00000000        0x1 CMakeFiles/AHT20.dir/C_/VSARM/sdk/pico/pico-sdk/src/rp2_common/hardware_dma/dma.c.obj
 .bss._claimed  0x00000000        0x2 CMakeFiles/AHT20.dir/C_/VSARM/sdk/pico/pico-sdk/src/rp2_common/hardware_dma/dma.c.obj
 .debug_info    0x00000000      0xa25 CMakeFiles/AHT20.dir/C_/VSARM/sdk/pico/pico-sdk/src/rp2_common/hardware_dma/dma.c.obj
 .debug_abbrev  0x00000000      0x265 CMakeFiles/AHT20.dir/C_/VSARM/sdk/pico/pico-sdk/src/rp2_common/hardware_dma/dma.c.obj
 .debug_loclists
                0x00000000      0x25b CMakeFiles/AHT20.dir/C_/VSARM/sdk/pico/pico-sdk/src/rp2_common/hardware_dma/dma.c.obj
 .debug_aranges
                0x00000000       0x78 CMakeFiles/AHT20.dir/C_/VSARM/sdk/pico/pico-sdk/src/rp2_common/hardware_dma/dma.c.obj
 .debug_rnglists
                0x00000000       0x56 CMakeFiles/AHT20.dir/C_/VSARM/sdk/pico/pico-sdk/src/rp2_common/hardware_dma/dma.c.obj
 .debug_line    0x00000000      0x600 CMakeFiles/AHT20.dir/C_/VSARM/sdk/pico/pico-sdk/src/rp2_common/hardware_dma/dma.c.obj
 .debug_str     0x00000000      0x5dc CMakeFiles/AHT20.dir/C_/VSARM/sdk/pico/pico-sdk/src/rp2_common/hardware_dma/dma.c.obj
 .comment       0x00000000       0x46 CMakeFiles/AHT20.dir/C_/VSARM/sdk/pico/pico-sdk/src/rp2_common/hardware_dma/dma.c.obj
 .debug_frame   0x00000000      0x14c CMakeFiles/AHT20.dir/C_/VSARM/sdk/pico/pico-sdk/src/rp2_common/hardware_dma/dma.c.obj
 .ARM.attributes
                0x00000000       0x2c CMakeFiles/AHT20.dir/C_/VSARM/sdk/pico/pico-sdk/src/rp2_common/hardware_dma/dma.c.obj
 .text          0x00000000        0x0 CMakeFiles/AHT20.dir/C_/VSARM/sdk/pico/pico-sdk/src/rp2_common/hardware_exception/exception.c.obj
 .data          0x00000000        0x0 CMakeFiles/AHT20.dir/C_/VSARM/sdk/pico/pico-sdk/src/rp2_common/hardware_exception/exception.c.obj
 .bss           0x00000000        0x0 CMakeFiles/AHT20.dir/C_/VSARM/sdk/pico/pico-sdk/src/rp2_common/hardware_exception/exception.c.obj
 .text.exception_is_compile_time_default
                0x00000000       0x20 CMakeFiles/AHT20.dir/C_/VSARM/sdk/pico/pico-sdk/src/rp2_common/hardware_exception/exception.c.obj
 .text.set_raw_exception_handler_and_restore_interrupts
                0x00000000       0x18 CMakeFiles/AHT20.dir/C_/VSARM/sdk/pico/pico-sdk/src/rp2_common/hardware_exception/exception.c.obj
 .text.exception_get_vtable_handler
                0x00000000       0x10 CMakeFiles/AHT20.dir/C_/VSARM/sdk/pico/pico-sdk/src/rp2_common/hardware_exception/exception.c.obj
 .rodata.exception_set_exclusive_handler.str1.4
                0x00000000       0x8d CMakeFiles/AHT20.dir/C_/VSARM/sdk/pico/pico-sdk/src/rp2_common/hardware_exception/exception.c.obj
 .text.exception_set_exclusive_handler
                0x00000000       0x44 CMakeFiles/AHT20.dir/C_/VSARM/sdk/pico/pico-sdk/src/rp2_common/hardware_exception/exception.c.obj
 .rodata.exception_restore_handler.str1.4
                0x00000000       0x34 CMakeFiles/AHT20.dir/C_/VSARM/sdk/pico/pico-sdk/src/rp2_common/hardware_exception/exception.c.obj
 .text.exception_restore_handler
                0x00000000       0x38 CMakeFiles/AHT20.dir/C_/VSARM/sdk/pico/pico-sdk/src/rp2_common/hardware_exception/exception.c.obj
 .rodata.__func__.0
                0x00000000       0x1a CMakeFiles/AHT20.dir/C_/VSARM/sdk/pico/pico-sdk/src/rp2_common/hardware_exception/exception.c.obj
 .rodata.__func__.1
                0x00000000       0x20 CMakeFiles/AHT20.dir/C_/VSARM/sdk/pico/pico-sdk/src/rp2_common/hardware_exception/exception.c.obj
 .debug_info    0x00000000      0x53c CMakeFiles/AHT20.dir/C_/VSARM/sdk/pico/pico-sdk/src/rp2_common/hardware_exception/exception.c.obj
 .debug_abbrev  0x00000000      0x2bd CMakeFiles/AHT20.dir/C_/VSARM/sdk/pico/pico-sdk/src/rp2_common/hardware_exception/exception.c.obj
 .debug_loclists
                0x00000000      0x14d CMakeFiles/AHT20.dir/C_/VSARM/sdk/pico/pico-sdk/src/rp2_common/hardware_exception/exception.c.obj
 .debug_aranges
                0x00000000       0x40 CMakeFiles/AHT20.dir/C_/VSARM/sdk/pico/pico-sdk/src/rp2_common/hardware_exception/exception.c.obj
 .debug_rnglists
                0x00000000       0x2b CMakeFiles/AHT20.dir/C_/VSARM/sdk/pico/pico-sdk/src/rp2_common/hardware_exception/exception.c.obj
 .debug_line    0x00000000      0x3ea CMakeFiles/AHT20.dir/C_/VSARM/sdk/pico/pico-sdk/src/rp2_common/hardware_exception/exception.c.obj
 .debug_str     0x00000000      0x3df CMakeFiles/AHT20.dir/C_/VSARM/sdk/pico/pico-sdk/src/rp2_common/hardware_exception/exception.c.obj
 .comment       0x00000000       0x46 CMakeFiles/AHT20.dir/C_/VSARM/sdk/pico/pico-sdk/src/rp2_common/hardware_exception/exception.c.obj
 .debug_frame   0x00000000       0x7c CMakeFiles/AHT20.dir/C_/VSARM/sdk/pico/pico-sdk/src/rp2_common/hardware_exception/exception.c.obj
 .ARM.attributes
                0x00000000       0x2c CMakeFiles/AHT20.dir/C_/VSARM/sdk/pico/pico-sdk/src/rp2_common/hardware_exception/exception.c.obj
 .text          0x00000000        0x0 CMakeFiles/AHT20.dir/C_/VSARM/sdk/pico/pico-sdk/src/rp2_common/pico_cyw43_driver/cyw43_driver.c.obj
 .data          0x00000000        0x0 CMakeFiles/AHT20.dir/C_/VSARM/sdk/pico/pico-sdk/src/rp2_common/pico_cyw43_driver/cyw43_driver.c.obj
 .bss           0x00000000        0x0 CMakeFiles/AHT20.dir/C_/VSARM/sdk/pico/pico-sdk/src/rp2_common/pico_cyw43_driver/cyw43_driver.c.obj
 .rodata.cyw43_sleep_timeout_reached.str1.4
                0x00000000       0x8c CMakeFiles/AHT20.dir/C_/VSARM/sdk/pico/pico-sdk/src/rp2_common/pico_cyw43_driver/cyw43_driver.c.obj
 .text.cyw43_sleep_timeout_reached
                0x00000000       0x50 CMakeFiles/AHT20.dir/C_/VSARM/sdk/pico/pico-sdk/src/rp2_common/pico_cyw43_driver/cyw43_driver.c.obj
 .rodata.update_us_since_boot.str1.4
                0x00000000       0x61 CMakeFiles/AHT20.dir/C_/VSARM/sdk/pico/pico-sdk/src/rp2_common/pico_cyw43_driver/cyw43_driver.c.obj
 .text.update_us_since_boot
                0x00000000       0x24 CMakeFiles/AHT20.dir/C_/VSARM/sdk/pico/pico-sdk/src/rp2_common/pico_cyw43_driver/cyw43_driver.c.obj
 .text.delayed_by_ms
                0x00000000       0x44 CMakeFiles/AHT20.dir/C_/VSARM/sdk/pico/pico-sdk/src/rp2_common/pico_cyw43_driver/cyw43_driver.c.obj
 .text.delayed_by_us
                0x00000000       0x34 CMakeFiles/AHT20.dir/C_/VSARM/sdk/pico/pico-sdk/src/rp2_common/pico_cyw43_driver/cyw43_driver.c.obj
 .text.get_absolute_time
                0x00000000       0x22 CMakeFiles/AHT20.dir/C_/VSARM/sdk/pico/pico-sdk/src/rp2_common/pico_cyw43_driver/cyw43_driver.c.obj
 .text.make_timeout_time_ms
                0x00000000       0x20 CMakeFiles/AHT20.dir/C_/VSARM/sdk/pico/pico-sdk/src/rp2_common/pico_cyw43_driver/cyw43_driver.c.obj
 .text.async_context_add_at_time_worker_in_ms
                0x00000000       0x26 CMakeFiles/AHT20.dir/C_/VSARM/sdk/pico/pico-sdk/src/rp2_common/pico_cyw43_driver/cyw43_driver.c.obj
 .rodata.cyw43_do_poll.str1.4
                0x00000000       0x3e CMakeFiles/AHT20.dir/C_/VSARM/sdk/pico/pico-sdk/src/rp2_common/pico_cyw43_driver/cyw43_driver.c.obj
 .text.cyw43_do_poll
                0x00000000       0x74 CMakeFiles/AHT20.dir/C_/VSARM/sdk/pico/pico-sdk/src/rp2_common/pico_cyw43_driver/cyw43_driver.c.obj
 .text.make_timeout_time_us
                0x00000000       0x24 CMakeFiles/AHT20.dir/C_/VSARM/sdk/pico/pico-sdk/src/rp2_common/pico_cyw43_driver/cyw43_driver.c.obj
 .text.cyw43_set_irq_enabled
                0x00000000        0xe CMakeFiles/AHT20.dir/C_/VSARM/sdk/pico/pico-sdk/src/rp2_common/pico_cyw43_driver/cyw43_driver.c.obj
 .text.cyw43_irq_init
                0x00000000       0x50 CMakeFiles/AHT20.dir/C_/VSARM/sdk/pico/pico-sdk/src/rp2_common/pico_cyw43_driver/cyw43_driver.c.obj
 .text.cyw43_gpio_irq_handler
                0x00000000       0x40 CMakeFiles/AHT20.dir/C_/VSARM/sdk/pico/pico-sdk/src/rp2_common/pico_cyw43_driver/cyw43_driver.c.obj
 .text.cyw43_irq_deinit
                0x00000000       0x48 CMakeFiles/AHT20.dir/C_/VSARM/sdk/pico/pico-sdk/src/rp2_common/pico_cyw43_driver/cyw43_driver.c.obj
 .text.cyw43_post_poll_hook
                0x00000000       0x38 CMakeFiles/AHT20.dir/C_/VSARM/sdk/pico/pico-sdk/src/rp2_common/pico_cyw43_driver/cyw43_driver.c.obj
 .rodata.cyw43_schedule_internal_poll_dispatch.str1.4
                0x00000000       0x13 CMakeFiles/AHT20.dir/C_/VSARM/sdk/pico/pico-sdk/src/rp2_common/pico_cyw43_driver/cyw43_driver.c.obj
 .text.cyw43_schedule_internal_poll_dispatch
                0x00000000       0x3c CMakeFiles/AHT20.dir/C_/VSARM/sdk/pico/pico-sdk/src/rp2_common/pico_cyw43_driver/cyw43_driver.c.obj
 .text.cyw43_driver_init
                0x00000000       0x38 CMakeFiles/AHT20.dir/C_/VSARM/sdk/pico/pico-sdk/src/rp2_common/pico_cyw43_driver/cyw43_driver.c.obj
 .text.cyw43_driver_deinit
                0x00000000       0x64 CMakeFiles/AHT20.dir/C_/VSARM/sdk/pico/pico-sdk/src/rp2_common/pico_cyw43_driver/cyw43_driver.c.obj
 .text.storage_read_blocks
                0x00000000        0x6 CMakeFiles/AHT20.dir/C_/VSARM/sdk/pico/pico-sdk/src/rp2_common/pico_cyw43_driver/cyw43_driver.c.obj
 .rodata.cyw43_hal_generate_laa_mac.str1.4
                0x00000000       0x35 CMakeFiles/AHT20.dir/C_/VSARM/sdk/pico/pico-sdk/src/rp2_common/pico_cyw43_driver/cyw43_driver.c.obj
 .text.cyw43_hal_generate_laa_mac
                0x00000000       0x34 CMakeFiles/AHT20.dir/C_/VSARM/sdk/pico/pico-sdk/src/rp2_common/pico_cyw43_driver/cyw43_driver.c.obj
 .text.cyw43_hal_get_mac
                0x00000000       0x14 CMakeFiles/AHT20.dir/C_/VSARM/sdk/pico/pico-sdk/src/rp2_common/pico_cyw43_driver/cyw43_driver.c.obj
 .text.cyw43_thread_enter
                0x00000000       0x14 CMakeFiles/AHT20.dir/C_/VSARM/sdk/pico/pico-sdk/src/rp2_common/pico_cyw43_driver/cyw43_driver.c.obj
 .text.cyw43_thread_exit
                0x00000000       0x14 CMakeFiles/AHT20.dir/C_/VSARM/sdk/pico/pico-sdk/src/rp2_common/pico_cyw43_driver/cyw43_driver.c.obj
 .text.cyw43_thread_lock_check
                0x00000000       0x14 CMakeFiles/AHT20.dir/C_/VSARM/sdk/pico/pico-sdk/src/rp2_common/pico_cyw43_driver/cyw43_driver.c.obj
 .text.cyw43_await_background_or_timeout_us
                0x00000000       0x28 CMakeFiles/AHT20.dir/C_/VSARM/sdk/pico/pico-sdk/src/rp2_common/pico_cyw43_driver/cyw43_driver.c.obj
 .text.cyw43_delay_ms
                0x00000000       0x24 CMakeFiles/AHT20.dir/C_/VSARM/sdk/pico/pico-sdk/src/rp2_common/pico_cyw43_driver/cyw43_driver.c.obj
 .text.cyw43_delay_us
                0x00000000       0x28 CMakeFiles/AHT20.dir/C_/VSARM/sdk/pico/pico-sdk/src/rp2_common/pico_cyw43_driver/cyw43_driver.c.obj
 .rodata.__func__.0
                0x00000000       0x14 CMakeFiles/AHT20.dir/C_/VSARM/sdk/pico/pico-sdk/src/rp2_common/pico_cyw43_driver/cyw43_driver.c.obj
 .rodata.__func__.1
                0x00000000       0x26 CMakeFiles/AHT20.dir/C_/VSARM/sdk/pico/pico-sdk/src/rp2_common/pico_cyw43_driver/cyw43_driver.c.obj
 .rodata.__func__.2
                0x00000000       0x15 CMakeFiles/AHT20.dir/C_/VSARM/sdk/pico/pico-sdk/src/rp2_common/pico_cyw43_driver/cyw43_driver.c.obj
 .rodata.__func__.3
                0x00000000       0x11 CMakeFiles/AHT20.dir/C_/VSARM/sdk/pico/pico-sdk/src/rp2_common/pico_cyw43_driver/cyw43_driver.c.obj
 .rodata.__func__.4
                0x00000000       0x15 CMakeFiles/AHT20.dir/C_/VSARM/sdk/pico/pico-sdk/src/rp2_common/pico_cyw43_driver/cyw43_driver.c.obj
 .rodata.__func__.5
                0x00000000       0x1c CMakeFiles/AHT20.dir/C_/VSARM/sdk/pico/pico-sdk/src/rp2_common/pico_cyw43_driver/cyw43_driver.c.obj
 .rodata.__func__.6
                0x00000000        0xe CMakeFiles/AHT20.dir/C_/VSARM/sdk/pico/pico-sdk/src/rp2_common/pico_cyw43_driver/cyw43_driver.c.obj
 .rodata.__func__.7
                0x00000000        0xf CMakeFiles/AHT20.dir/C_/VSARM/sdk/pico/pico-sdk/src/rp2_common/pico_cyw43_driver/cyw43_driver.c.obj
 .data.cyw43_poll_worker
                0x00000000       0x10 CMakeFiles/AHT20.dir/C_/VSARM/sdk/pico/pico-sdk/src/rp2_common/pico_cyw43_driver/cyw43_driver.c.obj
 .data.sleep_timeout_worker
                0x00000000       0x18 CMakeFiles/AHT20.dir/C_/VSARM/sdk/pico/pico-sdk/src/rp2_common/pico_cyw43_driver/cyw43_driver.c.obj
 .bss.cyw43_async_context
                0x00000000        0x4 CMakeFiles/AHT20.dir/C_/VSARM/sdk/pico/pico-sdk/src/rp2_common/pico_cyw43_driver/cyw43_driver.c.obj
 .debug_info    0x00000000     0x200d CMakeFiles/AHT20.dir/C_/VSARM/sdk/pico/pico-sdk/src/rp2_common/pico_cyw43_driver/cyw43_driver.c.obj
 .debug_abbrev  0x00000000      0x548 CMakeFiles/AHT20.dir/C_/VSARM/sdk/pico/pico-sdk/src/rp2_common/pico_cyw43_driver/cyw43_driver.c.obj
 .debug_loclists
                0x00000000      0x5ec CMakeFiles/AHT20.dir/C_/VSARM/sdk/pico/pico-sdk/src/rp2_common/pico_cyw43_driver/cyw43_driver.c.obj
 .debug_aranges
                0x00000000       0xe8 CMakeFiles/AHT20.dir/C_/VSARM/sdk/pico/pico-sdk/src/rp2_common/pico_cyw43_driver/cyw43_driver.c.obj
 .debug_rnglists
                0x00000000       0xb5 CMakeFiles/AHT20.dir/C_/VSARM/sdk/pico/pico-sdk/src/rp2_common/pico_cyw43_driver/cyw43_driver.c.obj
 .debug_line    0x00000000      0xcd7 CMakeFiles/AHT20.dir/C_/VSARM/sdk/pico/pico-sdk/src/rp2_common/pico_cyw43_driver/cyw43_driver.c.obj
 .debug_str     0x00000000      0xfe9 CMakeFiles/AHT20.dir/C_/VSARM/sdk/pico/pico-sdk/src/rp2_common/pico_cyw43_driver/cyw43_driver.c.obj
 .comment       0x00000000       0x46 CMakeFiles/AHT20.dir/C_/VSARM/sdk/pico/pico-sdk/src/rp2_common/pico_cyw43_driver/cyw43_driver.c.obj
 .debug_frame   0x00000000      0x2b0 CMakeFiles/AHT20.dir/C_/VSARM/sdk/pico/pico-sdk/src/rp2_common/pico_cyw43_driver/cyw43_driver.c.obj
 .ARM.attributes
                0x00000000       0x2c CMakeFiles/AHT20.dir/C_/VSARM/sdk/pico/pico-sdk/src/rp2_common/pico_cyw43_driver/cyw43_driver.c.obj
 .text          0x00000000        0x0 CMakeFiles/AHT20.dir/C_/VSARM/sdk/pico/pico-sdk/src/rp2_common/pico_async_context/async_context_threadsafe_background.c.obj
 .data          0x00000000        0x0 CMakeFiles/AHT20.dir/C_/VSARM/sdk/pico/pico-sdk/src/rp2_common/pico_async_context/async_context_threadsafe_background.c.obj
 .bss           0x00000000        0x0 CMakeFiles/AHT20.dir/C_/VSARM/sdk/pico/pico-sdk/src/rp2_common/pico_async_context/async_context_threadsafe_background.c.obj
 .text.is_at_the_end_of_time
                0x00000000       0x1c CMakeFiles/AHT20.dir/C_/VSARM/sdk/pico/pico-sdk/src/rp2_common/pico_async_context/async_context_threadsafe_background.c.obj
 .text.async_context_threadsafe_background_acquire_lock_blocking
                0x00000000        0xa CMakeFiles/AHT20.dir/C_/VSARM/sdk/pico/pico-sdk/src/rp2_common/pico_async_context/async_context_threadsafe_background.c.obj
 .rodata.update_us_since_boot.str1.4
                0x00000000       0x61 CMakeFiles/AHT20.dir/C_/VSARM/sdk/pico/pico-sdk/src/rp2_common/pico_async_context/async_context_threadsafe_background.c.obj
 .text.update_us_since_boot
                0x00000000       0x24 CMakeFiles/AHT20.dir/C_/VSARM/sdk/pico/pico-sdk/src/rp2_common/pico_async_context/async_context_threadsafe_background.c.obj
 .text.async_context_threadsafe_background_wake_up
                0x00000000       0x16 CMakeFiles/AHT20.dir/C_/VSARM/sdk/pico/pico-sdk/src/rp2_common/pico_async_context/async_context_threadsafe_background.c.obj
 .text.alarm_handler
                0x00000000       0x14 CMakeFiles/AHT20.dir/C_/VSARM/sdk/pico/pico-sdk/src/rp2_common/pico_async_context/async_context_threadsafe_background.c.obj
 .text.async_context_threadsafe_background_set_work_pending
                0x00000000        0xc CMakeFiles/AHT20.dir/C_/VSARM/sdk/pico/pico-sdk/src/rp2_common/pico_async_context/async_context_threadsafe_background.c.obj
 .rodata.async_context_threadsafe_background_lock_check.str1.4
                0x00000000        0x1 CMakeFiles/AHT20.dir/C_/VSARM/sdk/pico/pico-sdk/src/rp2_common/pico_async_context/async_context_threadsafe_background.c.obj
 .text.async_context_threadsafe_background_lock_check
                0x00000000       0x2c CMakeFiles/AHT20.dir/C_/VSARM/sdk/pico/pico-sdk/src/rp2_common/pico_async_context/async_context_threadsafe_background.c.obj
 .text.get_absolute_time
                0x00000000       0x22 CMakeFiles/AHT20.dir/C_/VSARM/sdk/pico/pico-sdk/src/rp2_common/pico_async_context/async_context_threadsafe_background.c.obj
 .rodata.process_under_lock.str1.4
                0x00000000       0x8b CMakeFiles/AHT20.dir/C_/VSARM/sdk/pico/pico-sdk/src/rp2_common/pico_async_context/async_context_threadsafe_background.c.obj
 .text.process_under_lock
                0x00000000       0xe0 CMakeFiles/AHT20.dir/C_/VSARM/sdk/pico/pico-sdk/src/rp2_common/pico_async_context/async_context_threadsafe_background.c.obj
 .text.lock_release
                0x00000000       0x1e CMakeFiles/AHT20.dir/C_/VSARM/sdk/pico/pico-sdk/src/rp2_common/pico_async_context/async_context_threadsafe_background.c.obj
 .text.async_context_threadsafe_background_execute_sync
                0x00000000       0x1e CMakeFiles/AHT20.dir/C_/VSARM/sdk/pico/pico-sdk/src/rp2_common/pico_async_context/async_context_threadsafe_background.c.obj
 .text.async_context_threadsafe_background_release_lock
                0x00000000        0x8 CMakeFiles/AHT20.dir/C_/VSARM/sdk/pico/pico-sdk/src/rp2_common/pico_async_context/async_context_threadsafe_background.c.obj
 .rodata.low_prio_irq_deinit.str1.4
                0x00000000       0x26 CMakeFiles/AHT20.dir/C_/VSARM/sdk/pico/pico-sdk/src/rp2_common/pico_async_context/async_context_threadsafe_background.c.obj
 .text.low_prio_irq_deinit
                0x00000000       0x50 CMakeFiles/AHT20.dir/C_/VSARM/sdk/pico/pico-sdk/src/rp2_common/pico_async_context/async_context_threadsafe_background.c.obj
 .rodata.async_context_threadsafe_background_deinit.str1.4
                0x00000000       0x26 CMakeFiles/AHT20.dir/C_/VSARM/sdk/pico/pico-sdk/src/rp2_common/pico_async_context/async_context_threadsafe_background.c.obj
 .text.async_context_threadsafe_background_deinit
                0x00000000       0x58 CMakeFiles/AHT20.dir/C_/VSARM/sdk/pico/pico-sdk/src/rp2_common/pico_async_context/async_context_threadsafe_background.c.obj
 .rodata.low_priority_irq_handler.str1.4
                0x00000000       0x2d CMakeFiles/AHT20.dir/C_/VSARM/sdk/pico/pico-sdk/src/rp2_common/pico_async_context/async_context_threadsafe_background.c.obj
 .text.low_priority_irq_handler
                0x00000000       0x78 CMakeFiles/AHT20.dir/C_/VSARM/sdk/pico/pico-sdk/src/rp2_common/pico_async_context/async_context_threadsafe_background.c.obj
 .text.async_context_threadsafe_background_wait_for_work_until
                0x00000000        0xa CMakeFiles/AHT20.dir/C_/VSARM/sdk/pico/pico-sdk/src/rp2_common/pico_async_context/async_context_threadsafe_background.c.obj
 .text.async_context_threadsafe_background_wait_until
                0x00000000       0x1a CMakeFiles/AHT20.dir/C_/VSARM/sdk/pico/pico-sdk/src/rp2_common/pico_async_context/async_context_threadsafe_background.c.obj
 .text.async_context_threadsafe_background_when_pending_worker
                0x00000000       0x20 CMakeFiles/AHT20.dir/C_/VSARM/sdk/pico/pico-sdk/src/rp2_common/pico_async_context/async_context_threadsafe_background.c.obj
 .text.async_context_threadsafe_background_add_when_pending_worker
                0x00000000       0x20 CMakeFiles/AHT20.dir/C_/VSARM/sdk/pico/pico-sdk/src/rp2_common/pico_async_context/async_context_threadsafe_background.c.obj
 .text.async_context_threadsafe_background_remove_at_time_worker
                0x00000000       0x20 CMakeFiles/AHT20.dir/C_/VSARM/sdk/pico/pico-sdk/src/rp2_common/pico_async_context/async_context_threadsafe_background.c.obj
 .text.async_context_threadsafe_background_add_at_time_worker
                0x00000000       0x20 CMakeFiles/AHT20.dir/C_/VSARM/sdk/pico/pico-sdk/src/rp2_common/pico_async_context/async_context_threadsafe_background.c.obj
 .text.low_prio_irq_init
                0x00000000       0x84 CMakeFiles/AHT20.dir/C_/VSARM/sdk/pico/pico-sdk/src/rp2_common/pico_async_context/async_context_threadsafe_background.c.obj
 .text.async_context_threadsafe_background_default_config
                0x00000000        0xa CMakeFiles/AHT20.dir/C_/VSARM/sdk/pico/pico-sdk/src/rp2_common/pico_async_context/async_context_threadsafe_background.c.obj
 .rodata.async_context_threadsafe_background_init.str1.4
                0x00000000       0x3d CMakeFiles/AHT20.dir/C_/VSARM/sdk/pico/pico-sdk/src/rp2_common/pico_async_context/async_context_threadsafe_background.c.obj
 .text.async_context_threadsafe_background_init
                0x00000000       0x74 CMakeFiles/AHT20.dir/C_/VSARM/sdk/pico/pico-sdk/src/rp2_common/pico_async_context/async_context_threadsafe_background.c.obj
 .rodata.__func__.0
                0x00000000       0x12 CMakeFiles/AHT20.dir/C_/VSARM/sdk/pico/pico-sdk/src/rp2_common/pico_async_context/async_context_threadsafe_background.c.obj
 .rodata.__func__.1
                0x00000000       0x19 CMakeFiles/AHT20.dir/C_/VSARM/sdk/pico/pico-sdk/src/rp2_common/pico_async_context/async_context_threadsafe_background.c.obj
 .rodata.__func__.2
                0x00000000       0x14 CMakeFiles/AHT20.dir/C_/VSARM/sdk/pico/pico-sdk/src/rp2_common/pico_async_context/async_context_threadsafe_background.c.obj
 .rodata.__func__.3
                0x00000000       0x2b CMakeFiles/AHT20.dir/C_/VSARM/sdk/pico/pico-sdk/src/rp2_common/pico_async_context/async_context_threadsafe_background.c.obj
 .rodata.__func__.4
                0x00000000       0x29 CMakeFiles/AHT20.dir/C_/VSARM/sdk/pico/pico-sdk/src/rp2_common/pico_async_context/async_context_threadsafe_background.c.obj
 .rodata.__func__.5
                0x00000000       0x15 CMakeFiles/AHT20.dir/C_/VSARM/sdk/pico/pico-sdk/src/rp2_common/pico_async_context/async_context_threadsafe_background.c.obj
 .rodata.__func__.6
                0x00000000       0x13 CMakeFiles/AHT20.dir/C_/VSARM/sdk/pico/pico-sdk/src/rp2_common/pico_async_context/async_context_threadsafe_background.c.obj
 .bss.async_contexts_by_user_irq
                0x00000000       0x18 CMakeFiles/AHT20.dir/C_/VSARM/sdk/pico/pico-sdk/src/rp2_common/pico_async_context/async_context_threadsafe_background.c.obj
 .rodata.template
                0x00000000       0x38 CMakeFiles/AHT20.dir/C_/VSARM/sdk/pico/pico-sdk/src/rp2_common/pico_async_context/async_context_threadsafe_background.c.obj
 .debug_info    0x00000000     0x1aac CMakeFiles/AHT20.dir/C_/VSARM/sdk/pico/pico-sdk/src/rp2_common/pico_async_context/async_context_threadsafe_background.c.obj
 .debug_abbrev  0x00000000      0x4cf CMakeFiles/AHT20.dir/C_/VSARM/sdk/pico/pico-sdk/src/rp2_common/pico_async_context/async_context_threadsafe_background.c.obj
 .debug_loclists
                0x00000000      0x776 CMakeFiles/AHT20.dir/C_/VSARM/sdk/pico/pico-sdk/src/rp2_common/pico_async_context/async_context_threadsafe_background.c.obj
 .debug_aranges
                0x00000000       0xd8 CMakeFiles/AHT20.dir/C_/VSARM/sdk/pico/pico-sdk/src/rp2_common/pico_async_context/async_context_threadsafe_background.c.obj
 .debug_rnglists
                0x00000000       0xaf CMakeFiles/AHT20.dir/C_/VSARM/sdk/pico/pico-sdk/src/rp2_common/pico_async_context/async_context_threadsafe_background.c.obj
 .debug_line    0x00000000      0xc2b CMakeFiles/AHT20.dir/C_/VSARM/sdk/pico/pico-sdk/src/rp2_common/pico_async_context/async_context_threadsafe_background.c.obj
 .debug_str     0x00000000      0xe00 CMakeFiles/AHT20.dir/C_/VSARM/sdk/pico/pico-sdk/src/rp2_common/pico_async_context/async_context_threadsafe_background.c.obj
 .comment       0x00000000       0x46 CMakeFiles/AHT20.dir/C_/VSARM/sdk/pico/pico-sdk/src/rp2_common/pico_async_context/async_context_threadsafe_background.c.obj
 .debug_frame   0x00000000      0x274 CMakeFiles/AHT20.dir/C_/VSARM/sdk/pico/pico-sdk/src/rp2_common/pico_async_context/async_context_threadsafe_background.c.obj
 .ARM.attributes
                0x00000000       0x2c CMakeFiles/AHT20.dir/C_/VSARM/sdk/pico/pico-sdk/src/rp2_common/pico_async_context/async_context_threadsafe_background.c.obj
 .text          0x00000000        0x0 C:\Users\phuon\AppData\Local\Temp\ccGjedSI.o
 .data          0x00000000        0x0 C:\Users\phuon\AppData\Local\Temp\ccGjedSI.o
 .bss           0x00000000        0x0 C:\Users\phuon\AppData\Local\Temp\ccGjedSI.o
 .data          0x00000000        0x0 c:/vsarm/armcc/125863~1.3re/bin/../lib/gcc/arm-none-eabi/12.3.1/thumb/v6-m/nofp\libgcc.a(_dvmd_tls.o)
 .bss           0x00000000        0x0 c:/vsarm/armcc/125863~1.3re/bin/../lib/gcc/arm-none-eabi/12.3.1/thumb/v6-m/nofp\libgcc.a(_dvmd_tls.o)
 .text          0x00000000        0x0 c:/vsarm/armcc/125863~1.3re/bin/../lib/gcc/arm-none-eabi/12.3.1/thumb/v6-m/nofp\libg.a(libc_a-atoi.o)
 .data          0x00000000        0x0 c:/vsarm/armcc/125863~1.3re/bin/../lib/gcc/arm-none-eabi/12.3.1/thumb/v6-m/nofp\libg.a(libc_a-atoi.o)
 .bss           0x00000000        0x0 c:/vsarm/armcc/125863~1.3re/bin/../lib/gcc/arm-none-eabi/12.3.1/thumb/v6-m/nofp\libg.a(libc_a-atoi.o)
 .text.atoi     0x00000000        0xc c:/vsarm/armcc/125863~1.3re/bin/../lib/gcc/arm-none-eabi/12.3.1/thumb/v6-m/nofp\libg.a(libc_a-atoi.o)
 .text._atoi_r  0x00000000        0xc c:/vsarm/armcc/125863~1.3re/bin/../lib/gcc/arm-none-eabi/12.3.1/thumb/v6-m/nofp\libg.a(libc_a-atoi.o)
 .debug_frame   0x00000000       0x40 c:/vsarm/armcc/125863~1.3re/bin/../lib/gcc/arm-none-eabi/12.3.1/thumb/v6-m/nofp\libg.a(libc_a-atoi.o)
 .ARM.attributes
                0x00000000       0x2c c:/vsarm/armcc/125863~1.3re/bin/../lib/gcc/arm-none-eabi/12.3.1/thumb/v6-m/nofp\libg.a(libc_a-atoi.o)
 .text          0x00000000        0x0 c:/vsarm/armcc/125863~1.3re/bin/../lib/gcc/arm-none-eabi/12.3.1/thumb/v6-m/nofp\libg.a(libc_a-calloc.o)
 .data          0x00000000        0x0 c:/vsarm/armcc/125863~1.3re/bin/../lib/gcc/arm-none-eabi/12.3.1/thumb/v6-m/nofp\libg.a(libc_a-calloc.o)
 .bss           0x00000000        0x0 c:/vsarm/armcc/125863~1.3re/bin/../lib/gcc/arm-none-eabi/12.3.1/thumb/v6-m/nofp\libg.a(libc_a-calloc.o)
 .text.calloc   0x00000000       0x18 c:/vsarm/armcc/125863~1.3re/bin/../lib/gcc/arm-none-eabi/12.3.1/thumb/v6-m/nofp\libg.a(libc_a-calloc.o)
 .debug_frame   0x00000000       0x28 c:/vsarm/armcc/125863~1.3re/bin/../lib/gcc/arm-none-eabi/12.3.1/thumb/v6-m/nofp\libg.a(libc_a-calloc.o)
 .ARM.attributes
                0x00000000       0x2c c:/vsarm/armcc/125863~1.3re/bin/../lib/gcc/arm-none-eabi/12.3.1/thumb/v6-m/nofp\libg.a(libc_a-calloc.o)
 .text          0x00000000        0x0 c:/vsarm/armcc/125863~1.3re/bin/../lib/gcc/arm-none-eabi/12.3.1/thumb/v6-m/nofp\libg.a(libc_a-callocr.o)
 .data          0x00000000        0x0 c:/vsarm/armcc/125863~1.3re/bin/../lib/gcc/arm-none-eabi/12.3.1/thumb/v6-m/nofp\libg.a(libc_a-callocr.o)
 .bss           0x00000000        0x0 c:/vsarm/armcc/125863~1.3re/bin/../lib/gcc/arm-none-eabi/12.3.1/thumb/v6-m/nofp\libg.a(libc_a-callocr.o)
 .text._calloc_r
                0x00000000       0xa8 c:/vsarm/armcc/125863~1.3re/bin/../lib/gcc/arm-none-eabi/12.3.1/thumb/v6-m/nofp\libg.a(libc_a-callocr.o)
 .debug_frame   0x00000000       0x2c c:/vsarm/armcc/125863~1.3re/bin/../lib/gcc/arm-none-eabi/12.3.1/thumb/v6-m/nofp\libg.a(libc_a-callocr.o)
 .ARM.attributes
                0x00000000       0x2c c:/vsarm/armcc/125863~1.3re/bin/../lib/gcc/arm-none-eabi/12.3.1/thumb/v6-m/nofp\libg.a(libc_a-callocr.o)
 .text          0x00000000        0x0 c:/vsarm/armcc/125863~1.3re/bin/../lib/gcc/arm-none-eabi/12.3.1/thumb/v6-m/nofp\libg.a(libc_a-malloc.o)
 .data          0x00000000        0x0 c:/vsarm/armcc/125863~1.3re/bin/../lib/gcc/arm-none-eabi/12.3.1/thumb/v6-m/nofp\libg.a(libc_a-malloc.o)
 .bss           0x00000000        0x0 c:/vsarm/armcc/125863~1.3re/bin/../lib/gcc/arm-none-eabi/12.3.1/thumb/v6-m/nofp\libg.a(libc_a-malloc.o)
 .text.malloc   0x00000000       0x14 c:/vsarm/armcc/125863~1.3re/bin/../lib/gcc/arm-none-eabi/12.3.1/thumb/v6-m/nofp\libg.a(libc_a-malloc.o)
 .text.free     0x00000000       0x14 c:/vsarm/armcc/125863~1.3re/bin/../lib/gcc/arm-none-eabi/12.3.1/thumb/v6-m/nofp\libg.a(libc_a-malloc.o)
 .debug_frame   0x00000000       0x40 c:/vsarm/armcc/125863~1.3re/bin/../lib/gcc/arm-none-eabi/12.3.1/thumb/v6-m/nofp\libg.a(libc_a-malloc.o)
 .ARM.attributes
                0x00000000       0x2c c:/vsarm/armcc/125863~1.3re/bin/../lib/gcc/arm-none-eabi/12.3.1/thumb/v6-m/nofp\libg.a(libc_a-malloc.o)
 .text          0x00000000        0x0 c:/vsarm/armcc/125863~1.3re/bin/../lib/gcc/arm-none-eabi/12.3.1/thumb/v6-m/nofp\libg.a(libc_a-mallocr.o)
 .data          0x00000000        0x0 c:/vsarm/armcc/125863~1.3re/bin/../lib/gcc/arm-none-eabi/12.3.1/thumb/v6-m/nofp\libg.a(libc_a-mallocr.o)
 .bss           0x00000000        0x0 c:/vsarm/armcc/125863~1.3re/bin/../lib/gcc/arm-none-eabi/12.3.1/thumb/v6-m/nofp\libg.a(libc_a-mallocr.o)
 .text._malloc_r
                0x00000000      0x5c4 c:/vsarm/armcc/125863~1.3re/bin/../lib/gcc/arm-none-eabi/12.3.1/thumb/v6-m/nofp\libg.a(libc_a-mallocr.o)
 .bss.__malloc_current_mallinfo
                0x00000000       0x28 c:/vsarm/armcc/125863~1.3re/bin/../lib/gcc/arm-none-eabi/12.3.1/thumb/v6-m/nofp\libg.a(libc_a-mallocr.o)
 .bss.__malloc_max_total_mem
                0x00000000        0x4 c:/vsarm/armcc/125863~1.3re/bin/../lib/gcc/arm-none-eabi/12.3.1/thumb/v6-m/nofp\libg.a(libc_a-mallocr.o)
 .bss.__malloc_max_sbrked_mem
                0x00000000        0x4 c:/vsarm/armcc/125863~1.3re/bin/../lib/gcc/arm-none-eabi/12.3.1/thumb/v6-m/nofp\libg.a(libc_a-mallocr.o)
 .data.__malloc_sbrk_base
                0x00000000        0x4 c:/vsarm/armcc/125863~1.3re/bin/../lib/gcc/arm-none-eabi/12.3.1/thumb/v6-m/nofp\libg.a(libc_a-mallocr.o)
 .bss.__malloc_top_pad
                0x00000000        0x4 c:/vsarm/armcc/125863~1.3re/bin/../lib/gcc/arm-none-eabi/12.3.1/thumb/v6-m/nofp\libg.a(libc_a-mallocr.o)
 .data.__malloc_trim_threshold
                0x00000000        0x4 c:/vsarm/armcc/125863~1.3re/bin/../lib/gcc/arm-none-eabi/12.3.1/thumb/v6-m/nofp\libg.a(libc_a-mallocr.o)
 .data.__malloc_av_
                0x00000000      0x408 c:/vsarm/armcc/125863~1.3re/bin/../lib/gcc/arm-none-eabi/12.3.1/thumb/v6-m/nofp\libg.a(libc_a-mallocr.o)
 .debug_frame   0x00000000       0x3c c:/vsarm/armcc/125863~1.3re/bin/../lib/gcc/arm-none-eabi/12.3.1/thumb/v6-m/nofp\libg.a(libc_a-mallocr.o)
 .ARM.attributes
                0x00000000       0x2c c:/vsarm/armcc/125863~1.3re/bin/../lib/gcc/arm-none-eabi/12.3.1/thumb/v6-m/nofp\libg.a(libc_a-mallocr.o)
 .text          0x00000000        0x0 c:/vsarm/armcc/125863~1.3re/bin/../lib/gcc/arm-none-eabi/12.3.1/thumb/v6-m/nofp\libg.a(libc_a-mlock.o)
 .data          0x00000000        0x0 c:/vsarm/armcc/125863~1.3re/bin/../lib/gcc/arm-none-eabi/12.3.1/thumb/v6-m/nofp\libg.a(libc_a-mlock.o)
 .bss           0x00000000        0x0 c:/vsarm/armcc/125863~1.3re/bin/../lib/gcc/arm-none-eabi/12.3.1/thumb/v6-m/nofp\libg.a(libc_a-mlock.o)
 .text.__malloc_lock
                0x00000000       0x10 c:/vsarm/armcc/125863~1.3re/bin/../lib/gcc/arm-none-eabi/12.3.1/thumb/v6-m/nofp\libg.a(libc_a-mlock.o)
 .text.__malloc_unlock
                0x00000000       0x10 c:/vsarm/armcc/125863~1.3re/bin/../lib/gcc/arm-none-eabi/12.3.1/thumb/v6-m/nofp\libg.a(libc_a-mlock.o)
 .debug_frame   0x00000000       0x40 c:/vsarm/armcc/125863~1.3re/bin/../lib/gcc/arm-none-eabi/12.3.1/thumb/v6-m/nofp\libg.a(libc_a-mlock.o)
 .ARM.attributes
                0x00000000       0x2c c:/vsarm/armcc/125863~1.3re/bin/../lib/gcc/arm-none-eabi/12.3.1/thumb/v6-m/nofp\libg.a(libc_a-mlock.o)
 .text          0x00000000        0x0 c:/vsarm/armcc/125863~1.3re/bin/../lib/gcc/arm-none-eabi/12.3.1/thumb/v6-m/nofp\libg.a(libc_a-realloc.o)
 .data          0x00000000        0x0 c:/vsarm/armcc/125863~1.3re/bin/../lib/gcc/arm-none-eabi/12.3.1/thumb/v6-m/nofp\libg.a(libc_a-realloc.o)
 .bss           0x00000000        0x0 c:/vsarm/armcc/125863~1.3re/bin/../lib/gcc/arm-none-eabi/12.3.1/thumb/v6-m/nofp\libg.a(libc_a-realloc.o)
 .text.realloc  0x00000000       0x18 c:/vsarm/armcc/125863~1.3re/bin/../lib/gcc/arm-none-eabi/12.3.1/thumb/v6-m/nofp\libg.a(libc_a-realloc.o)
 .debug_frame   0x00000000       0x28 c:/vsarm/armcc/125863~1.3re/bin/../lib/gcc/arm-none-eabi/12.3.1/thumb/v6-m/nofp\libg.a(libc_a-realloc.o)
 .ARM.attributes
                0x00000000       0x2c c:/vsarm/armcc/125863~1.3re/bin/../lib/gcc/arm-none-eabi/12.3.1/thumb/v6-m/nofp\libg.a(libc_a-realloc.o)
 .text          0x00000000        0x0 c:/vsarm/armcc/125863~1.3re/bin/../lib/gcc/arm-none-eabi/12.3.1/thumb/v6-m/nofp\libg.a(libc_a-reallocr.o)
 .data          0x00000000        0x0 c:/vsarm/armcc/125863~1.3re/bin/../lib/gcc/arm-none-eabi/12.3.1/thumb/v6-m/nofp\libg.a(libc_a-reallocr.o)
 .bss           0x00000000        0x0 c:/vsarm/armcc/125863~1.3re/bin/../lib/gcc/arm-none-eabi/12.3.1/thumb/v6-m/nofp\libg.a(libc_a-reallocr.o)
 .text._realloc_r
                0x00000000      0x350 c:/vsarm/armcc/125863~1.3re/bin/../lib/gcc/arm-none-eabi/12.3.1/thumb/v6-m/nofp\libg.a(libc_a-reallocr.o)
 .debug_frame   0x00000000       0x3c c:/vsarm/armcc/125863~1.3re/bin/../lib/gcc/arm-none-eabi/12.3.1/thumb/v6-m/nofp\libg.a(libc_a-reallocr.o)
 .ARM.attributes
                0x00000000       0x2c c:/vsarm/armcc/125863~1.3re/bin/../lib/gcc/arm-none-eabi/12.3.1/thumb/v6-m/nofp\libg.a(libc_a-reallocr.o)
 .text          0x00000000        0x0 c:/vsarm/armcc/125863~1.3re/bin/../lib/gcc/arm-none-eabi/12.3.1/thumb/v6-m/nofp\libg.a(libc_a-strtol.o)
 .data          0x00000000        0x0 c:/vsarm/armcc/125863~1.3re/bin/../lib/gcc/arm-none-eabi/12.3.1/thumb/v6-m/nofp\libg.a(libc_a-strtol.o)
 .bss           0x00000000        0x0 c:/vsarm/armcc/125863~1.3re/bin/../lib/gcc/arm-none-eabi/12.3.1/thumb/v6-m/nofp\libg.a(libc_a-strtol.o)
 .text._strtol_l.constprop.0
                0x00000000      0x158 c:/vsarm/armcc/125863~1.3re/bin/../lib/gcc/arm-none-eabi/12.3.1/thumb/v6-m/nofp\libg.a(libc_a-strtol.o)
 .text._strtol_r
                0x00000000        0x8 c:/vsarm/armcc/125863~1.3re/bin/../lib/gcc/arm-none-eabi/12.3.1/thumb/v6-m/nofp\libg.a(libc_a-strtol.o)
 .text.strtol_l
                0x00000000       0x18 c:/vsarm/armcc/125863~1.3re/bin/../lib/gcc/arm-none-eabi/12.3.1/thumb/v6-m/nofp\libg.a(libc_a-strtol.o)
 .text.strtol   0x00000000       0x18 c:/vsarm/armcc/125863~1.3re/bin/../lib/gcc/arm-none-eabi/12.3.1/thumb/v6-m/nofp\libg.a(libc_a-strtol.o)
 .debug_frame   0x00000000       0x84 c:/vsarm/armcc/125863~1.3re/bin/../lib/gcc/arm-none-eabi/12.3.1/thumb/v6-m/nofp\libg.a(libc_a-strtol.o)
 .ARM.attributes
                0x00000000       0x2c c:/vsarm/armcc/125863~1.3re/bin/../lib/gcc/arm-none-eabi/12.3.1/thumb/v6-m/nofp\libg.a(libc_a-strtol.o)
 .text          0x00000000        0x0 c:/vsarm/armcc/125863~1.3re/bin/../lib/gcc/arm-none-eabi/12.3.1/thumb/v6-m/nofp\libg.a(libc_a-ctype_.o)
 .data          0x00000000        0x0 c:/vsarm/armcc/125863~1.3re/bin/../lib/gcc/arm-none-eabi/12.3.1/thumb/v6-m/nofp\libg.a(libc_a-ctype_.o)
 .bss           0x00000000        0x0 c:/vsarm/armcc/125863~1.3re/bin/../lib/gcc/arm-none-eabi/12.3.1/thumb/v6-m/nofp\libg.a(libc_a-ctype_.o)
 .text.__set_ctype
                0x00000000        0xc c:/vsarm/armcc/125863~1.3re/bin/../lib/gcc/arm-none-eabi/12.3.1/thumb/v6-m/nofp\libg.a(libc_a-ctype_.o)
 .rodata._ctype_
                0x00000000      0x101 c:/vsarm/armcc/125863~1.3re/bin/../lib/gcc/arm-none-eabi/12.3.1/thumb/v6-m/nofp\libg.a(libc_a-ctype_.o)
 .debug_frame   0x00000000       0x20 c:/vsarm/armcc/125863~1.3re/bin/../lib/gcc/arm-none-eabi/12.3.1/thumb/v6-m/nofp\libg.a(libc_a-ctype_.o)
 .ARM.attributes
                0x00000000       0x2c c:/vsarm/armcc/125863~1.3re/bin/../lib/gcc/arm-none-eabi/12.3.1/thumb/v6-m/nofp\libg.a(libc_a-ctype_.o)
 .text          0x00000000        0x0 c:/vsarm/armcc/125863~1.3re/bin/../lib/gcc/arm-none-eabi/12.3.1/thumb/v6-m/nofp\libg.a(libc_a-memcmp.o)
 .data          0x00000000        0x0 c:/vsarm/armcc/125863~1.3re/bin/../lib/gcc/arm-none-eabi/12.3.1/thumb/v6-m/nofp\libg.a(libc_a-memcmp.o)
 .bss           0x00000000        0x0 c:/vsarm/armcc/125863~1.3re/bin/../lib/gcc/arm-none-eabi/12.3.1/thumb/v6-m/nofp\libg.a(libc_a-memcmp.o)
 .text.memcmp   0x00000000       0x44 c:/vsarm/armcc/125863~1.3re/bin/../lib/gcc/arm-none-eabi/12.3.1/thumb/v6-m/nofp\libg.a(libc_a-memcmp.o)
 .debug_frame   0x00000000       0x2c c:/vsarm/armcc/125863~1.3re/bin/../lib/gcc/arm-none-eabi/12.3.1/thumb/v6-m/nofp\libg.a(libc_a-memcmp.o)
 .ARM.attributes
                0x00000000       0x2c c:/vsarm/armcc/125863~1.3re/bin/../lib/gcc/arm-none-eabi/12.3.1/thumb/v6-m/nofp\libg.a(libc_a-memcmp.o)
 .text          0x00000000        0x0 c:/vsarm/armcc/125863~1.3re/bin/../lib/gcc/arm-none-eabi/12.3.1/thumb/v6-m/nofp\libg.a(libc_a-memmove.o)
 .data          0x00000000        0x0 c:/vsarm/armcc/125863~1.3re/bin/../lib/gcc/arm-none-eabi/12.3.1/thumb/v6-m/nofp\libg.a(libc_a-memmove.o)
 .bss           0x00000000        0x0 c:/vsarm/armcc/125863~1.3re/bin/../lib/gcc/arm-none-eabi/12.3.1/thumb/v6-m/nofp\libg.a(libc_a-memmove.o)
 .text.memmove  0x00000000       0xb0 c:/vsarm/armcc/125863~1.3re/bin/../lib/gcc/arm-none-eabi/12.3.1/thumb/v6-m/nofp\libg.a(libc_a-memmove.o)
 .debug_frame   0x00000000       0x30 c:/vsarm/armcc/125863~1.3re/bin/../lib/gcc/arm-none-eabi/12.3.1/thumb/v6-m/nofp\libg.a(libc_a-memmove.o)
 .ARM.attributes
                0x00000000       0x2c c:/vsarm/armcc/125863~1.3re/bin/../lib/gcc/arm-none-eabi/12.3.1/thumb/v6-m/nofp\libg.a(libc_a-memmove.o)
 .text          0x00000000        0x0 c:/vsarm/armcc/125863~1.3re/bin/../lib/gcc/arm-none-eabi/12.3.1/thumb/v6-m/nofp\libg.a(libc_a-strncmp.o)
 .data          0x00000000        0x0 c:/vsarm/armcc/125863~1.3re/bin/../lib/gcc/arm-none-eabi/12.3.1/thumb/v6-m/nofp\libg.a(libc_a-strncmp.o)
 .bss           0x00000000        0x0 c:/vsarm/armcc/125863~1.3re/bin/../lib/gcc/arm-none-eabi/12.3.1/thumb/v6-m/nofp\libg.a(libc_a-strncmp.o)
 .text.strncmp  0x00000000       0x68 c:/vsarm/armcc/125863~1.3re/bin/../lib/gcc/arm-none-eabi/12.3.1/thumb/v6-m/nofp\libg.a(libc_a-strncmp.o)
 .debug_frame   0x00000000       0x2c c:/vsarm/armcc/125863~1.3re/bin/../lib/gcc/arm-none-eabi/12.3.1/thumb/v6-m/nofp\libg.a(libc_a-strncmp.o)
 .ARM.attributes
                0x00000000       0x2c c:/vsarm/armcc/125863~1.3re/bin/../lib/gcc/arm-none-eabi/12.3.1/thumb/v6-m/nofp\libg.a(libc_a-strncmp.o)
 .text          0x00000000        0x0 c:/vsarm/armcc/125863~1.3re/bin/../lib/gcc/arm-none-eabi/12.3.1/thumb/v6-m/nofp\libg.a(libc_a-impure.o)
 .data          0x00000000        0x0 c:/vsarm/armcc/125863~1.3re/bin/../lib/gcc/arm-none-eabi/12.3.1/thumb/v6-m/nofp\libg.a(libc_a-impure.o)
 .bss           0x00000000        0x0 c:/vsarm/armcc/125863~1.3re/bin/../lib/gcc/arm-none-eabi/12.3.1/thumb/v6-m/nofp\libg.a(libc_a-impure.o)
 .data._impure_ptr
                0x00000000        0x4 c:/vsarm/armcc/125863~1.3re/bin/../lib/gcc/arm-none-eabi/12.3.1/thumb/v6-m/nofp\libg.a(libc_a-impure.o)
 .data._impure_data
                0x00000000      0x120 c:/vsarm/armcc/125863~1.3re/bin/../lib/gcc/arm-none-eabi/12.3.1/thumb/v6-m/nofp\libg.a(libc_a-impure.o)
 .ARM.attributes
                0x00000000       0x2c c:/vsarm/armcc/125863~1.3re/bin/../lib/gcc/arm-none-eabi/12.3.1/thumb/v6-m/nofp\libg.a(libc_a-impure.o)
 .text          0x00000000        0x0 c:/vsarm/armcc/125863~1.3re/bin/../lib/gcc/arm-none-eabi/12.3.1/thumb/v6-m/nofp\libg.a(libc_a-sbrkr.o)
 .data          0x00000000        0x0 c:/vsarm/armcc/125863~1.3re/bin/../lib/gcc/arm-none-eabi/12.3.1/thumb/v6-m/nofp\libg.a(libc_a-sbrkr.o)
 .bss           0x00000000        0x0 c:/vsarm/armcc/125863~1.3re/bin/../lib/gcc/arm-none-eabi/12.3.1/thumb/v6-m/nofp\libg.a(libc_a-sbrkr.o)
 .text._sbrk_r  0x00000000       0x24 c:/vsarm/armcc/125863~1.3re/bin/../lib/gcc/arm-none-eabi/12.3.1/thumb/v6-m/nofp\libg.a(libc_a-sbrkr.o)
 .debug_frame   0x00000000       0x2c c:/vsarm/armcc/125863~1.3re/bin/../lib/gcc/arm-none-eabi/12.3.1/thumb/v6-m/nofp\libg.a(libc_a-sbrkr.o)
 .ARM.attributes
                0x00000000       0x2c c:/vsarm/armcc/125863~1.3re/bin/../lib/gcc/arm-none-eabi/12.3.1/thumb/v6-m/nofp\libg.a(libc_a-sbrkr.o)
 .text          0x00000000        0x0 c:/vsarm/armcc/125863~1.3re/bin/../lib/gcc/arm-none-eabi/12.3.1/thumb/v6-m/nofp\libg.a(libc_a-errno.o)
 .data          0x00000000        0x0 c:/vsarm/armcc/125863~1.3re/bin/../lib/gcc/arm-none-eabi/12.3.1/thumb/v6-m/nofp\libg.a(libc_a-errno.o)
 .bss           0x00000000        0x0 c:/vsarm/armcc/125863~1.3re/bin/../lib/gcc/arm-none-eabi/12.3.1/thumb/v6-m/nofp\libg.a(libc_a-errno.o)
 .text.__errno  0x00000000        0xc c:/vsarm/armcc/125863~1.3re/bin/../lib/gcc/arm-none-eabi/12.3.1/thumb/v6-m/nofp\libg.a(libc_a-errno.o)
 .debug_frame   0x00000000       0x20 c:/vsarm/armcc/125863~1.3re/bin/../lib/gcc/arm-none-eabi/12.3.1/thumb/v6-m/nofp\libg.a(libc_a-errno.o)
 .ARM.attributes
                0x00000000       0x2c c:/vsarm/armcc/125863~1.3re/bin/../lib/gcc/arm-none-eabi/12.3.1/thumb/v6-m/nofp\libg.a(libc_a-errno.o)
 .text          0x00000000        0x0 c:/vsarm/armcc/125863~1.3re/bin/../lib/gcc/arm-none-eabi/12.3.1/thumb/v6-m/nofp\libg.a(libc_a-init.o)
 .data          0x00000000        0x0 c:/vsarm/armcc/125863~1.3re/bin/../lib/gcc/arm-none-eabi/12.3.1/thumb/v6-m/nofp\libg.a(libc_a-init.o)
 .bss           0x00000000        0x0 c:/vsarm/armcc/125863~1.3re/bin/../lib/gcc/arm-none-eabi/12.3.1/thumb/v6-m/nofp\libg.a(libc_a-init.o)
 .text.__libc_init_array
                0x00000000       0x48 c:/vsarm/armcc/125863~1.3re/bin/../lib/gcc/arm-none-eabi/12.3.1/thumb/v6-m/nofp\libg.a(libc_a-init.o)
 .debug_frame   0x00000000       0x2c c:/vsarm/armcc/125863~1.3re/bin/../lib/gcc/arm-none-eabi/12.3.1/thumb/v6-m/nofp\libg.a(libc_a-init.o)
 .ARM.attributes
                0x00000000       0x2c c:/vsarm/armcc/125863~1.3re/bin/../lib/gcc/arm-none-eabi/12.3.1/thumb/v6-m/nofp\libg.a(libc_a-init.o)
 .text          0x00000000        0x0 c:/vsarm/armcc/125863~1.3re/bin/../lib/gcc/arm-none-eabi/12.3.1/thumb/v6-m/nofp\libg.a(libc_a-lock.o)
 .data          0x00000000        0x0 c:/vsarm/armcc/125863~1.3re/bin/../lib/gcc/arm-none-eabi/12.3.1/thumb/v6-m/nofp\libg.a(libc_a-lock.o)
 .bss           0x00000000        0x0 c:/vsarm/armcc/125863~1.3re/bin/../lib/gcc/arm-none-eabi/12.3.1/thumb/v6-m/nofp\libg.a(libc_a-lock.o)
 .text.__retarget_lock_init
                0x00000000        0x4 c:/vsarm/armcc/125863~1.3re/bin/../lib/gcc/arm-none-eabi/12.3.1/thumb/v6-m/nofp\libg.a(libc_a-lock.o)
 .text.__retarget_lock_init_recursive
                0x00000000        0x4 c:/vsarm/armcc/125863~1.3re/bin/../lib/gcc/arm-none-eabi/12.3.1/thumb/v6-m/nofp\libg.a(libc_a-lock.o)
 .text.__retarget_lock_close
                0x00000000        0x4 c:/vsarm/armcc/125863~1.3re/bin/../lib/gcc/arm-none-eabi/12.3.1/thumb/v6-m/nofp\libg.a(libc_a-lock.o)
 .text.__retarget_lock_close_recursive
                0x00000000        0x4 c:/vsarm/armcc/125863~1.3re/bin/../lib/gcc/arm-none-eabi/12.3.1/thumb/v6-m/nofp\libg.a(libc_a-lock.o)
 .text.__retarget_lock_acquire
                0x00000000        0x4 c:/vsarm/armcc/125863~1.3re/bin/../lib/gcc/arm-none-eabi/12.3.1/thumb/v6-m/nofp\libg.a(libc_a-lock.o)
 .text.__retarget_lock_acquire_recursive
                0x00000000        0x4 c:/vsarm/armcc/125863~1.3re/bin/../lib/gcc/arm-none-eabi/12.3.1/thumb/v6-m/nofp\libg.a(libc_a-lock.o)
 .text.__retarget_lock_try_acquire
                0x00000000        0x4 c:/vsarm/armcc/125863~1.3re/bin/../lib/gcc/arm-none-eabi/12.3.1/thumb/v6-m/nofp\libg.a(libc_a-lock.o)
 .text.__retarget_lock_try_acquire_recursive
                0x00000000        0x4 c:/vsarm/armcc/125863~1.3re/bin/../lib/gcc/arm-none-eabi/12.3.1/thumb/v6-m/nofp\libg.a(libc_a-lock.o)
 .text.__retarget_lock_release
                0x00000000        0x4 c:/vsarm/armcc/125863~1.3re/bin/../lib/gcc/arm-none-eabi/12.3.1/thumb/v6-m/nofp\libg.a(libc_a-lock.o)
 .text.__retarget_lock_release_recursive
                0x00000000        0x4 c:/vsarm/armcc/125863~1.3re/bin/../lib/gcc/arm-none-eabi/12.3.1/thumb/v6-m/nofp\libg.a(libc_a-lock.o)
 .bss.__lock___arc4random_mutex
                0x00000000        0x1 c:/vsarm/armcc/125863~1.3re/bin/../lib/gcc/arm-none-eabi/12.3.1/thumb/v6-m/nofp\libg.a(libc_a-lock.o)
 .bss.__lock___dd_hash_mutex
                0x00000000        0x1 c:/vsarm/armcc/125863~1.3re/bin/../lib/gcc/arm-none-eabi/12.3.1/thumb/v6-m/nofp\libg.a(libc_a-lock.o)
 .bss.__lock___tz_mutex
                0x00000000        0x1 c:/vsarm/armcc/125863~1.3re/bin/../lib/gcc/arm-none-eabi/12.3.1/thumb/v6-m/nofp\libg.a(libc_a-lock.o)
 .bss.__lock___env_recursive_mutex
                0x00000000        0x1 c:/vsarm/armcc/125863~1.3re/bin/../lib/gcc/arm-none-eabi/12.3.1/thumb/v6-m/nofp\libg.a(libc_a-lock.o)
 .bss.__lock___malloc_recursive_mutex
                0x00000000        0x1 c:/vsarm/armcc/125863~1.3re/bin/../lib/gcc/arm-none-eabi/12.3.1/thumb/v6-m/nofp\libg.a(libc_a-lock.o)
 .bss.__lock___at_quick_exit_mutex
                0x00000000        0x1 c:/vsarm/armcc/125863~1.3re/bin/../lib/gcc/arm-none-eabi/12.3.1/thumb/v6-m/nofp\libg.a(libc_a-lock.o)
 .bss.__lock___atexit_recursive_mutex
                0x00000000        0x1 c:/vsarm/armcc/125863~1.3re/bin/../lib/gcc/arm-none-eabi/12.3.1/thumb/v6-m/nofp\libg.a(libc_a-lock.o)
 .bss.__lock___sfp_recursive_mutex
                0x00000000        0x1 c:/vsarm/armcc/125863~1.3re/bin/../lib/gcc/arm-none-eabi/12.3.1/thumb/v6-m/nofp\libg.a(libc_a-lock.o)
 .debug_frame   0x00000000       0xb0 c:/vsarm/armcc/125863~1.3re/bin/../lib/gcc/arm-none-eabi/12.3.1/thumb/v6-m/nofp\libg.a(libc_a-lock.o)
 .ARM.attributes
                0x00000000       0x2c c:/vsarm/armcc/125863~1.3re/bin/../lib/gcc/arm-none-eabi/12.3.1/thumb/v6-m/nofp\libg.a(libc_a-lock.o)
 .text          0x00000000        0x0 c:/vsarm/armcc/125863~1.3re/bin/../lib/gcc/arm-none-eabi/12.3.1/thumb/v6-m/nofp\libg.a(libc_a-sysconf.o)
 .data          0x00000000        0x0 c:/vsarm/armcc/125863~1.3re/bin/../lib/gcc/arm-none-eabi/12.3.1/thumb/v6-m/nofp\libg.a(libc_a-sysconf.o)
 .bss           0x00000000        0x0 c:/vsarm/armcc/125863~1.3re/bin/../lib/gcc/arm-none-eabi/12.3.1/thumb/v6-m/nofp\libg.a(libc_a-sysconf.o)
 .text.sysconf  0x00000000       0x1c c:/vsarm/armcc/125863~1.3re/bin/../lib/gcc/arm-none-eabi/12.3.1/thumb/v6-m/nofp\libg.a(libc_a-sysconf.o)
 .debug_frame   0x00000000       0x28 c:/vsarm/armcc/125863~1.3re/bin/../lib/gcc/arm-none-eabi/12.3.1/thumb/v6-m/nofp\libg.a(libc_a-sysconf.o)
 .ARM.attributes
                0x00000000       0x2c c:/vsarm/armcc/125863~1.3re/bin/../lib/gcc/arm-none-eabi/12.3.1/thumb/v6-m/nofp\libg.a(libc_a-sysconf.o)
 .text          0x00000000        0x0 c:/vsarm/armcc/125863~1.3re/bin/../lib/gcc/arm-none-eabi/12.3.1/thumb/v6-m/nofp\libg.a(libc_a-strlen-stub.o)
 .data          0x00000000        0x0 c:/vsarm/armcc/125863~1.3re/bin/../lib/gcc/arm-none-eabi/12.3.1/thumb/v6-m/nofp\libg.a(libc_a-strlen-stub.o)
 .bss           0x00000000        0x0 c:/vsarm/armcc/125863~1.3re/bin/../lib/gcc/arm-none-eabi/12.3.1/thumb/v6-m/nofp\libg.a(libc_a-strlen-stub.o)
 .text          0x00000000        0x0 c:/vsarm/armcc/125863~1.3re/bin/../lib/gcc/arm-none-eabi/12.3.1/thumb/v6-m/nofp\libg.a(libc_a-freer.o)
 .data          0x00000000        0x0 c:/vsarm/armcc/125863~1.3re/bin/../lib/gcc/arm-none-eabi/12.3.1/thumb/v6-m/nofp\libg.a(libc_a-freer.o)
 .bss           0x00000000        0x0 c:/vsarm/armcc/125863~1.3re/bin/../lib/gcc/arm-none-eabi/12.3.1/thumb/v6-m/nofp\libg.a(libc_a-freer.o)
 .text._malloc_trim_r
                0x00000000       0xb4 c:/vsarm/armcc/125863~1.3re/bin/../lib/gcc/arm-none-eabi/12.3.1/thumb/v6-m/nofp\libg.a(libc_a-freer.o)
 .text._free_r  0x00000000      0x1d4 c:/vsarm/armcc/125863~1.3re/bin/../lib/gcc/arm-none-eabi/12.3.1/thumb/v6-m/nofp\libg.a(libc_a-freer.o)
 .debug_frame   0x00000000       0x5c c:/vsarm/armcc/125863~1.3re/bin/../lib/gcc/arm-none-eabi/12.3.1/thumb/v6-m/nofp\libg.a(libc_a-freer.o)
 .ARM.attributes
                0x00000000       0x2c c:/vsarm/armcc/125863~1.3re/bin/../lib/gcc/arm-none-eabi/12.3.1/thumb/v6-m/nofp\libg.a(libc_a-freer.o)
 .text          0x00000000        0x0 c:/vsarm/armcc/125863~1.3re/bin/../lib/gcc/arm-none-eabi/12.3.1/thumb/v6-m/nofp\libg.a(libc_a-findfp.o)
 .data          0x00000000        0x0 c:/vsarm/armcc/125863~1.3re/bin/../lib/gcc/arm-none-eabi/12.3.1/thumb/v6-m/nofp\libg.a(libc_a-findfp.o)
 .bss           0x00000000        0x0 c:/vsarm/armcc/125863~1.3re/bin/../lib/gcc/arm-none-eabi/12.3.1/thumb/v6-m/nofp\libg.a(libc_a-findfp.o)
 .text.stdio_exit_handler
                0x00000000       0x1c c:/vsarm/armcc/125863~1.3re/bin/../lib/gcc/arm-none-eabi/12.3.1/thumb/v6-m/nofp\libg.a(libc_a-findfp.o)
 .text.cleanup_stdio
                0x00000000       0x3c c:/vsarm/armcc/125863~1.3re/bin/../lib/gcc/arm-none-eabi/12.3.1/thumb/v6-m/nofp\libg.a(libc_a-findfp.o)
 .text.__fp_lock
                0x00000000       0x1c c:/vsarm/armcc/125863~1.3re/bin/../lib/gcc/arm-none-eabi/12.3.1/thumb/v6-m/nofp\libg.a(libc_a-findfp.o)
 .text.__fp_unlock
                0x00000000       0x1c c:/vsarm/armcc/125863~1.3re/bin/../lib/gcc/arm-none-eabi/12.3.1/thumb/v6-m/nofp\libg.a(libc_a-findfp.o)
 .text.global_stdio_init.part.0
                0x00000000      0x118 c:/vsarm/armcc/125863~1.3re/bin/../lib/gcc/arm-none-eabi/12.3.1/thumb/v6-m/nofp\libg.a(libc_a-findfp.o)
 .text.__sfp    0x00000000       0xc8 c:/vsarm/armcc/125863~1.3re/bin/../lib/gcc/arm-none-eabi/12.3.1/thumb/v6-m/nofp\libg.a(libc_a-findfp.o)
 .text.__sinit  0x00000000       0x38 c:/vsarm/armcc/125863~1.3re/bin/../lib/gcc/arm-none-eabi/12.3.1/thumb/v6-m/nofp\libg.a(libc_a-findfp.o)
 .text.__sfp_lock_acquire
                0x00000000       0x10 c:/vsarm/armcc/125863~1.3re/bin/../lib/gcc/arm-none-eabi/12.3.1/thumb/v6-m/nofp\libg.a(libc_a-findfp.o)
 .text.__sfp_lock_release
                0x00000000       0x10 c:/vsarm/armcc/125863~1.3re/bin/../lib/gcc/arm-none-eabi/12.3.1/thumb/v6-m/nofp\libg.a(libc_a-findfp.o)
 .text.__fp_lock_all
                0x00000000       0x20 c:/vsarm/armcc/125863~1.3re/bin/../lib/gcc/arm-none-eabi/12.3.1/thumb/v6-m/nofp\libg.a(libc_a-findfp.o)
 .text.__fp_unlock_all
                0x00000000       0x20 c:/vsarm/armcc/125863~1.3re/bin/../lib/gcc/arm-none-eabi/12.3.1/thumb/v6-m/nofp\libg.a(libc_a-findfp.o)
 .data.__sglue  0x00000000        0xc c:/vsarm/armcc/125863~1.3re/bin/../lib/gcc/arm-none-eabi/12.3.1/thumb/v6-m/nofp\libg.a(libc_a-findfp.o)
 .bss.__sf      0x00000000      0x138 c:/vsarm/armcc/125863~1.3re/bin/../lib/gcc/arm-none-eabi/12.3.1/thumb/v6-m/nofp\libg.a(libc_a-findfp.o)
 .bss.__stdio_exit_handler
                0x00000000        0x4 c:/vsarm/armcc/125863~1.3re/bin/../lib/gcc/arm-none-eabi/12.3.1/thumb/v6-m/nofp\libg.a(libc_a-findfp.o)
 .debug_frame   0x00000000      0x138 c:/vsarm/armcc/125863~1.3re/bin/../lib/gcc/arm-none-eabi/12.3.1/thumb/v6-m/nofp\libg.a(libc_a-findfp.o)
 .ARM.attributes
                0x00000000       0x2c c:/vsarm/armcc/125863~1.3re/bin/../lib/gcc/arm-none-eabi/12.3.1/thumb/v6-m/nofp\libg.a(libc_a-findfp.o)
 .text          0x00000000        0x0 c:/vsarm/armcc/125863~1.3re/bin/../lib/gcc/arm-none-eabi/12.3.1/thumb/v6-m/nofp\libg.a(libc_a-fwalk.o)
 .data          0x00000000        0x0 c:/vsarm/armcc/125863~1.3re/bin/../lib/gcc/arm-none-eabi/12.3.1/thumb/v6-m/nofp\libg.a(libc_a-fwalk.o)
 .bss           0x00000000        0x0 c:/vsarm/armcc/125863~1.3re/bin/../lib/gcc/arm-none-eabi/12.3.1/thumb/v6-m/nofp\libg.a(libc_a-fwalk.o)
 .text._fwalk_sglue
                0x00000000       0x44 c:/vsarm/armcc/125863~1.3re/bin/../lib/gcc/arm-none-eabi/12.3.1/thumb/v6-m/nofp\libg.a(libc_a-fwalk.o)
 .debug_frame   0x00000000       0x38 c:/vsarm/armcc/125863~1.3re/bin/../lib/gcc/arm-none-eabi/12.3.1/thumb/v6-m/nofp\libg.a(libc_a-fwalk.o)
 .ARM.attributes
                0x00000000       0x2c c:/vsarm/armcc/125863~1.3re/bin/../lib/gcc/arm-none-eabi/12.3.1/thumb/v6-m/nofp\libg.a(libc_a-fwalk.o)
 .text          0x00000000        0x0 c:/vsarm/armcc/125863~1.3re/bin/../lib/gcc/arm-none-eabi/12.3.1/thumb/v6-m/nofp\libg.a(libc_a-stdio.o)
 .data          0x00000000        0x0 c:/vsarm/armcc/125863~1.3re/bin/../lib/gcc/arm-none-eabi/12.3.1/thumb/v6-m/nofp\libg.a(libc_a-stdio.o)
 .bss           0x00000000        0x0 c:/vsarm/armcc/125863~1.3re/bin/../lib/gcc/arm-none-eabi/12.3.1/thumb/v6-m/nofp\libg.a(libc_a-stdio.o)
 .text.__sread  0x00000000       0x28 c:/vsarm/armcc/125863~1.3re/bin/../lib/gcc/arm-none-eabi/12.3.1/thumb/v6-m/nofp\libg.a(libc_a-stdio.o)
 .text.__seofread
                0x00000000        0x4 c:/vsarm/armcc/125863~1.3re/bin/../lib/gcc/arm-none-eabi/12.3.1/thumb/v6-m/nofp\libg.a(libc_a-stdio.o)
 .text.__swrite
                0x00000000       0x40 c:/vsarm/armcc/125863~1.3re/bin/../lib/gcc/arm-none-eabi/12.3.1/thumb/v6-m/nofp\libg.a(libc_a-stdio.o)
 .text.__sseek  0x00000000       0x30 c:/vsarm/armcc/125863~1.3re/bin/../lib/gcc/arm-none-eabi/12.3.1/thumb/v6-m/nofp\libg.a(libc_a-stdio.o)
 .text.__sclose
                0x00000000        0xc c:/vsarm/armcc/125863~1.3re/bin/../lib/gcc/arm-none-eabi/12.3.1/thumb/v6-m/nofp\libg.a(libc_a-stdio.o)
 .debug_frame   0x00000000       0x90 c:/vsarm/armcc/125863~1.3re/bin/../lib/gcc/arm-none-eabi/12.3.1/thumb/v6-m/nofp\libg.a(libc_a-stdio.o)
 .ARM.attributes
                0x00000000       0x2c c:/vsarm/armcc/125863~1.3re/bin/../lib/gcc/arm-none-eabi/12.3.1/thumb/v6-m/nofp\libg.a(libc_a-stdio.o)
 .text          0x00000000        0x0 c:/vsarm/armcc/125863~1.3re/bin/../lib/gcc/arm-none-eabi/12.3.1/thumb/v6-m/nofp\libg.a(libc_a-closer.o)
 .data          0x00000000        0x0 c:/vsarm/armcc/125863~1.3re/bin/../lib/gcc/arm-none-eabi/12.3.1/thumb/v6-m/nofp\libg.a(libc_a-closer.o)
 .bss           0x00000000        0x0 c:/vsarm/armcc/125863~1.3re/bin/../lib/gcc/arm-none-eabi/12.3.1/thumb/v6-m/nofp\libg.a(libc_a-closer.o)
 .text._close_r
                0x00000000       0x24 c:/vsarm/armcc/125863~1.3re/bin/../lib/gcc/arm-none-eabi/12.3.1/thumb/v6-m/nofp\libg.a(libc_a-closer.o)
 .debug_frame   0x00000000       0x2c c:/vsarm/armcc/125863~1.3re/bin/../lib/gcc/arm-none-eabi/12.3.1/thumb/v6-m/nofp\libg.a(libc_a-closer.o)
 .ARM.attributes
                0x00000000       0x2c c:/vsarm/armcc/125863~1.3re/bin/../lib/gcc/arm-none-eabi/12.3.1/thumb/v6-m/nofp\libg.a(libc_a-closer.o)
 .text          0x00000000        0x0 c:/vsarm/armcc/125863~1.3re/bin/../lib/gcc/arm-none-eabi/12.3.1/thumb/v6-m/nofp\libg.a(libc_a-reent.o)
 .data          0x00000000        0x0 c:/vsarm/armcc/125863~1.3re/bin/../lib/gcc/arm-none-eabi/12.3.1/thumb/v6-m/nofp\libg.a(libc_a-reent.o)
 .bss           0x00000000        0x0 c:/vsarm/armcc/125863~1.3re/bin/../lib/gcc/arm-none-eabi/12.3.1/thumb/v6-m/nofp\libg.a(libc_a-reent.o)
 .text._reclaim_reent
                0x00000000       0x60 c:/vsarm/armcc/125863~1.3re/bin/../lib/gcc/arm-none-eabi/12.3.1/thumb/v6-m/nofp\libg.a(libc_a-reent.o)
 .bss.errno     0x00000000        0x4 c:/vsarm/armcc/125863~1.3re/bin/../lib/gcc/arm-none-eabi/12.3.1/thumb/v6-m/nofp\libg.a(libc_a-reent.o)
 .debug_frame   0x00000000       0x2c c:/vsarm/armcc/125863~1.3re/bin/../lib/gcc/arm-none-eabi/12.3.1/thumb/v6-m/nofp\libg.a(libc_a-reent.o)
 .ARM.attributes
                0x00000000       0x2c c:/vsarm/armcc/125863~1.3re/bin/../lib/gcc/arm-none-eabi/12.3.1/thumb/v6-m/nofp\libg.a(libc_a-reent.o)
 .text          0x00000000        0x0 c:/vsarm/armcc/125863~1.3re/bin/../lib/gcc/arm-none-eabi/12.3.1/thumb/v6-m/nofp\libg.a(libc_a-lseekr.o)
 .data          0x00000000        0x0 c:/vsarm/armcc/125863~1.3re/bin/../lib/gcc/arm-none-eabi/12.3.1/thumb/v6-m/nofp\libg.a(libc_a-lseekr.o)
 .bss           0x00000000        0x0 c:/vsarm/armcc/125863~1.3re/bin/../lib/gcc/arm-none-eabi/12.3.1/thumb/v6-m/nofp\libg.a(libc_a-lseekr.o)
 .text._lseek_r
                0x00000000       0x28 c:/vsarm/armcc/125863~1.3re/bin/../lib/gcc/arm-none-eabi/12.3.1/thumb/v6-m/nofp\libg.a(libc_a-lseekr.o)
 .debug_frame   0x00000000       0x2c c:/vsarm/armcc/125863~1.3re/bin/../lib/gcc/arm-none-eabi/12.3.1/thumb/v6-m/nofp\libg.a(libc_a-lseekr.o)
 .ARM.attributes
                0x00000000       0x2c c:/vsarm/armcc/125863~1.3re/bin/../lib/gcc/arm-none-eabi/12.3.1/thumb/v6-m/nofp\libg.a(libc_a-lseekr.o)
 .text          0x00000000        0x0 c:/vsarm/armcc/125863~1.3re/bin/../lib/gcc/arm-none-eabi/12.3.1/thumb/v6-m/nofp\libg.a(libc_a-readr.o)
 .data          0x00000000        0x0 c:/vsarm/armcc/125863~1.3re/bin/../lib/gcc/arm-none-eabi/12.3.1/thumb/v6-m/nofp\libg.a(libc_a-readr.o)
 .bss           0x00000000        0x0 c:/vsarm/armcc/125863~1.3re/bin/../lib/gcc/arm-none-eabi/12.3.1/thumb/v6-m/nofp\libg.a(libc_a-readr.o)
 .text._read_r  0x00000000       0x28 c:/vsarm/armcc/125863~1.3re/bin/../lib/gcc/arm-none-eabi/12.3.1/thumb/v6-m/nofp\libg.a(libc_a-readr.o)
 .debug_frame   0x00000000       0x2c c:/vsarm/armcc/125863~1.3re/bin/../lib/gcc/arm-none-eabi/12.3.1/thumb/v6-m/nofp\libg.a(libc_a-readr.o)
 .ARM.attributes
                0x00000000       0x2c c:/vsarm/armcc/125863~1.3re/bin/../lib/gcc/arm-none-eabi/12.3.1/thumb/v6-m/nofp\libg.a(libc_a-readr.o)
 .text          0x00000000        0x0 c:/vsarm/armcc/125863~1.3re/bin/../lib/gcc/arm-none-eabi/12.3.1/thumb/v6-m/nofp\libg.a(libc_a-writer.o)
 .data          0x00000000        0x0 c:/vsarm/armcc/125863~1.3re/bin/../lib/gcc/arm-none-eabi/12.3.1/thumb/v6-m/nofp\libg.a(libc_a-writer.o)
 .bss           0x00000000        0x0 c:/vsarm/armcc/125863~1.3re/bin/../lib/gcc/arm-none-eabi/12.3.1/thumb/v6-m/nofp\libg.a(libc_a-writer.o)
 .text._write_r
                0x00000000       0x28 c:/vsarm/armcc/125863~1.3re/bin/../lib/gcc/arm-none-eabi/12.3.1/thumb/v6-m/nofp\libg.a(libc_a-writer.o)
 .debug_frame   0x00000000       0x2c c:/vsarm/armcc/125863~1.3re/bin/../lib/gcc/arm-none-eabi/12.3.1/thumb/v6-m/nofp\libg.a(libc_a-writer.o)
 .ARM.attributes
                0x00000000       0x2c c:/vsarm/armcc/125863~1.3re/bin/../lib/gcc/arm-none-eabi/12.3.1/thumb/v6-m/nofp\libg.a(libc_a-writer.o)
 .text          0x00000000        0x0 c:/vsarm/armcc/125863~1.3re/bin/../lib/gcc/arm-none-eabi/12.3.1/thumb/v6-m/nofp\libg.a(libc_a-fclose.o)
 .data          0x00000000        0x0 c:/vsarm/armcc/125863~1.3re/bin/../lib/gcc/arm-none-eabi/12.3.1/thumb/v6-m/nofp\libg.a(libc_a-fclose.o)
 .bss           0x00000000        0x0 c:/vsarm/armcc/125863~1.3re/bin/../lib/gcc/arm-none-eabi/12.3.1/thumb/v6-m/nofp\libg.a(libc_a-fclose.o)
 .text._fclose_r
                0x00000000       0xd0 c:/vsarm/armcc/125863~1.3re/bin/../lib/gcc/arm-none-eabi/12.3.1/thumb/v6-m/nofp\libg.a(libc_a-fclose.o)
 .text.fclose   0x00000000       0x14 c:/vsarm/armcc/125863~1.3re/bin/../lib/gcc/arm-none-eabi/12.3.1/thumb/v6-m/nofp\libg.a(libc_a-fclose.o)
 .debug_frame   0x00000000       0x44 c:/vsarm/armcc/125863~1.3re/bin/../lib/gcc/arm-none-eabi/12.3.1/thumb/v6-m/nofp\libg.a(libc_a-fclose.o)
 .ARM.attributes
                0x00000000       0x2c c:/vsarm/armcc/125863~1.3re/bin/../lib/gcc/arm-none-eabi/12.3.1/thumb/v6-m/nofp\libg.a(libc_a-fclose.o)
 .text          0x00000000        0x0 c:/vsarm/armcc/125863~1.3re/bin/../lib/gcc/arm-none-eabi/12.3.1/thumb/v6-m/nofp\libg.a(libc_a-fflush.o)
 .data          0x00000000        0x0 c:/vsarm/armcc/125863~1.3re/bin/../lib/gcc/arm-none-eabi/12.3.1/thumb/v6-m/nofp\libg.a(libc_a-fflush.o)
 .bss           0x00000000        0x0 c:/vsarm/armcc/125863~1.3re/bin/../lib/gcc/arm-none-eabi/12.3.1/thumb/v6-m/nofp\libg.a(libc_a-fflush.o)
 .text.__sflush_r
                0x00000000      0x148 c:/vsarm/armcc/125863~1.3re/bin/../lib/gcc/arm-none-eabi/12.3.1/thumb/v6-m/nofp\libg.a(libc_a-fflush.o)
 .text._fflush_r
                0x00000000       0x68 c:/vsarm/armcc/125863~1.3re/bin/../lib/gcc/arm-none-eabi/12.3.1/thumb/v6-m/nofp\libg.a(libc_a-fflush.o)
 .text.fflush   0x00000000       0x7c c:/vsarm/armcc/125863~1.3re/bin/../lib/gcc/arm-none-eabi/12.3.1/thumb/v6-m/nofp\libg.a(libc_a-fflush.o)
 .debug_frame   0x00000000       0x6c c:/vsarm/armcc/125863~1.3re/bin/../lib/gcc/arm-none-eabi/12.3.1/thumb/v6-m/nofp\libg.a(libc_a-fflush.o)
 .ARM.attributes
                0x00000000       0x2c c:/vsarm/armcc/125863~1.3re/bin/../lib/gcc/arm-none-eabi/12.3.1/thumb/v6-m/nofp\libg.a(libc_a-fflush.o)
 .text          0x00000000        0x0 c:/vsarm/armcc/125863~1.3re/bin/../lib/gcc/arm-none-eabi/12.3.1/thumb/v6-m/nofp/crtend.o
 .data          0x00000000        0x0 c:/vsarm/armcc/125863~1.3re/bin/../lib/gcc/arm-none-eabi/12.3.1/thumb/v6-m/nofp/crtend.o
 .bss           0x00000000        0x0 c:/vsarm/armcc/125863~1.3re/bin/../lib/gcc/arm-none-eabi/12.3.1/thumb/v6-m/nofp/crtend.o
 .rodata.all_implied_fbits
                0x00000000       0x24 c:/vsarm/armcc/125863~1.3re/bin/../lib/gcc/arm-none-eabi/12.3.1/thumb/v6-m/nofp/crtend.o
 .eh_frame      0x00000000        0x4 c:/vsarm/armcc/125863~1.3re/bin/../lib/gcc/arm-none-eabi/12.3.1/thumb/v6-m/nofp/crtend.o
 .text          0x00000000        0x0 c:/vsarm/armcc/125863~1.3re/bin/../lib/gcc/arm-none-eabi/12.3.1/thumb/v6-m/nofp/crtn.o
 .data          0x00000000        0x0 c:/vsarm/armcc/125863~1.3re/bin/../lib/gcc/arm-none-eabi/12.3.1/thumb/v6-m/nofp/crtn.o
 .bss           0x00000000        0x0 c:/vsarm/armcc/125863~1.3re/bin/../lib/gcc/arm-none-eabi/12.3.1/thumb/v6-m/nofp/crtn.o
 .init          0x00000000        0x8 c:/vsarm/armcc/125863~1.3re/bin/../lib/gcc/arm-none-eabi/12.3.1/thumb/v6-m/nofp/crtn.o
 .fini          0x00000000        0x8 c:/vsarm/armcc/125863~1.3re/bin/../lib/gcc/arm-none-eabi/12.3.1/thumb/v6-m/nofp/crtn.o
 .ARM.attributes
                0x00000000       0x1e c:/vsarm/armcc/125863~1.3re/bin/../lib/gcc/arm-none-eabi/12.3.1/thumb/v6-m/nofp/crtn.o

Memory Configuration

Name             Origin             Length             Attributes
FLASH            0x10000000         0x00200000         xr
RAM              0x20000000         0x00040000         xrw
SCRATCH_X        0x20040000         0x00001000         xrw
SCRATCH_Y        0x20041000         0x00001000         xrw
*default*        0x00000000         0xffffffff

Linker script and memory map

LOAD c:/vsarm/armcc/125863~1.3re/bin/../lib/gcc/arm-none-eabi/12.3.1/thumb/v6-m/nofp/crti.o
LOAD c:/vsarm/armcc/125863~1.3re/bin/../lib/gcc/arm-none-eabi/12.3.1/thumb/v6-m/nofp/crtbegin.o
LOAD c:/vsarm/armcc/125863~1.3re/bin/../lib/gcc/arm-none-eabi/12.3.1/thumb/v6-m/nofp/crt0.o

.flash_begin    0x10000000        0x0
                0x10000000                        __flash_binary_start = .

.boot2          0x10000000      0x100
                0x10000000                        __boot2_start__ = .
 *(.boot2)
 .boot2         0x10000000      0x100 C:\Users\phuon\AppData\Local\Temp\ccGjedSI.o
                0x10000100                        __boot2_end__ = .
                0x00000001                        ASSERT (((__boot2_end__ - __boot2_start__) == 0x100), ERROR: Pico second stage bootloader must be 256 bytes in size)

.text           0x10000100     0x6638
                0x10000100                        __logical_binary_start = .
 *(.vectors)
 .vectors       0x10000100       0xd4 CMakeFiles/AHT20.dir/C_/VSARM/sdk/pico/pico-sdk/src/rp2_common/pico_standard_link/crt0.S.obj
                0x10000100                __VECTOR_TABLE
                0x10000100                __vectors
                0x100001c0                isr_invalid
                0x100001c0                __default_isrs_start
                0x100001c2                isr_nmi
                0x100001c4                isr_hardfault
                0x100001c6                isr_svcall
                0x100001c8                isr_pendsv
                0x100001ca                isr_systick
                0x100001cc                isr_irq23
                0x100001cc                isr_irq18
                0x100001cc                isr_irq11
                0x100001cc                isr_irq28
                0x100001cc                isr_irq19
                0x100001cc                isr_irq0
                0x100001cc                isr_irq6
                0x100001cc                isr_irq5
                0x100001cc                isr_irq12
                0x100001cc                isr_irq22
                0x100001cc                isr_irq31
                0x100001cc                isr_irq17
                0x100001cc                isr_irq27
                0x100001cc                isr_irq30
                0x100001cc                isr_irq2
                0x100001cc                isr_irq10
                0x100001cc                isr_irq8
                0x100001cc                isr_irq24
                0x100001cc                isr_irq1
                0x100001cc                isr_irq7
                0x100001cc                isr_irq21
                0x100001cc                isr_irq20
                0x100001cc                isr_irq15
                0x100001cc                isr_irq25
                0x100001cc                isr_irq13
                0x100001cc                __unhandled_user_irq
                0x100001cc                isr_irq4
                0x100001cc                isr_irq16
                0x100001cc                isr_irq29
                0x100001cc                isr_irq26
                0x100001cc                __default_isrs_end
                0x100001cc                isr_irq3
                0x100001cc                isr_irq14
                0x100001cc                isr_irq9
                0x100001d2                unhandled_user_irq_num_in_r0
 *(.binary_info_header)
 .binary_info_header
                0x100001d4       0x14 CMakeFiles/AHT20.dir/C_/VSARM/sdk/pico/pico-sdk/src/rp2_common/pico_standard_link/crt0.S.obj
                0x100001e8                        __binary_info_header_end = .
 *(.reset)
 .reset         0x100001e8       0xa0 CMakeFiles/AHT20.dir/C_/VSARM/sdk/pico/pico-sdk/src/rp2_common/pico_standard_link/crt0.S.obj
                0x100001e8                _entry_point
 .reset         0x10000288       0x30 CMakeFiles/AHT20.dir/C_/VSARM/sdk/pico/pico-sdk/src/rp2_common/pico_standard_link/binary_info.c.obj
 *(.init)
 .init          0x100002b8        0x4 c:/vsarm/armcc/125863~1.3re/bin/../lib/gcc/arm-none-eabi/12.3.1/thumb/v6-m/nofp/crti.o
                0x100002b8                _init
 *(EXCLUDE_FILE(*libm.a: *libc.a:*lib_a-mem*.o *libgcc.a:) .text*)
 .text.register_tm_clones
                0x100002bc       0x28 c:/vsarm/armcc/125863~1.3re/bin/../lib/gcc/arm-none-eabi/12.3.1/thumb/v6-m/nofp/crtbegin.o
 .text.frame_dummy
                0x100002e4       0x24 c:/vsarm/armcc/125863~1.3re/bin/../lib/gcc/arm-none-eabi/12.3.1/thumb/v6-m/nofp/crtbegin.o
 .text.main     0x10000308       0x20 CMakeFiles/AHT20.dir/main.cpp.obj
                0x10000308                main
 .text.pwm_init
                0x10000328       0x34 CMakeFiles/AHT20.dir/BUZZER/Buzzer.cpp.obj
 .text.pwm_set_chan_level
                0x1000035c       0x40 CMakeFiles/AHT20.dir/BUZZER/Buzzer.cpp.obj
 .text.pwm_set_gpio_level
                0x1000039c       0x16 CMakeFiles/AHT20.dir/BUZZER/Buzzer.cpp.obj
 *fill*         0x100003b2        0x2 
 .text._ZN6BuzzerC2Ej
                0x100003b4       0x64 CMakeFiles/AHT20.dir/BUZZER/Buzzer.cpp.obj
                0x100003b4                Buzzer::Buzzer(unsigned int)
                0x100003b4                Buzzer::Buzzer(unsigned int)
 .text._ZN6Buzzer8playToneEv
                0x10000418       0x24 CMakeFiles/AHT20.dir/BUZZER/Buzzer.cpp.obj
                0x10000418                Buzzer::playTone()
 .text.gpio_set_function
                0x1000043c       0x30 CMakeFiles/AHT20.dir/C_/VSARM/sdk/pico/pico-sdk/src/rp2_common/hardware_gpio/gpio.c.obj
                0x1000043c                gpio_set_function
 .text.running_on_fpga
                0x1000046c       0x14 CMakeFiles/AHT20.dir/C_/VSARM/sdk/pico/pico-sdk/src/rp2_common/pico_platform/platform.c.obj
                0x1000046c                running_on_fpga
 .text.hw_claim_lock
                0x10000480       0x18 CMakeFiles/AHT20.dir/C_/VSARM/sdk/pico/pico-sdk/src/rp2_common/hardware_claim/claim.c.obj
                0x10000480                hw_claim_lock
 .text.hw_claim_unlock
                0x10000498       0x14 CMakeFiles/AHT20.dir/C_/VSARM/sdk/pico/pico-sdk/src/rp2_common/hardware_claim/claim.c.obj
                0x10000498                hw_claim_unlock
 .text.hw_claim_or_assert
                0x100004ac       0x32 CMakeFiles/AHT20.dir/C_/VSARM/sdk/pico/pico-sdk/src/rp2_common/hardware_claim/claim.c.obj
                0x100004ac                hw_claim_or_assert
 .text.hw_claim_unused_from_range
                0x100004de       0x50 CMakeFiles/AHT20.dir/C_/VSARM/sdk/pico/pico-sdk/src/rp2_common/hardware_claim/claim.c.obj
                0x100004de                hw_claim_unused_from_range
 *fill*         0x1000052e        0x2 
 .text.spin_locks_reset
                0x10000530       0x20 CMakeFiles/AHT20.dir/C_/VSARM/sdk/pico/pico-sdk/src/rp2_common/hardware_sync/sync.c.obj
                0x10000530                spin_locks_reset
 .text.next_striped_spin_lock_num
                0x10000550       0x1c CMakeFiles/AHT20.dir/C_/VSARM/sdk/pico/pico-sdk/src/rp2_common/hardware_sync/sync.c.obj
                0x10000550                next_striped_spin_lock_num
 .text.spin_lock_claim_unused
                0x1000056c       0x24 CMakeFiles/AHT20.dir/C_/VSARM/sdk/pico/pico-sdk/src/rp2_common/hardware_sync/sync.c.obj
                0x1000056c                spin_lock_claim_unused
 .text.set_raw_irq_handler_and_unlock
                0x10000590       0x28 CMakeFiles/AHT20.dir/C_/VSARM/sdk/pico/pico-sdk/src/rp2_common/hardware_irq/irq.c.obj
 .text.resolve_branch
                0x100005b8       0x30 CMakeFiles/AHT20.dir/C_/VSARM/sdk/pico/pico-sdk/src/rp2_common/hardware_irq/irq.c.obj
 .text.make_branch
                0x100005e8       0x48 CMakeFiles/AHT20.dir/C_/VSARM/sdk/pico/pico-sdk/src/rp2_common/hardware_irq/irq.c.obj
 .text.insert_branch_and_link
                0x10000630       0x40 CMakeFiles/AHT20.dir/C_/VSARM/sdk/pico/pico-sdk/src/rp2_common/hardware_irq/irq.c.obj
 .text.irq_is_enabled
                0x10000670       0x18 CMakeFiles/AHT20.dir/C_/VSARM/sdk/pico/pico-sdk/src/rp2_common/hardware_irq/irq.c.obj
                0x10000670                irq_is_enabled
 .text.irq_set_mask_enabled
                0x10000688       0x20 CMakeFiles/AHT20.dir/C_/VSARM/sdk/pico/pico-sdk/src/rp2_common/hardware_irq/irq.c.obj
                0x10000688                irq_set_mask_enabled
 .text.irq_set_enabled
                0x100006a8        0xe CMakeFiles/AHT20.dir/C_/VSARM/sdk/pico/pico-sdk/src/rp2_common/hardware_irq/irq.c.obj
                0x100006a8                irq_set_enabled
 *fill*         0x100006b6        0x2 
 .text.irq_set_pending
                0x100006b8       0x10 CMakeFiles/AHT20.dir/C_/VSARM/sdk/pico/pico-sdk/src/rp2_common/hardware_irq/irq.c.obj
                0x100006b8                irq_set_pending
 .text.irq_get_vtable_handler
                0x100006c8       0x10 CMakeFiles/AHT20.dir/C_/VSARM/sdk/pico/pico-sdk/src/rp2_common/hardware_irq/irq.c.obj
                0x100006c8                irq_get_vtable_handler
 .text.irq_has_shared_handler
                0x100006d8       0x24 CMakeFiles/AHT20.dir/C_/VSARM/sdk/pico/pico-sdk/src/rp2_common/hardware_irq/irq.c.obj
                0x100006d8                irq_has_shared_handler
 .text.irq_set_exclusive_handler
                0x100006fc       0x54 CMakeFiles/AHT20.dir/C_/VSARM/sdk/pico/pico-sdk/src/rp2_common/hardware_irq/irq.c.obj
                0x100006fc                irq_set_exclusive_handler
 .text.irq_add_shared_handler
                0x10000750      0x210 CMakeFiles/AHT20.dir/C_/VSARM/sdk/pico/pico-sdk/src/rp2_common/hardware_irq/irq.c.obj
                0x10000750                irq_add_shared_handler
 .text.irq_remove_handler
                0x10000960      0x188 CMakeFiles/AHT20.dir/C_/VSARM/sdk/pico/pico-sdk/src/rp2_common/hardware_irq/irq.c.obj
                0x10000960                irq_remove_handler
 .text.irq_add_tail_to_free_list
                0x10000ae8       0xf0 CMakeFiles/AHT20.dir/C_/VSARM/sdk/pico/pico-sdk/src/rp2_common/hardware_irq/irq.c.obj
                0x10000ae8                irq_add_tail_to_free_list
 .text.irq_init_priorities
                0x10000bd8       0x1c CMakeFiles/AHT20.dir/C_/VSARM/sdk/pico/pico-sdk/src/rp2_common/hardware_irq/irq.c.obj
                0x10000bd8                irq_init_priorities
 .text.user_irq_claim_unused
                0x10000bf4       0x2c CMakeFiles/AHT20.dir/C_/VSARM/sdk/pico/pico-sdk/src/rp2_common/hardware_irq/irq.c.obj
                0x10000bf4                user_irq_claim_unused
 .text.lock_init
                0x10000c20       0x10 CMakeFiles/AHT20.dir/C_/VSARM/sdk/pico/pico-sdk/src/common/pico_sync/lock_core.c.obj
                0x10000c20                lock_init
 .text.update_us_since_boot
                0x10000c30       0x24 CMakeFiles/AHT20.dir/C_/VSARM/sdk/pico/pico-sdk/src/common/pico_sync/mutex.c.obj
 .text.delayed_by_ms
                0x10000c54       0x44 CMakeFiles/AHT20.dir/C_/VSARM/sdk/pico/pico-sdk/src/common/pico_sync/mutex.c.obj
 .text.get_absolute_time
                0x10000c98       0x22 CMakeFiles/AHT20.dir/C_/VSARM/sdk/pico/pico-sdk/src/common/pico_sync/mutex.c.obj
 .text.make_timeout_time_ms
                0x10000cba       0x20 CMakeFiles/AHT20.dir/C_/VSARM/sdk/pico/pico-sdk/src/common/pico_sync/mutex.c.obj
 .text.mutex_init
                0x10000cda       0x1a CMakeFiles/AHT20.dir/C_/VSARM/sdk/pico/pico-sdk/src/common/pico_sync/mutex.c.obj
                0x10000cda                mutex_init
 .text.recursive_mutex_init
                0x10000cf4       0x1e CMakeFiles/AHT20.dir/C_/VSARM/sdk/pico/pico-sdk/src/common/pico_sync/mutex.c.obj
                0x10000cf4                recursive_mutex_init
 *fill*         0x10000d12        0x2 
 .text.critical_section_init_with_lock_num
                0x10000d14       0x14 CMakeFiles/AHT20.dir/C_/VSARM/sdk/pico/pico-sdk/src/common/pico_sync/critical_section.c.obj
                0x10000d14                critical_section_init_with_lock_num
 .text.critical_section_init
                0x10000d28       0x14 CMakeFiles/AHT20.dir/C_/VSARM/sdk/pico/pico-sdk/src/common/pico_sync/critical_section.c.obj
                0x10000d28                critical_section_init
 .text.time_reached
                0x10000d3c       0x28 CMakeFiles/AHT20.dir/C_/VSARM/sdk/pico/pico-sdk/src/common/pico_time/time.c.obj
 .text.get_entry
                0x10000d64       0x38 CMakeFiles/AHT20.dir/C_/VSARM/sdk/pico/pico-sdk/src/common/pico_time/time.c.obj
 .text.timer_pool_entry_comparator
                0x10000d9c       0x2e CMakeFiles/AHT20.dir/C_/VSARM/sdk/pico/pico-sdk/src/common/pico_time/time.c.obj
                0x10000d9c                timer_pool_entry_comparator
 *fill*         0x10000dca        0x2 
 .text.update_us_since_boot
                0x10000dcc       0x24 CMakeFiles/AHT20.dir/C_/VSARM/sdk/pico/pico-sdk/src/common/pico_time/time.c.obj
 .text.delayed_by_us
                0x10000df0       0x34 CMakeFiles/AHT20.dir/C_/VSARM/sdk/pico/pico-sdk/src/common/pico_time/time.c.obj
 .text.ph_get_node
                0x10000e24       0x30 CMakeFiles/AHT20.dir/C_/VSARM/sdk/pico/pico-sdk/src/common/pico_time/time.c.obj
 .text.ph_contains_node
                0x10000e54       0x1e CMakeFiles/AHT20.dir/C_/VSARM/sdk/pico/pico-sdk/src/common/pico_time/time.c.obj
 .text.ph_new_node
                0x10000e72       0x28 CMakeFiles/AHT20.dir/C_/VSARM/sdk/pico/pico-sdk/src/common/pico_time/time.c.obj
 *fill*         0x10000e9a        0x2 
 .text.ph_add_child_node
                0x10000e9c       0x6c CMakeFiles/AHT20.dir/C_/VSARM/sdk/pico/pico-sdk/src/common/pico_time/time.c.obj
 .text.ph_merge_nodes
                0x10000f08       0x3e CMakeFiles/AHT20.dir/C_/VSARM/sdk/pico/pico-sdk/src/common/pico_time/time.c.obj
 *fill*         0x10000f46        0x2 
 .text.ph_insert_node
                0x10000f48       0x3c CMakeFiles/AHT20.dir/C_/VSARM/sdk/pico/pico-sdk/src/common/pico_time/time.c.obj
 .text.ph_free_node
                0x10000f84       0x5c CMakeFiles/AHT20.dir/C_/VSARM/sdk/pico/pico-sdk/src/common/pico_time/time.c.obj
 .text.get_entry_id_high
                0x10000fe0       0x30 CMakeFiles/AHT20.dir/C_/VSARM/sdk/pico/pico-sdk/src/common/pico_time/time.c.obj
 .text.alarm_pool_post_alloc_init
                0x10001010       0x40 CMakeFiles/AHT20.dir/C_/VSARM/sdk/pico/pico-sdk/src/common/pico_time/time.c.obj
 .text.sleep_until_callback
                0x10001050       0x30 CMakeFiles/AHT20.dir/C_/VSARM/sdk/pico/pico-sdk/src/common/pico_time/time.c.obj
 .text.get_absolute_time
                0x10001080       0x22 CMakeFiles/AHT20.dir/C_/VSARM/sdk/pico/pico-sdk/src/common/pico_time/time.c.obj
 .text.make_timeout_time_us
                0x100010a2       0x24 CMakeFiles/AHT20.dir/C_/VSARM/sdk/pico/pico-sdk/src/common/pico_time/time.c.obj
 *fill*         0x100010c6        0x2 
 .text.add_alarm_under_lock
                0x100010c8       0x94 CMakeFiles/AHT20.dir/C_/VSARM/sdk/pico/pico-sdk/src/common/pico_time/time.c.obj
 .text.alarm_pool_alarm_callback
                0x1000115c      0x210 CMakeFiles/AHT20.dir/C_/VSARM/sdk/pico/pico-sdk/src/common/pico_time/time.c.obj
 .text.alarm_pool_init_default
                0x1000136c       0x40 CMakeFiles/AHT20.dir/C_/VSARM/sdk/pico/pico-sdk/src/common/pico_time/time.c.obj
                0x1000136c                alarm_pool_init_default
 .text.alarm_pool_get_default
                0x100013ac       0x2c CMakeFiles/AHT20.dir/C_/VSARM/sdk/pico/pico-sdk/src/common/pico_time/time.c.obj
                0x100013ac                alarm_pool_get_default
 .text.alarm_pool_add_alarm_at
                0x100013d8      0x10e CMakeFiles/AHT20.dir/C_/VSARM/sdk/pico/pico-sdk/src/common/pico_time/time.c.obj
                0x100013d8                alarm_pool_add_alarm_at
 .text.add_alarm_at
                0x100014e6       0x2e CMakeFiles/AHT20.dir/C_/VSARM/sdk/pico/pico-sdk/src/common/pico_time/time.c.obj
 .text.alarm_pool_cancel_alarm
                0x10001514       0xa8 CMakeFiles/AHT20.dir/C_/VSARM/sdk/pico/pico-sdk/src/common/pico_time/time.c.obj
                0x10001514                alarm_pool_cancel_alarm
 .text.cancel_alarm
                0x100015bc       0x10 CMakeFiles/AHT20.dir/C_/VSARM/sdk/pico/pico-sdk/src/common/pico_time/time.c.obj
 .text.alarm_pool_core_num
                0x100015cc        0x4 CMakeFiles/AHT20.dir/C_/VSARM/sdk/pico/pico-sdk/src/common/pico_time/time.c.obj
                0x100015cc                alarm_pool_core_num
 .text.sleep_until
                0x100015d0       0xb0 CMakeFiles/AHT20.dir/C_/VSARM/sdk/pico/pico-sdk/src/common/pico_time/time.c.obj
                0x100015d0                sleep_until
 .text.sleep_us
                0x10001680       0x1a CMakeFiles/AHT20.dir/C_/VSARM/sdk/pico/pico-sdk/src/common/pico_time/time.c.obj
                0x10001680                sleep_us
 .text.sleep_ms
                0x1000169a       0x14 CMakeFiles/AHT20.dir/C_/VSARM/sdk/pico/pico-sdk/src/common/pico_time/time.c.obj
                0x1000169a                sleep_ms
 *fill*         0x100016ae        0x2 
 .text.best_effort_wfe_or_timeout
                0x100016b0       0x44 CMakeFiles/AHT20.dir/C_/VSARM/sdk/pico/pico-sdk/src/common/pico_time/time.c.obj
                0x100016b0                best_effort_wfe_or_timeout
 .text.hardware_alarm_irq_handler
                0x100016f4       0x8c CMakeFiles/AHT20.dir/C_/VSARM/sdk/pico/pico-sdk/src/rp2_common/hardware_timer/timer.c.obj
 .text.hardware_alarm_claim
                0x10001780       0x18 CMakeFiles/AHT20.dir/C_/VSARM/sdk/pico/pico-sdk/src/rp2_common/hardware_timer/timer.c.obj
                0x10001780                hardware_alarm_claim
 .text.time_us_64
                0x10001798       0x18 CMakeFiles/AHT20.dir/C_/VSARM/sdk/pico/pico-sdk/src/rp2_common/hardware_timer/timer.c.obj
                0x10001798                time_us_64
 .text.busy_wait_until
                0x100017b0       0x28 CMakeFiles/AHT20.dir/C_/VSARM/sdk/pico/pico-sdk/src/rp2_common/hardware_timer/timer.c.obj
                0x100017b0                busy_wait_until
 .text.hardware_alarm_set_callback
                0x100017d8       0x90 CMakeFiles/AHT20.dir/C_/VSARM/sdk/pico/pico-sdk/src/rp2_common/hardware_timer/timer.c.obj
                0x100017d8                hardware_alarm_set_callback
 .text.hardware_alarm_set_target
                0x10001868       0xe8 CMakeFiles/AHT20.dir/C_/VSARM/sdk/pico/pico-sdk/src/rp2_common/hardware_timer/timer.c.obj
                0x10001868                hardware_alarm_set_target
 .text.hardware_alarm_cancel
                0x10001950       0x40 CMakeFiles/AHT20.dir/C_/VSARM/sdk/pico/pico-sdk/src/rp2_common/hardware_timer/timer.c.obj
                0x10001950                hardware_alarm_cancel
 .text.ph_get_node
                0x10001990       0x30 CMakeFiles/AHT20.dir/C_/VSARM/sdk/pico/pico-sdk/src/common/pico_util/pheap.c.obj
 .text.ph_add_child_node
                0x100019c0       0x6c CMakeFiles/AHT20.dir/C_/VSARM/sdk/pico/pico-sdk/src/common/pico_util/pheap.c.obj
 .text.ph_merge_nodes
                0x10001a2c       0x3e CMakeFiles/AHT20.dir/C_/VSARM/sdk/pico/pico-sdk/src/common/pico_util/pheap.c.obj
 .text.ph_clear
                0x10001a6a       0x34 CMakeFiles/AHT20.dir/C_/VSARM/sdk/pico/pico-sdk/src/common/pico_util/pheap.c.obj
                0x10001a6a                ph_clear
 .text.ph_post_alloc_init
                0x10001a9e        0xe CMakeFiles/AHT20.dir/C_/VSARM/sdk/pico/pico-sdk/src/common/pico_util/pheap.c.obj
                0x10001a9e                ph_post_alloc_init
 .text.ph_merge_two_pass
                0x10001aac       0x5c CMakeFiles/AHT20.dir/C_/VSARM/sdk/pico/pico-sdk/src/common/pico_util/pheap.c.obj
                0x10001aac                ph_merge_two_pass
 .text.ph_remove_any_head
                0x10001b08       0xc0 CMakeFiles/AHT20.dir/C_/VSARM/sdk/pico/pico-sdk/src/common/pico_util/pheap.c.obj
 .text.ph_remove_head
                0x10001bc8       0x14 CMakeFiles/AHT20.dir/C_/VSARM/sdk/pico/pico-sdk/src/common/pico_util/pheap.c.obj
                0x10001bc8                ph_remove_head
 .text.ph_remove_and_free_node
                0x10001bdc       0xa0 CMakeFiles/AHT20.dir/C_/VSARM/sdk/pico/pico-sdk/src/common/pico_util/pheap.c.obj
                0x10001bdc                ph_remove_and_free_node
 .text.clock_configure
                0x10001c7c      0x108 CMakeFiles/AHT20.dir/C_/VSARM/sdk/pico/pico-sdk/src/rp2_common/hardware_clocks/clocks.c.obj
                0x10001c7c                clock_configure
 .text.clocks_init
                0x10001d84      0x100 CMakeFiles/AHT20.dir/C_/VSARM/sdk/pico/pico-sdk/src/rp2_common/hardware_clocks/clocks.c.obj
                0x10001d84                clocks_init
 .text.pll_init
                0x10001e84      0x120 CMakeFiles/AHT20.dir/C_/VSARM/sdk/pico/pico-sdk/src/rp2_common/hardware_pll/pll.c.obj
                0x10001e84                pll_init
 .text.watchdog_start_tick
                0x10001fa4       0x10 CMakeFiles/AHT20.dir/C_/VSARM/sdk/pico/pico-sdk/src/rp2_common/hardware_watchdog/watchdog.c.obj
                0x10001fa4                watchdog_start_tick
 .text.watchdog_update
                0x10001fb4       0x14 CMakeFiles/AHT20.dir/C_/VSARM/sdk/pico/pico-sdk/src/rp2_common/hardware_watchdog/watchdog.c.obj
                0x10001fb4                watchdog_update
 .text._watchdog_enable
                0x10001fc8       0x78 CMakeFiles/AHT20.dir/C_/VSARM/sdk/pico/pico-sdk/src/rp2_common/hardware_watchdog/watchdog.c.obj
                0x10001fc8                _watchdog_enable
 .text.watchdog_reboot
                0x10002040       0x48 CMakeFiles/AHT20.dir/C_/VSARM/sdk/pico/pico-sdk/src/rp2_common/hardware_watchdog/watchdog.c.obj
                0x10002040                watchdog_reboot
 .text.xosc_init
                0x10002088       0x28 CMakeFiles/AHT20.dir/C_/VSARM/sdk/pico/pico-sdk/src/rp2_common/hardware_xosc/xosc.c.obj
                0x10002088                xosc_init
 .text._exit    0x100020b0        0x4 CMakeFiles/AHT20.dir/C_/VSARM/sdk/pico/pico-sdk/src/rp2_common/pico_runtime/runtime.c.obj
                0x100020b0                _exit
 .text.exit     0x100020b4        0x6 CMakeFiles/AHT20.dir/C_/VSARM/sdk/pico/pico-sdk/src/rp2_common/pico_runtime/runtime.c.obj
                0x100020b4                exit
 *fill*         0x100020ba        0x2 
 .text.__assert_func
                0x100020bc       0x38 CMakeFiles/AHT20.dir/C_/VSARM/sdk/pico/pico-sdk/src/rp2_common/pico_runtime/runtime.c.obj
                0x100020bc                __assert_func
 .text.runtime_init
                0x100020f4       0xf8 CMakeFiles/AHT20.dir/C_/VSARM/sdk/pico/pico-sdk/src/rp2_common/pico_runtime/runtime.c.obj
                0x100020f4                runtime_init
 .text.panic    0x100021ec       0x30 CMakeFiles/AHT20.dir/C_/VSARM/sdk/pico/pico-sdk/src/rp2_common/pico_runtime/runtime.c.obj
                0x100021ec                panic
 .text._out_null
                0x1000221c        0x2 CMakeFiles/AHT20.dir/C_/VSARM/sdk/pico/pico-sdk/src/rp2_common/pico_printf/printf.c.obj
 .text._out_fct
                0x1000221e        0xe CMakeFiles/AHT20.dir/C_/VSARM/sdk/pico/pico-sdk/src/rp2_common/pico_printf/printf.c.obj
 .text._atoi    0x1000222c       0x24 CMakeFiles/AHT20.dir/C_/VSARM/sdk/pico/pico-sdk/src/rp2_common/pico_printf/printf.c.obj
 .text._out_rev
                0x10002250       0xae CMakeFiles/AHT20.dir/C_/VSARM/sdk/pico/pico-sdk/src/rp2_common/pico_printf/printf.c.obj
 .text._ntoa_format
                0x100022fe      0x110 CMakeFiles/AHT20.dir/C_/VSARM/sdk/pico/pico-sdk/src/rp2_common/pico_printf/printf.c.obj
 .text._ntoa_long
                0x1000240e       0xbc CMakeFiles/AHT20.dir/C_/VSARM/sdk/pico/pico-sdk/src/rp2_common/pico_printf/printf.c.obj
 .text._ntoa_long_long
                0x100024ca      0x10e CMakeFiles/AHT20.dir/C_/VSARM/sdk/pico/pico-sdk/src/rp2_common/pico_printf/printf.c.obj
 .text._etoa    0x100025d8      0x420 CMakeFiles/AHT20.dir/C_/VSARM/sdk/pico/pico-sdk/src/rp2_common/pico_printf/printf.c.obj
 .text._ftoa    0x100029f8      0x354 CMakeFiles/AHT20.dir/C_/VSARM/sdk/pico/pico-sdk/src/rp2_common/pico_printf/printf.c.obj
 .text._vsnprintf
                0x10002d4c      0x65c CMakeFiles/AHT20.dir/C_/VSARM/sdk/pico/pico-sdk/src/rp2_common/pico_printf/printf.c.obj
 .text.vfctprintf
                0x100033a8       0x20 CMakeFiles/AHT20.dir/C_/VSARM/sdk/pico/pico-sdk/src/rp2_common/pico_printf/printf.c.obj
                0x100033a8                vfctprintf
 .text          0x100033c8       0x10 CMakeFiles/AHT20.dir/C_/VSARM/sdk/pico/pico-sdk/src/rp2_common/pico_bit_ops/bit_ops_aeabi.S.obj
 .text.rom_func_lookup
                0x100033d8       0x10 CMakeFiles/AHT20.dir/C_/VSARM/sdk/pico/pico-sdk/src/rp2_common/pico_bootrom/bootrom.c.obj
                0x100033d8                rom_func_lookup
 .text.rom_data_lookup
                0x100033e8       0x10 CMakeFiles/AHT20.dir/C_/VSARM/sdk/pico/pico-sdk/src/rp2_common/pico_bootrom/bootrom.c.obj
                0x100033e8                rom_data_lookup
 .text.rom_funcs_lookup
                0x100033f8       0x36 CMakeFiles/AHT20.dir/C_/VSARM/sdk/pico/pico-sdk/src/rp2_common/pico_bootrom/bootrom.c.obj
                0x100033f8                rom_funcs_lookup
 *fill*         0x1000342e        0x2 
 .text.__wrap___aeabi_idiv
                0x10003430       0x50 CMakeFiles/AHT20.dir/C_/VSARM/sdk/pico/pico-sdk/src/rp2_common/pico_divider/divider.S.obj
                0x10003430                __wrap___aeabi_idivmod
                0x10003430                divmod_s32s32
                0x10003430                div_s32s32
                0x10003430                __wrap___aeabi_idiv
                0x10003438                divmod_s32s32_unsafe
                0x10003464                divmod_s32s32_savestate
 .text.__wrap___aeabi_uidiv
                0x10003480       0x4c CMakeFiles/AHT20.dir/C_/VSARM/sdk/pico/pico-sdk/src/rp2_common/pico_divider/divider.S.obj
                0x10003480                __wrap___aeabi_uidiv
                0x10003480                __wrap___aeabi_uidivmod
                0x10003480                div_u32u32
                0x10003480                divmod_u32u32
                0x10003488                divmod_u32u32_unsafe
                0x100034b0                divmod_u32u32_savestate
 .text.__wrap___aeabi_ldiv
                0x100034cc      0x424 CMakeFiles/AHT20.dir/C_/VSARM/sdk/pico/pico-sdk/src/rp2_common/pico_divider/divider.S.obj
                0x100034cc                div_s64s64
                0x100034cc                divmod_s64s64
                0x100034cc                __wrap___aeabi_ldivmod
                0x100034fc                divmod_u64u64
                0x100034fc                div_u64u64
                0x100034fc                __wrap___aeabi_uldivmod
                0x1000350c                divmod_u64u64_savestate
                0x1000352c                divmod_s64s64_unsafe
                0x100035b4                divmod_u64u64_unsafe
 .text.__wrap___aeabi_darithmetic
                0x100038f0       0x60 CMakeFiles/AHT20.dir/C_/VSARM/sdk/pico/pico-sdk/src/rp2_common/pico_double/double_aeabi.S.obj
                0x100038f0                __wrap___aeabi_drsub
                0x100038f6                __wrap___aeabi_dsub
                0x10003900                __wrap___aeabi_dadd
                0x1000390a                __wrap___aeabi_ddiv
                0x1000393e                __wrap___aeabi_dmul
 .text.__wrap___aeabi_cdcmple
                0x10003950       0x6c CMakeFiles/AHT20.dir/C_/VSARM/sdk/pico/pico-sdk/src/rp2_common/pico_double/double_aeabi.S.obj
                0x10003950                __wrap___aeabi_cdrcmple
                0x10003960                __wrap___aeabi_cdcmpeq
                0x10003960                __wrap___aeabi_cdcmple
 .text.__wrap___aeabi_dcmplt
                0x100039bc        0xc CMakeFiles/AHT20.dir/C_/VSARM/sdk/pico/pico-sdk/src/rp2_common/pico_double/double_aeabi.S.obj
                0x100039bc                __wrap___aeabi_dcmplt
 .text.__wrap___aeabi_dcmple
                0x100039c8       0x10 CMakeFiles/AHT20.dir/C_/VSARM/sdk/pico/pico-sdk/src/rp2_common/pico_double/double_aeabi.S.obj
                0x100039c8                __wrap___aeabi_dcmple
 .text.__wrap___aeabi_dcmpge
                0x100039d8       0x10 CMakeFiles/AHT20.dir/C_/VSARM/sdk/pico/pico-sdk/src/rp2_common/pico_double/double_aeabi.S.obj
                0x100039d8                __wrap___aeabi_dcmpge
 .text.__wrap___aeabi_dcmpgt
                0x100039e8        0xa CMakeFiles/AHT20.dir/C_/VSARM/sdk/pico/pico-sdk/src/rp2_common/pico_double/double_aeabi.S.obj
                0x100039e8                __wrap___aeabi_dcmpgt
 .text.__wrap___aeabi_dcmpun
                0x100039f2       0x1c CMakeFiles/AHT20.dir/C_/VSARM/sdk/pico/pico-sdk/src/rp2_common/pico_double/double_aeabi.S.obj
                0x100039f2                __wrap___aeabi_dcmpun
 *fill*         0x10003a0e        0x2 
 .text.__wrap___aeabi_i2d
                0x10003a10       0x38 CMakeFiles/AHT20.dir/C_/VSARM/sdk/pico/pico-sdk/src/rp2_common/pico_double/double_aeabi.S.obj
                0x10003a10                __wrap___aeabi_ui2d
                0x10003a18                __wrap___aeabi_i2d
 .text.__wrap___aeabi_d2iz
                0x10003a48       0x48 CMakeFiles/AHT20.dir/C_/VSARM/sdk/pico/pico-sdk/src/rp2_common/pico_double/double_aeabi.S.obj
                0x10003a48                double2int_z
                0x10003a48                __wrap___aeabi_d2iz
 .text.__wrap___aeabi_d2uiz
                0x10003a90       0x10 CMakeFiles/AHT20.dir/C_/VSARM/sdk/pico/pico-sdk/src/rp2_common/pico_double/double_aeabi.S.obj
                0x10003a90                __wrap___aeabi_d2uiz
                0x10003a90                double2uint
 .text.missing_double_func_shim
                0x10003aa0        0xc CMakeFiles/AHT20.dir/C_/VSARM/sdk/pico/pico-sdk/src/rp2_common/pico_double/double_init_rom.c.obj
 .text.__aeabi_double_init
                0x10003aac       0xd0 CMakeFiles/AHT20.dir/C_/VSARM/sdk/pico/pico-sdk/src/rp2_common/pico_double/double_init_rom.c.obj
                0x10003aac                __aeabi_double_init
 .text.double_table_shim_on_use_helper
                0x10003b7c       0x34 CMakeFiles/AHT20.dir/C_/VSARM/sdk/pico/pico-sdk/src/rp2_common/pico_double/double_v1_rom_shim.S.obj
                0x10003b7c                double_table_shim_on_use_helper
 .text.__aeabi_lmul
                0x10003bb0       0x32 CMakeFiles/AHT20.dir/C_/VSARM/sdk/pico/pico-sdk/src/rp2_common/pico_int64_ops/pico_int64_ops_aeabi.S.obj
                0x10003bb0                __wrap___aeabi_lmul
 *fill*         0x10003be2        0x2 
 .text.missing_float_func_shim
                0x10003be4        0xc CMakeFiles/AHT20.dir/C_/VSARM/sdk/pico/pico-sdk/src/rp2_common/pico_float/float_init_rom.c.obj
 .text.__aeabi_float_init
                0x10003bf0       0x88 CMakeFiles/AHT20.dir/C_/VSARM/sdk/pico/pico-sdk/src/rp2_common/pico_float/float_init_rom.c.obj
                0x10003bf0                __aeabi_float_init
 .text          0x10003c78       0x10 CMakeFiles/AHT20.dir/C_/VSARM/sdk/pico/pico-sdk/src/rp2_common/pico_mem_ops/mem_ops_aeabi.S.obj
                0x10003c78                __aeabi_mem_init
 .text.memset   0x10003c88        0xc CMakeFiles/AHT20.dir/C_/VSARM/sdk/pico/pico-sdk/src/rp2_common/pico_mem_ops/mem_ops_aeabi.S.obj
                0x10003c88                __wrap_memset
 .text.memcpy   0x10003c94        0xc CMakeFiles/AHT20.dir/C_/VSARM/sdk/pico/pico-sdk/src/rp2_common/pico_mem_ops/mem_ops_aeabi.S.obj
                0x10003c94                __wrap_memcpy
                0x10003c94                __wrap___aeabi_memcpy
 .text.stdio_out_chars_no_crlf
                0x10003ca0        0xe CMakeFiles/AHT20.dir/C_/VSARM/sdk/pico/pico-sdk/src/rp2_common/pico_stdio/stdio.c.obj
 *fill*         0x10003cae        0x2 
 .text.stdio_out_chars_crlf
                0x10003cb0       0x80 CMakeFiles/AHT20.dir/C_/VSARM/sdk/pico/pico-sdk/src/rp2_common/pico_stdio/stdio.c.obj
 .text.stdio_stack_buffer_flush
                0x10003d30       0x44 CMakeFiles/AHT20.dir/C_/VSARM/sdk/pico/pico-sdk/src/rp2_common/pico_stdio/stdio.c.obj
 .text.stdio_buffered_printer
                0x10003d74       0x20 CMakeFiles/AHT20.dir/C_/VSARM/sdk/pico/pico-sdk/src/rp2_common/pico_stdio/stdio.c.obj
 .text.update_us_since_boot
                0x10003d94       0x24 CMakeFiles/AHT20.dir/C_/VSARM/sdk/pico/pico-sdk/src/rp2_common/pico_stdio/stdio.c.obj
 .text.get_absolute_time
                0x10003db8       0x22 CMakeFiles/AHT20.dir/C_/VSARM/sdk/pico/pico-sdk/src/rp2_common/pico_stdio/stdio.c.obj
 *fill*         0x10003dda        0x2 
 .text.delayed_by_ms
                0x10003ddc       0x44 CMakeFiles/AHT20.dir/C_/VSARM/sdk/pico/pico-sdk/src/rp2_common/pico_stdio/stdio.c.obj
 .text.make_timeout_time_ms
                0x10003e20       0x20 CMakeFiles/AHT20.dir/C_/VSARM/sdk/pico/pico-sdk/src/rp2_common/pico_stdio/stdio.c.obj
 .text.stdout_serialize_begin
                0x10003e40       0x20 CMakeFiles/AHT20.dir/C_/VSARM/sdk/pico/pico-sdk/src/rp2_common/pico_stdio/stdio.c.obj
                0x10003e40                stdout_serialize_begin
 .text.stdout_serialize_end
                0x10003e60       0x10 CMakeFiles/AHT20.dir/C_/VSARM/sdk/pico/pico-sdk/src/rp2_common/pico_stdio/stdio.c.obj
                0x10003e60                stdout_serialize_end
 .text.stdio_put_string
                0x10003e70       0x98 CMakeFiles/AHT20.dir/C_/VSARM/sdk/pico/pico-sdk/src/rp2_common/pico_stdio/stdio.c.obj
 .text.stdio_set_driver_enabled
                0x10003f08       0x2c CMakeFiles/AHT20.dir/C_/VSARM/sdk/pico/pico-sdk/src/rp2_common/pico_stdio/stdio.c.obj
                0x10003f08                stdio_set_driver_enabled
 .text.stdio_flush
                0x10003f34       0x20 CMakeFiles/AHT20.dir/C_/VSARM/sdk/pico/pico-sdk/src/rp2_common/pico_stdio/stdio.c.obj
                0x10003f34                stdio_flush
 .text.__wrap_puts
                0x10003f54       0x1e CMakeFiles/AHT20.dir/C_/VSARM/sdk/pico/pico-sdk/src/rp2_common/pico_stdio/stdio.c.obj
                0x10003f54                __wrap_puts
 *fill*         0x10003f72        0x2 
 .text.__wrap_vprintf
                0x10003f74       0x40 CMakeFiles/AHT20.dir/C_/VSARM/sdk/pico/pico-sdk/src/rp2_common/pico_stdio/stdio.c.obj
                0x10003f74                __wrap_vprintf
 .text.__wrap_printf
                0x10003fb4       0x18 CMakeFiles/AHT20.dir/C_/VSARM/sdk/pico/pico-sdk/src/rp2_common/pico_stdio/stdio.c.obj
                0x10003fb4                __wrap_printf
 .text.stdio_init_all
                0x10003fcc        0x8 CMakeFiles/AHT20.dir/C_/VSARM/sdk/pico/pico-sdk/src/rp2_common/pico_stdio/stdio.c.obj
                0x10003fcc                stdio_init_all
 .text.resetd_init
                0x10003fd4        0x2 CMakeFiles/AHT20.dir/C_/VSARM/sdk/pico/pico-sdk/src/rp2_common/pico_stdio_usb/reset_interface.c.obj
 *fill*         0x10003fd6        0x2 
 .text.resetd_reset
                0x10003fd8        0xc CMakeFiles/AHT20.dir/C_/VSARM/sdk/pico/pico-sdk/src/rp2_common/pico_stdio_usb/reset_interface.c.obj
 .text.resetd_open
                0x10003fe4       0x34 CMakeFiles/AHT20.dir/C_/VSARM/sdk/pico/pico-sdk/src/rp2_common/pico_stdio_usb/reset_interface.c.obj
 .text.resetd_xfer_cb
                0x10004018        0x4 CMakeFiles/AHT20.dir/C_/VSARM/sdk/pico/pico-sdk/src/rp2_common/pico_stdio_usb/reset_interface.c.obj
 .text.reset_usb_boot
                0x1000401c       0x18 CMakeFiles/AHT20.dir/C_/VSARM/sdk/pico/pico-sdk/src/rp2_common/pico_stdio_usb/reset_interface.c.obj
 .text.resetd_control_xfer_cb
                0x10004034       0x5c CMakeFiles/AHT20.dir/C_/VSARM/sdk/pico/pico-sdk/src/rp2_common/pico_stdio_usb/reset_interface.c.obj
 .text.usbd_app_driver_get_cb
                0x10004090        0xc CMakeFiles/AHT20.dir/C_/VSARM/sdk/pico/pico-sdk/src/rp2_common/pico_stdio_usb/reset_interface.c.obj
                0x10004090                usbd_app_driver_get_cb
 .text.tud_cdc_line_coding_cb
                0x1000409c       0x28 CMakeFiles/AHT20.dir/C_/VSARM/sdk/pico/pico-sdk/src/rp2_common/pico_stdio_usb/reset_interface.c.obj
                0x1000409c                tud_cdc_line_coding_cb
 .text.stdio_usb_set_chars_available_callback
                0x100040c4       0x14 CMakeFiles/AHT20.dir/C_/VSARM/sdk/pico/pico-sdk/src/rp2_common/pico_stdio_usb/stdio_usb.c.obj
                0x100040c4                stdio_usb_set_chars_available_callback
 .text.update_us_since_boot
                0x100040d8       0x24 CMakeFiles/AHT20.dir/C_/VSARM/sdk/pico/pico-sdk/src/rp2_common/pico_stdio_usb/stdio_usb.c.obj
 .text.get_absolute_time
                0x100040fc       0x22 CMakeFiles/AHT20.dir/C_/VSARM/sdk/pico/pico-sdk/src/rp2_common/pico_stdio_usb/stdio_usb.c.obj
 *fill*         0x1000411e        0x2 
 .text.delayed_by_ms
                0x10004120       0x44 CMakeFiles/AHT20.dir/C_/VSARM/sdk/pico/pico-sdk/src/rp2_common/pico_stdio_usb/stdio_usb.c.obj
 .text.make_timeout_time_ms
                0x10004164       0x20 CMakeFiles/AHT20.dir/C_/VSARM/sdk/pico/pico-sdk/src/rp2_common/pico_stdio_usb/stdio_usb.c.obj
 .text.delayed_by_us
                0x10004184       0x34 CMakeFiles/AHT20.dir/C_/VSARM/sdk/pico/pico-sdk/src/rp2_common/pico_stdio_usb/stdio_usb.c.obj
 .text.usb_irq  0x100041b8       0x10 CMakeFiles/AHT20.dir/C_/VSARM/sdk/pico/pico-sdk/src/rp2_common/pico_stdio_usb/stdio_usb.c.obj
 .text.critical_section_enter_blocking
                0x100041c8       0x16 CMakeFiles/AHT20.dir/C_/VSARM/sdk/pico/pico-sdk/src/rp2_common/pico_stdio_usb/stdio_usb.c.obj
 *fill*         0x100041de        0x2 
 .text.timer_task
                0x100041e0       0x4c CMakeFiles/AHT20.dir/C_/VSARM/sdk/pico/pico-sdk/src/rp2_common/pico_stdio_usb/stdio_usb.c.obj
 .text.alarm_pool_add_alarm_in_us
                0x1000422c       0x3a CMakeFiles/AHT20.dir/C_/VSARM/sdk/pico/pico-sdk/src/rp2_common/pico_stdio_usb/stdio_usb.c.obj
 .text.add_alarm_in_us
                0x10004266       0x2e CMakeFiles/AHT20.dir/C_/VSARM/sdk/pico/pico-sdk/src/rp2_common/pico_stdio_usb/stdio_usb.c.obj
 .text.low_priority_worker_irq
                0x10004294       0x7c CMakeFiles/AHT20.dir/C_/VSARM/sdk/pico/pico-sdk/src/rp2_common/pico_stdio_usb/stdio_usb.c.obj
 .text.tud_cdc_rx_cb
                0x10004310       0x20 CMakeFiles/AHT20.dir/C_/VSARM/sdk/pico/pico-sdk/src/rp2_common/pico_stdio_usb/stdio_usb.c.obj
                0x10004310                tud_cdc_rx_cb
 .text.stdio_usb_init
                0x10004330       0xd0 CMakeFiles/AHT20.dir/C_/VSARM/sdk/pico/pico-sdk/src/rp2_common/pico_stdio_usb/stdio_usb.c.obj
                0x10004330                stdio_usb_init
 .text.stdio_usb_connected
                0x10004400        0xa CMakeFiles/AHT20.dir/C_/VSARM/sdk/pico/pico-sdk/src/rp2_common/pico_stdio_usb/stdio_usb.c.obj
                0x10004400                stdio_usb_connected
 *fill*         0x1000440a        0x2 
 .text.stdio_usb_in_chars
                0x1000440c       0x88 CMakeFiles/AHT20.dir/C_/VSARM/sdk/pico/pico-sdk/src/rp2_common/pico_stdio_usb/stdio_usb.c.obj
                0x1000440c                stdio_usb_in_chars
 .text.stdio_usb_out_chars
                0x10004494       0xd8 CMakeFiles/AHT20.dir/C_/VSARM/sdk/pico/pico-sdk/src/rp2_common/pico_stdio_usb/stdio_usb.c.obj
 .text.tud_descriptor_device_cb
                0x1000456c        0x8 CMakeFiles/AHT20.dir/C_/VSARM/sdk/pico/pico-sdk/src/rp2_common/pico_stdio_usb/stdio_usb_descriptors.c.obj
                0x1000456c                tud_descriptor_device_cb
 .text.tud_descriptor_configuration_cb
                0x10004574        0x8 CMakeFiles/AHT20.dir/C_/VSARM/sdk/pico/pico-sdk/src/rp2_common/pico_stdio_usb/stdio_usb_descriptors.c.obj
                0x10004574                tud_descriptor_configuration_cb
 .text.tud_descriptor_string_cb
                0x1000457c       0x6c CMakeFiles/AHT20.dir/C_/VSARM/sdk/pico/pico-sdk/src/rp2_common/pico_stdio_usb/stdio_usb_descriptors.c.obj
                0x1000457c                tud_descriptor_string_cb
 .text._retrieve_unique_id_on_boot
                0x100045e8       0x10 CMakeFiles/AHT20.dir/C_/VSARM/sdk/pico/pico-sdk/src/rp2_common/pico_unique_id/unique_id.c.obj
 .text.pico_get_unique_board_id_string
                0x100045f8       0x5c CMakeFiles/AHT20.dir/C_/VSARM/sdk/pico/pico-sdk/src/rp2_common/pico_unique_id/unique_id.c.obj
                0x100045f8                pico_get_unique_board_id_string
 .text.flash_get_unique_id
                0x10004654       0x46 CMakeFiles/AHT20.dir/C_/VSARM/sdk/pico/pico-sdk/src/rp2_common/hardware_flash/flash.c.obj
                0x10004654                flash_get_unique_id
 *fill*         0x1000469a        0x2 
 .text.hw_endpoint_get_by_addr
                0x1000469c       0x18 CMakeFiles/AHT20.dir/C_/VSARM/sdk/pico/pico-sdk/lib/tinyusb/src/portable/raspberrypi/rp2040/dcd_rp2040.c.obj
 .text._hw_endpoint_alloc
                0x100046b4       0x70 CMakeFiles/AHT20.dir/C_/VSARM/sdk/pico/pico-sdk/lib/tinyusb/src/portable/raspberrypi/rp2040/dcd_rp2040.c.obj
 .text.hw_endpoint_init
                0x10004724       0x88 CMakeFiles/AHT20.dir/C_/VSARM/sdk/pico/pico-sdk/lib/tinyusb/src/portable/raspberrypi/rp2040/dcd_rp2040.c.obj
 .text.dcd_event_sof
                0x100047ac       0x2c CMakeFiles/AHT20.dir/C_/VSARM/sdk/pico/pico-sdk/lib/tinyusb/src/portable/raspberrypi/rp2040/dcd_rp2040.c.obj
 .text.hw_endpoint_xfer
                0x100047d8       0x14 CMakeFiles/AHT20.dir/C_/VSARM/sdk/pico/pico-sdk/lib/tinyusb/src/portable/raspberrypi/rp2040/dcd_rp2040.c.obj
 .text.dcd_int_enable
                0x100047ec       0x2c CMakeFiles/AHT20.dir/C_/VSARM/sdk/pico/pico-sdk/lib/tinyusb/src/portable/raspberrypi/rp2040/dcd_rp2040.c.obj
                0x100047ec                dcd_int_enable
 .text.dcd_set_address
                0x10004818       0x2c CMakeFiles/AHT20.dir/C_/VSARM/sdk/pico/pico-sdk/lib/tinyusb/src/portable/raspberrypi/rp2040/dcd_rp2040.c.obj
                0x10004818                dcd_set_address
 .text.dcd_connect
                0x10004844       0x10 CMakeFiles/AHT20.dir/C_/VSARM/sdk/pico/pico-sdk/lib/tinyusb/src/portable/raspberrypi/rp2040/dcd_rp2040.c.obj
                0x10004844                dcd_connect
 .text.dcd_init
                0x10004854       0x80 CMakeFiles/AHT20.dir/C_/VSARM/sdk/pico/pico-sdk/lib/tinyusb/src/portable/raspberrypi/rp2040/dcd_rp2040.c.obj
                0x10004854                dcd_init
 .text.dcd_edpt0_status_complete
                0x100048d4       0x1c CMakeFiles/AHT20.dir/C_/VSARM/sdk/pico/pico-sdk/lib/tinyusb/src/portable/raspberrypi/rp2040/dcd_rp2040.c.obj
                0x100048d4                dcd_edpt0_status_complete
 .text.dcd_edpt_open
                0x100048f0       0x40 CMakeFiles/AHT20.dir/C_/VSARM/sdk/pico/pico-sdk/lib/tinyusb/src/portable/raspberrypi/rp2040/dcd_rp2040.c.obj
                0x100048f0                dcd_edpt_open
 .text.dcd_edpt_close_all
                0x10004930        0x8 CMakeFiles/AHT20.dir/C_/VSARM/sdk/pico/pico-sdk/lib/tinyusb/src/portable/raspberrypi/rp2040/dcd_rp2040.c.obj
                0x10004930                dcd_edpt_close_all
 .text.dcd_edpt_xfer
                0x10004938       0x34 CMakeFiles/AHT20.dir/C_/VSARM/sdk/pico/pico-sdk/lib/tinyusb/src/portable/raspberrypi/rp2040/dcd_rp2040.c.obj
                0x10004938                dcd_edpt_xfer
 .text.dcd_edpt_stall
                0x1000496c       0x2c CMakeFiles/AHT20.dir/C_/VSARM/sdk/pico/pico-sdk/lib/tinyusb/src/portable/raspberrypi/rp2040/dcd_rp2040.c.obj
                0x1000496c                dcd_edpt_stall
 .text.dcd_edpt_clear_stall
                0x10004998       0x20 CMakeFiles/AHT20.dir/C_/VSARM/sdk/pico/pico-sdk/lib/tinyusb/src/portable/raspberrypi/rp2040/dcd_rp2040.c.obj
                0x10004998                dcd_edpt_clear_stall
 .text.rp2040_usb_init
                0x100049b8       0x4c CMakeFiles/AHT20.dir/C_/VSARM/sdk/pico/pico-sdk/lib/tinyusb/src/portable/raspberrypi/rp2040/rp2040_usb.c.obj
                0x100049b8                rp2040_usb_init
 .text.hw_endpoint_xfer_start
                0x10004a04       0x50 CMakeFiles/AHT20.dir/C_/VSARM/sdk/pico/pico-sdk/lib/tinyusb/src/portable/raspberrypi/rp2040/rp2040_usb.c.obj
                0x10004a04                hw_endpoint_xfer_start
 .text.configuration_reset
                0x10004a54       0x84 CMakeFiles/AHT20.dir/C_/VSARM/sdk/pico/pico-sdk/lib/tinyusb/src/device/usbd.c.obj
 .text.critical_section_enter_blocking
                0x10004ad8       0x16 CMakeFiles/AHT20.dir/C_/VSARM/sdk/pico/pico-sdk/lib/tinyusb/src/device/usbd.c.obj
 .text.usbd_reset
                0x10004aee        0xc CMakeFiles/AHT20.dir/C_/VSARM/sdk/pico/pico-sdk/lib/tinyusb/src/device/usbd.c.obj
 .text.invoke_class_control
                0x10004afa       0x1a CMakeFiles/AHT20.dir/C_/VSARM/sdk/pico/pico-sdk/lib/tinyusb/src/device/usbd.c.obj
 .text.process_set_config
                0x10004b14      0x178 CMakeFiles/AHT20.dir/C_/VSARM/sdk/pico/pico-sdk/lib/tinyusb/src/device/usbd.c.obj
 .text.process_get_descriptor
                0x10004c8c       0xdc CMakeFiles/AHT20.dir/C_/VSARM/sdk/pico/pico-sdk/lib/tinyusb/src/device/usbd.c.obj
 .text.tud_mounted
                0x10004d68       0x10 CMakeFiles/AHT20.dir/C_/VSARM/sdk/pico/pico-sdk/lib/tinyusb/src/device/usbd.c.obj
                0x10004d68                tud_mounted
 .text.tud_suspended
                0x10004d78       0x10 CMakeFiles/AHT20.dir/C_/VSARM/sdk/pico/pico-sdk/lib/tinyusb/src/device/usbd.c.obj
                0x10004d78                tud_suspended
 .text.tud_inited
                0x10004d88       0x14 CMakeFiles/AHT20.dir/C_/VSARM/sdk/pico/pico-sdk/lib/tinyusb/src/device/usbd.c.obj
                0x10004d88                tud_inited
 .text.tud_init
                0x10004d9c       0xcc CMakeFiles/AHT20.dir/C_/VSARM/sdk/pico/pico-sdk/lib/tinyusb/src/device/usbd.c.obj
                0x10004d9c                tud_init
 .text.usbd_defer_func
                0x10004e68       0x2a CMakeFiles/AHT20.dir/C_/VSARM/sdk/pico/pico-sdk/lib/tinyusb/src/device/usbd.c.obj
                0x10004e68                usbd_defer_func
 *fill*         0x10004e92        0x2 
 .text.usbd_edpt_open
                0x10004e94       0x34 CMakeFiles/AHT20.dir/C_/VSARM/sdk/pico/pico-sdk/lib/tinyusb/src/device/usbd.c.obj
                0x10004e94                usbd_edpt_open
 .text.usbd_open_edpt_pair
                0x10004ec8       0x62 CMakeFiles/AHT20.dir/C_/VSARM/sdk/pico/pico-sdk/lib/tinyusb/src/device/usbd.c.obj
                0x10004ec8                usbd_open_edpt_pair
 *fill*         0x10004f2a        0x2 
 .text.usbd_edpt_claim
                0x10004f2c       0x28 CMakeFiles/AHT20.dir/C_/VSARM/sdk/pico/pico-sdk/lib/tinyusb/src/device/usbd.c.obj
                0x10004f2c                usbd_edpt_claim
 .text.usbd_edpt_release
                0x10004f54       0x28 CMakeFiles/AHT20.dir/C_/VSARM/sdk/pico/pico-sdk/lib/tinyusb/src/device/usbd.c.obj
                0x10004f54                usbd_edpt_release
 .text.usbd_edpt_xfer
                0x10004f7c       0x78 CMakeFiles/AHT20.dir/C_/VSARM/sdk/pico/pico-sdk/lib/tinyusb/src/device/usbd.c.obj
                0x10004f7c                usbd_edpt_xfer
 .text.usbd_edpt_stall
                0x10004ff4       0x48 CMakeFiles/AHT20.dir/C_/VSARM/sdk/pico/pico-sdk/lib/tinyusb/src/device/usbd.c.obj
                0x10004ff4                usbd_edpt_stall
 .text.usbd_edpt_clear_stall
                0x1000503c       0x48 CMakeFiles/AHT20.dir/C_/VSARM/sdk/pico/pico-sdk/lib/tinyusb/src/device/usbd.c.obj
                0x1000503c                usbd_edpt_clear_stall
 .text.usbd_edpt_stalled
                0x10005084       0x1c CMakeFiles/AHT20.dir/C_/VSARM/sdk/pico/pico-sdk/lib/tinyusb/src/device/usbd.c.obj
                0x10005084                usbd_edpt_stalled
 .text.process_control_request
                0x100050a0      0x374 CMakeFiles/AHT20.dir/C_/VSARM/sdk/pico/pico-sdk/lib/tinyusb/src/device/usbd.c.obj
 .text.tud_task_ext
                0x10005414      0x1a8 CMakeFiles/AHT20.dir/C_/VSARM/sdk/pico/pico-sdk/lib/tinyusb/src/device/usbd.c.obj
                0x10005414                tud_task_ext
 .text._status_stage_xact
                0x100055bc       0x1a CMakeFiles/AHT20.dir/C_/VSARM/sdk/pico/pico-sdk/lib/tinyusb/src/device/usbd_control.c.obj
 *fill*         0x100055d6        0x2 
 .text._data_stage_xact
                0x100055d8       0x58 CMakeFiles/AHT20.dir/C_/VSARM/sdk/pico/pico-sdk/lib/tinyusb/src/device/usbd_control.c.obj
 .text.tud_control_status
                0x10005630       0x28 CMakeFiles/AHT20.dir/C_/VSARM/sdk/pico/pico-sdk/lib/tinyusb/src/device/usbd_control.c.obj
                0x10005630                tud_control_status
 .text.tud_control_xfer
                0x10005658       0x68 CMakeFiles/AHT20.dir/C_/VSARM/sdk/pico/pico-sdk/lib/tinyusb/src/device/usbd_control.c.obj
                0x10005658                tud_control_xfer
 .text.usbd_control_reset
                0x100056c0       0x14 CMakeFiles/AHT20.dir/C_/VSARM/sdk/pico/pico-sdk/lib/tinyusb/src/device/usbd_control.c.obj
                0x100056c0                usbd_control_reset
 .text.usbd_control_set_complete_callback
                0x100056d4        0xc CMakeFiles/AHT20.dir/C_/VSARM/sdk/pico/pico-sdk/lib/tinyusb/src/device/usbd_control.c.obj
                0x100056d4                usbd_control_set_complete_callback
 .text.usbd_control_set_request
                0x100056e0       0x1c CMakeFiles/AHT20.dir/C_/VSARM/sdk/pico/pico-sdk/lib/tinyusb/src/device/usbd_control.c.obj
                0x100056e0                usbd_control_set_request
 .text.usbd_control_xfer_cb
                0x100056fc       0xbc CMakeFiles/AHT20.dir/C_/VSARM/sdk/pico/pico-sdk/lib/tinyusb/src/device/usbd_control.c.obj
                0x100056fc                usbd_control_xfer_cb
 .text._prep_out_transaction
                0x100057b8       0x4a CMakeFiles/AHT20.dir/C_/VSARM/sdk/pico/pico-sdk/lib/tinyusb/src/class/cdc/cdc_device.c.obj
 *fill*         0x10005802        0x2 
 .text.tud_cdc_n_connected
                0x10005804       0x38 CMakeFiles/AHT20.dir/C_/VSARM/sdk/pico/pico-sdk/lib/tinyusb/src/class/cdc/cdc_device.c.obj
                0x10005804                tud_cdc_n_connected
 .text.tud_cdc_n_available
                0x1000583c       0x18 CMakeFiles/AHT20.dir/C_/VSARM/sdk/pico/pico-sdk/lib/tinyusb/src/class/cdc/cdc_device.c.obj
                0x1000583c                tud_cdc_n_available
 .text.tud_cdc_n_read
                0x10005854       0x28 CMakeFiles/AHT20.dir/C_/VSARM/sdk/pico/pico-sdk/lib/tinyusb/src/class/cdc/cdc_device.c.obj
                0x10005854                tud_cdc_n_read
 .text.tud_cdc_n_write_flush
                0x1000587c       0xb8 CMakeFiles/AHT20.dir/C_/VSARM/sdk/pico/pico-sdk/lib/tinyusb/src/class/cdc/cdc_device.c.obj
                0x1000587c                tud_cdc_n_write_flush
 .text.tud_cdc_n_write
                0x10005934       0x38 CMakeFiles/AHT20.dir/C_/VSARM/sdk/pico/pico-sdk/lib/tinyusb/src/class/cdc/cdc_device.c.obj
                0x10005934                tud_cdc_n_write
 .text.tud_cdc_n_write_available
                0x1000596c       0x1c CMakeFiles/AHT20.dir/C_/VSARM/sdk/pico/pico-sdk/lib/tinyusb/src/class/cdc/cdc_device.c.obj
                0x1000596c                tud_cdc_n_write_available
 .text.cdcd_init
                0x10005988       0xbc CMakeFiles/AHT20.dir/C_/VSARM/sdk/pico/pico-sdk/lib/tinyusb/src/class/cdc/cdc_device.c.obj
                0x10005988                cdcd_init
 .text.cdcd_reset
                0x10005a44       0x44 CMakeFiles/AHT20.dir/C_/VSARM/sdk/pico/pico-sdk/lib/tinyusb/src/class/cdc/cdc_device.c.obj
                0x10005a44                cdcd_reset
 .text.cdcd_open
                0x10005a88       0xc4 CMakeFiles/AHT20.dir/C_/VSARM/sdk/pico/pico-sdk/lib/tinyusb/src/class/cdc/cdc_device.c.obj
                0x10005a88                cdcd_open
 .text.cdcd_control_xfer_cb
                0x10005b4c      0x134 CMakeFiles/AHT20.dir/C_/VSARM/sdk/pico/pico-sdk/lib/tinyusb/src/class/cdc/cdc_device.c.obj
                0x10005b4c                cdcd_control_xfer_cb
 .text.cdcd_xfer_cb
                0x10005c80      0x130 CMakeFiles/AHT20.dir/C_/VSARM/sdk/pico/pico-sdk/lib/tinyusb/src/class/cdc/cdc_device.c.obj
                0x10005c80                cdcd_xfer_cb
 .text.tusb_init
                0x10005db0        0xa CMakeFiles/AHT20.dir/C_/VSARM/sdk/pico/pico-sdk/lib/tinyusb/src/tusb.c.obj
                0x10005db0                tusb_init
 .text.tusb_inited
                0x10005dba        0xe CMakeFiles/AHT20.dir/C_/VSARM/sdk/pico/pico-sdk/lib/tinyusb/src/tusb.c.obj
                0x10005dba                tusb_inited
 .text.tu_edpt_claim
                0x10005dc8       0x50 CMakeFiles/AHT20.dir/C_/VSARM/sdk/pico/pico-sdk/lib/tinyusb/src/tusb.c.obj
                0x10005dc8                tu_edpt_claim
 .text.tu_edpt_release
                0x10005e18       0x38 CMakeFiles/AHT20.dir/C_/VSARM/sdk/pico/pico-sdk/lib/tinyusb/src/tusb.c.obj
                0x10005e18                tu_edpt_release
 .text.tu_edpt_validate
                0x10005e50       0x78 CMakeFiles/AHT20.dir/C_/VSARM/sdk/pico/pico-sdk/lib/tinyusb/src/tusb.c.obj
                0x10005e50                tu_edpt_validate
 .text.tu_edpt_bind_driver
                0x10005ec8       0x26 CMakeFiles/AHT20.dir/C_/VSARM/sdk/pico/pico-sdk/lib/tinyusb/src/tusb.c.obj
                0x10005ec8                tu_edpt_bind_driver
 .text.advance_index
                0x10005eee       0x1a CMakeFiles/AHT20.dir/C_/VSARM/sdk/pico/pico-sdk/lib/tinyusb/src/common/tusb_fifo.c.obj
 .text._tu_fifo_peek
                0x10005f08       0x56 CMakeFiles/AHT20.dir/C_/VSARM/sdk/pico/pico-sdk/lib/tinyusb/src/common/tusb_fifo.c.obj
 .text._ff_pull_const_addr
                0x10005f5e       0x4c CMakeFiles/AHT20.dir/C_/VSARM/sdk/pico/pico-sdk/lib/tinyusb/src/common/tusb_fifo.c.obj
 .text._ff_pull_n
                0x10005faa      0x110 CMakeFiles/AHT20.dir/C_/VSARM/sdk/pico/pico-sdk/lib/tinyusb/src/common/tusb_fifo.c.obj
 .text._tu_fifo_peek_n
                0x100060ba       0x6a CMakeFiles/AHT20.dir/C_/VSARM/sdk/pico/pico-sdk/lib/tinyusb/src/common/tusb_fifo.c.obj
 .text._tu_fifo_read_n
                0x10006124       0x4e CMakeFiles/AHT20.dir/C_/VSARM/sdk/pico/pico-sdk/lib/tinyusb/src/common/tusb_fifo.c.obj
 .text._ff_push_const_addr
                0x10006172       0x40 CMakeFiles/AHT20.dir/C_/VSARM/sdk/pico/pico-sdk/lib/tinyusb/src/common/tusb_fifo.c.obj
 .text._ff_push_n
                0x100061b2      0x10c CMakeFiles/AHT20.dir/C_/VSARM/sdk/pico/pico-sdk/lib/tinyusb/src/common/tusb_fifo.c.obj
 .text._tu_fifo_write_n
                0x100062be       0xf0 CMakeFiles/AHT20.dir/C_/VSARM/sdk/pico/pico-sdk/lib/tinyusb/src/common/tusb_fifo.c.obj
 .text.tu_fifo_config
                0x100063ae       0x7c CMakeFiles/AHT20.dir/C_/VSARM/sdk/pico/pico-sdk/lib/tinyusb/src/common/tusb_fifo.c.obj
                0x100063ae                tu_fifo_config
 .text.tu_fifo_count
                0x1000642a       0x2a CMakeFiles/AHT20.dir/C_/VSARM/sdk/pico/pico-sdk/lib/tinyusb/src/common/tusb_fifo.c.obj
                0x1000642a                tu_fifo_count
 .text.tu_fifo_empty
                0x10006454        0xe CMakeFiles/AHT20.dir/C_/VSARM/sdk/pico/pico-sdk/lib/tinyusb/src/common/tusb_fifo.c.obj
                0x10006454                tu_fifo_empty
 .text.tu_fifo_full
                0x10006462       0x28 CMakeFiles/AHT20.dir/C_/VSARM/sdk/pico/pico-sdk/lib/tinyusb/src/common/tusb_fifo.c.obj
                0x10006462                tu_fifo_full
 .text.tu_fifo_remaining
                0x1000648a       0x2c CMakeFiles/AHT20.dir/C_/VSARM/sdk/pico/pico-sdk/lib/tinyusb/src/common/tusb_fifo.c.obj
                0x1000648a                tu_fifo_remaining
 .text.tu_fifo_read
                0x100064b6       0x42 CMakeFiles/AHT20.dir/C_/VSARM/sdk/pico/pico-sdk/lib/tinyusb/src/common/tusb_fifo.c.obj
                0x100064b6                tu_fifo_read
 .text.tu_fifo_read_n
                0x100064f8        0xa CMakeFiles/AHT20.dir/C_/VSARM/sdk/pico/pico-sdk/lib/tinyusb/src/common/tusb_fifo.c.obj
                0x100064f8                tu_fifo_read_n
 .text.tu_fifo_write
                0x10006502       0x64 CMakeFiles/AHT20.dir/C_/VSARM/sdk/pico/pico-sdk/lib/tinyusb/src/common/tusb_fifo.c.obj
                0x10006502                tu_fifo_write
 .text.tu_fifo_write_n
                0x10006566        0xa CMakeFiles/AHT20.dir/C_/VSARM/sdk/pico/pico-sdk/lib/tinyusb/src/common/tusb_fifo.c.obj
                0x10006566                tu_fifo_write_n
 .text.tu_fifo_clear
                0x10006570       0x3e CMakeFiles/AHT20.dir/C_/VSARM/sdk/pico/pico-sdk/lib/tinyusb/src/common/tusb_fifo.c.obj
                0x10006570                tu_fifo_clear
 .text.tu_fifo_set_overwritable
                0x100065ae       0x46 CMakeFiles/AHT20.dir/C_/VSARM/sdk/pico/pico-sdk/lib/tinyusb/src/common/tusb_fifo.c.obj
                0x100065ae                tu_fifo_set_overwritable
 .text.strlen   0x100065f4       0x5c c:/vsarm/armcc/125863~1.3re/bin/../lib/gcc/arm-none-eabi/12.3.1/thumb/v6-m/nofp\libg.a(libc_a-strlen-stub.o)
                0x100065f4                strlen
 *(.fini)
 .fini          0x10006650        0x4 c:/vsarm/armcc/125863~1.3re/bin/../lib/gcc/arm-none-eabi/12.3.1/thumb/v6-m/nofp/crti.o
                0x10006650                _fini
 *fill*         0x10006654        0x4 
 .fini.__stub   0x10006658       0xe0 linker stubs
 *crtbegin.o(.ctors)
 *crtbegin?.o(.ctors)
 *(EXCLUDE_FILE(*crtend.o *crtend?.o) .ctors)
 *(SORT_BY_NAME(.ctors.*))
 *(.ctors)
 *crtbegin.o(.dtors)
 *crtbegin?.o(.dtors)
 *(EXCLUDE_FILE(*crtend.o *crtend?.o) .dtors)
 *(SORT_BY_NAME(.dtors.*))
 *(.dtors)
 *(.eh_frame*)
 .eh_frame      0x10006738        0x0 c:/vsarm/armcc/125863~1.3re/bin/../lib/gcc/arm-none-eabi/12.3.1/thumb/v6-m/nofp/crtbegin.o
                0x10006738                        . = ALIGN (0x4)

.glue_7         0x10006738        0x0
 .glue_7        0x10006738        0x0 linker stubs

.glue_7t        0x10006738        0x0
 .glue_7t       0x10006738        0x0 linker stubs

.vfp11_veneer   0x10006738        0x0
 .vfp11_veneer  0x10006738        0x0 linker stubs

.v4_bx          0x10006738        0x0
 .v4_bx         0x10006738        0x0 linker stubs

.iplt           0x10006738        0x0
 .iplt          0x10006738        0x0 c:/vsarm/armcc/125863~1.3re/bin/../lib/gcc/arm-none-eabi/12.3.1/thumb/v6-m/nofp/crtbegin.o

.rodata         0x10006738     0x1518
 *(EXCLUDE_FILE(*libm.a: *libc.a:*lib_a-mem*.o *libgcc.a:) .rodata*)
 .rodata.spin_lock_claim_unused.str1.4
                0x10006738       0x1b CMakeFiles/AHT20.dir/C_/VSARM/sdk/pico/pico-sdk/src/rp2_common/hardware_sync/sync.c.obj
 *fill*         0x10006753        0x1 
 .rodata.resolve_branch.str1.4
                0x10006754       0x55 CMakeFiles/AHT20.dir/C_/VSARM/sdk/pico/pico-sdk/src/rp2_common/hardware_irq/irq.c.obj
 *fill*         0x100067a9        0x3 
 .rodata.make_branch.str1.4
                0x100067ac       0x30 CMakeFiles/AHT20.dir/C_/VSARM/sdk/pico/pico-sdk/src/rp2_common/hardware_irq/irq.c.obj
 .rodata.insert_branch_and_link.str1.4
                0x100067dc       0x10 CMakeFiles/AHT20.dir/C_/VSARM/sdk/pico/pico-sdk/src/rp2_common/hardware_irq/irq.c.obj
 .rodata.irq_set_exclusive_handler.str1.4
                0x100067ec       0x36 CMakeFiles/AHT20.dir/C_/VSARM/sdk/pico/pico-sdk/src/rp2_common/hardware_irq/irq.c.obj
 *fill*         0x10006822        0x2 
 .rodata.irq_add_shared_handler.str1.4
                0x10006824       0xc2 CMakeFiles/AHT20.dir/C_/VSARM/sdk/pico/pico-sdk/src/rp2_common/hardware_irq/irq.c.obj
 *fill*         0x100068e6        0x2 
 .rodata.irq_remove_handler.str1.4
                0x100068e8       0x3a CMakeFiles/AHT20.dir/C_/VSARM/sdk/pico/pico-sdk/src/rp2_common/hardware_irq/irq.c.obj
 *fill*         0x10006922        0x2 
 .rodata.irq_add_tail_to_free_list.str1.4
                0x10006924       0x3a CMakeFiles/AHT20.dir/C_/VSARM/sdk/pico/pico-sdk/src/rp2_common/hardware_irq/irq.c.obj
 *fill*         0x1000695e        0x2 
 .rodata.user_irq_claim_unused.str1.4
                0x10006960       0x1b CMakeFiles/AHT20.dir/C_/VSARM/sdk/pico/pico-sdk/src/rp2_common/hardware_irq/irq.c.obj
 *fill*         0x1000697b        0x1 
 .rodata.__func__.0
                0x1000697c       0x1a CMakeFiles/AHT20.dir/C_/VSARM/sdk/pico/pico-sdk/src/rp2_common/hardware_irq/irq.c.obj
 *fill*         0x10006996        0x2 
 .rodata.__func__.1
                0x10006998       0x17 CMakeFiles/AHT20.dir/C_/VSARM/sdk/pico/pico-sdk/src/rp2_common/hardware_irq/irq.c.obj
 *fill*         0x100069af        0x1 
 .rodata.__func__.2
                0x100069b0       0x13 CMakeFiles/AHT20.dir/C_/VSARM/sdk/pico/pico-sdk/src/rp2_common/hardware_irq/irq.c.obj
 *fill*         0x100069c3        0x1 
 .rodata.__func__.3
                0x100069c4        0xc CMakeFiles/AHT20.dir/C_/VSARM/sdk/pico/pico-sdk/src/rp2_common/hardware_irq/irq.c.obj
 .rodata.__func__.4
                0x100069d0        0xf CMakeFiles/AHT20.dir/C_/VSARM/sdk/pico/pico-sdk/src/rp2_common/hardware_irq/irq.c.obj
 *fill*         0x100069df        0x1 
 .rodata.__func__.5
                0x100069e0       0x17 CMakeFiles/AHT20.dir/C_/VSARM/sdk/pico/pico-sdk/src/rp2_common/hardware_irq/irq.c.obj
 *fill*         0x100069f7        0x1 
 .rodata.__func__.6
                0x100069f8       0x1a CMakeFiles/AHT20.dir/C_/VSARM/sdk/pico/pico-sdk/src/rp2_common/hardware_irq/irq.c.obj
 *fill*         0x10006a12        0x2 
 .rodata.update_us_since_boot.str1.4
                0x10006a14       0x61 CMakeFiles/AHT20.dir/C_/VSARM/sdk/pico/pico-sdk/src/common/pico_sync/mutex.c.obj
 *fill*         0x10006a75        0x3 
 .rodata.str1.4
                0x10006a78       0x89 CMakeFiles/AHT20.dir/C_/VSARM/sdk/pico/pico-sdk/src/common/pico_sync/mutex.c.obj
 *fill*         0x10006b01        0x3 
 .rodata.__func__.1
                0x10006b04        0xb CMakeFiles/AHT20.dir/C_/VSARM/sdk/pico/pico-sdk/src/common/pico_sync/mutex.c.obj
 *fill*         0x10006b0f        0x1 
 .rodata.__func__.3
                0x10006b10       0x18 CMakeFiles/AHT20.dir/C_/VSARM/sdk/pico/pico-sdk/src/common/pico_sync/mutex.c.obj
 .rodata.__func__.4
                0x10006b28       0x15 CMakeFiles/AHT20.dir/C_/VSARM/sdk/pico/pico-sdk/src/common/pico_sync/mutex.c.obj
 *fill*         0x10006b3d        0x3 
 .rodata.get_entry.str1.4
                0x10006b40       0x5b CMakeFiles/AHT20.dir/C_/VSARM/sdk/pico/pico-sdk/src/common/pico_time/time.c.obj
 .rodata.update_us_since_boot.str1.4
                0x10006b9b       0x61 CMakeFiles/AHT20.dir/C_/VSARM/sdk/pico/pico-sdk/src/common/pico_time/time.c.obj
 *fill*         0x10006b9b        0x1 
 .rodata.ph_get_node.str1.4
                0x10006b9c       0x66 CMakeFiles/AHT20.dir/C_/VSARM/sdk/pico/pico-sdk/src/common/pico_time/time.c.obj
 *fill*         0x10006c02        0x2 
 .rodata.ph_add_child_node.str1.4
                0x10006c04       0x2e CMakeFiles/AHT20.dir/C_/VSARM/sdk/pico/pico-sdk/src/common/pico_time/time.c.obj
 *fill*         0x10006c32        0x2 
 .rodata.ph_insert_node.str1.4
                0x10006c34        0x3 CMakeFiles/AHT20.dir/C_/VSARM/sdk/pico/pico-sdk/src/common/pico_time/time.c.obj
 *fill*         0x10006c37        0x1 
 .rodata.ph_free_node.str1.4
                0x10006c38       0x38 CMakeFiles/AHT20.dir/C_/VSARM/sdk/pico/pico-sdk/src/common/pico_time/time.c.obj
 .rodata.add_alarm_under_lock.str1.4
                0x10006c70       0x28 CMakeFiles/AHT20.dir/C_/VSARM/sdk/pico/pico-sdk/src/common/pico_time/time.c.obj
 .rodata.alarm_pool_alarm_callback.str1.4
                0x10006c98       0x60 CMakeFiles/AHT20.dir/C_/VSARM/sdk/pico/pico-sdk/src/common/pico_time/time.c.obj
 .rodata.alarm_pool_get_default.str1.4
                0x10006cf8       0x21 CMakeFiles/AHT20.dir/C_/VSARM/sdk/pico/pico-sdk/src/common/pico_time/time.c.obj
 *fill*         0x10006d19        0x3 
 .rodata.alarm_pool_cancel_alarm.str1.4
                0x10006d1c       0x27 CMakeFiles/AHT20.dir/C_/VSARM/sdk/pico/pico-sdk/src/common/pico_time/time.c.obj
 *fill*         0x10006d43        0x1 
 .rodata.sleep_until.str1.4
                0x10006d44       0x4d CMakeFiles/AHT20.dir/C_/VSARM/sdk/pico/pico-sdk/src/common/pico_time/time.c.obj
 *fill*         0x10006d91        0x3 
 .rodata.__func__.1
                0x10006d94       0x18 CMakeFiles/AHT20.dir/C_/VSARM/sdk/pico/pico-sdk/src/common/pico_time/time.c.obj
 .rodata.__func__.3
                0x10006dac       0x17 CMakeFiles/AHT20.dir/C_/VSARM/sdk/pico/pico-sdk/src/common/pico_time/time.c.obj
 *fill*         0x10006dc3        0x1 
 .rodata.__func__.4
                0x10006dc4       0x12 CMakeFiles/AHT20.dir/C_/VSARM/sdk/pico/pico-sdk/src/common/pico_time/time.c.obj
 *fill*         0x10006dd6        0x2 
 .rodata.__func__.5
                0x10006dd8        0xd CMakeFiles/AHT20.dir/C_/VSARM/sdk/pico/pico-sdk/src/common/pico_time/time.c.obj
 *fill*         0x10006de5        0x3 
 .rodata.__func__.6
                0x10006de8       0x12 CMakeFiles/AHT20.dir/C_/VSARM/sdk/pico/pico-sdk/src/common/pico_time/time.c.obj
 *fill*         0x10006dfa        0x2 
 .rodata.__func__.7
                0x10006dfc        0xf CMakeFiles/AHT20.dir/C_/VSARM/sdk/pico/pico-sdk/src/common/pico_time/time.c.obj
 *fill*         0x10006e0b        0x1 
 .rodata.__func__.8
                0x10006e0c        0xc CMakeFiles/AHT20.dir/C_/VSARM/sdk/pico/pico-sdk/src/common/pico_time/time.c.obj
 .rodata.__func__.9
                0x10006e18       0x15 CMakeFiles/AHT20.dir/C_/VSARM/sdk/pico/pico-sdk/src/common/pico_time/time.c.obj
 *fill*         0x10006e2d        0x3 
 .rodata.__func__.10
                0x10006e30       0x15 CMakeFiles/AHT20.dir/C_/VSARM/sdk/pico/pico-sdk/src/common/pico_time/time.c.obj
 *fill*         0x10006e45        0x3 
 .rodata.__func__.11
                0x10006e48       0x1a CMakeFiles/AHT20.dir/C_/VSARM/sdk/pico/pico-sdk/src/common/pico_time/time.c.obj
 *fill*         0x10006e62        0x2 
 .rodata.__func__.12
                0x10006e64        0xa CMakeFiles/AHT20.dir/C_/VSARM/sdk/pico/pico-sdk/src/common/pico_time/time.c.obj
 *fill*         0x10006e6e        0x2 
 .rodata.hardware_alarm_claim.str1.4
                0x10006e70       0x22 CMakeFiles/AHT20.dir/C_/VSARM/sdk/pico/pico-sdk/src/rp2_common/hardware_timer/timer.c.obj
 *fill*         0x10006e92        0x2 
 .rodata.hardware_alarm_set_target.str1.4
                0x10006e94       0x65 CMakeFiles/AHT20.dir/C_/VSARM/sdk/pico/pico-sdk/src/rp2_common/hardware_timer/timer.c.obj
 *fill*         0x10006ef9        0x3 
 .rodata.__func__.0
                0x10006efc       0x1a CMakeFiles/AHT20.dir/C_/VSARM/sdk/pico/pico-sdk/src/rp2_common/hardware_timer/timer.c.obj
 .rodata.ph_get_node.str1.4
                0x10006f16       0x66 CMakeFiles/AHT20.dir/C_/VSARM/sdk/pico/pico-sdk/src/common/pico_util/pheap.c.obj
 .rodata.ph_add_child_node.str1.4
                0x10006f16       0x2e CMakeFiles/AHT20.dir/C_/VSARM/sdk/pico/pico-sdk/src/common/pico_util/pheap.c.obj
 *fill*         0x10006f16        0x2 
 .rodata.ph_remove_any_head.str1.4
                0x10006f18       0x8c CMakeFiles/AHT20.dir/C_/VSARM/sdk/pico/pico-sdk/src/common/pico_util/pheap.c.obj
                                 0xa0 (size before relaxing)
 .rodata.ph_remove_and_free_node.str1.4
                0x10006fa4       0x1e CMakeFiles/AHT20.dir/C_/VSARM/sdk/pico/pico-sdk/src/common/pico_util/pheap.c.obj
                                 0x26 (size before relaxing)
 *fill*         0x10006fc2        0x2 
 .rodata.__func__.0
                0x10006fc4       0x18 CMakeFiles/AHT20.dir/C_/VSARM/sdk/pico/pico-sdk/src/common/pico_util/pheap.c.obj
 .rodata.__func__.1
                0x10006fdc       0x13 CMakeFiles/AHT20.dir/C_/VSARM/sdk/pico/pico-sdk/src/common/pico_util/pheap.c.obj
 *fill*         0x10006fef        0x1 
 .rodata.__func__.2
                0x10006ff0       0x12 CMakeFiles/AHT20.dir/C_/VSARM/sdk/pico/pico-sdk/src/common/pico_util/pheap.c.obj
 *fill*         0x10007002        0x2 
 .rodata.__func__.3
                0x10007004        0xc CMakeFiles/AHT20.dir/C_/VSARM/sdk/pico/pico-sdk/src/common/pico_util/pheap.c.obj
 .rodata.clock_configure.str1.4
                0x10007010       0x57 CMakeFiles/AHT20.dir/C_/VSARM/sdk/pico/pico-sdk/src/rp2_common/hardware_clocks/clocks.c.obj
 *fill*         0x10007067        0x1 
 .rodata.__func__.1
                0x10007068       0x10 CMakeFiles/AHT20.dir/C_/VSARM/sdk/pico/pico-sdk/src/rp2_common/hardware_clocks/clocks.c.obj
 .rodata.pll_init.str1.4
                0x10007078      0x124 CMakeFiles/AHT20.dir/C_/VSARM/sdk/pico/pico-sdk/src/rp2_common/hardware_pll/pll.c.obj
 .rodata.__func__.0
                0x1000719c        0x9 CMakeFiles/AHT20.dir/C_/VSARM/sdk/pico/pico-sdk/src/rp2_common/hardware_pll/pll.c.obj
 *fill*         0x100071a5        0x3 
 .rodata.__assert_func.str1.4
                0x100071a8       0x3f CMakeFiles/AHT20.dir/C_/VSARM/sdk/pico/pico-sdk/src/rp2_common/pico_runtime/runtime.c.obj
                                 0x43 (size before relaxing)
 *fill*         0x100071e7        0x1 
 .rodata.runtime_init.str1.4
                0x100071e8       0x61 CMakeFiles/AHT20.dir/C_/VSARM/sdk/pico/pico-sdk/src/rp2_common/pico_runtime/runtime.c.obj
 *fill*         0x10007249        0x3 
 .rodata.panic.str1.4
                0x1000724c       0x12 CMakeFiles/AHT20.dir/C_/VSARM/sdk/pico/pico-sdk/src/rp2_common/pico_runtime/runtime.c.obj
 *fill*         0x1000725e        0x2 
 .rodata.__func__.2
                0x10007260        0xd CMakeFiles/AHT20.dir/C_/VSARM/sdk/pico/pico-sdk/src/rp2_common/pico_runtime/runtime.c.obj
 *fill*         0x1000726d        0x3 
 .rodata._ftoa.str1.4
                0x10007270       0x15 CMakeFiles/AHT20.dir/C_/VSARM/sdk/pico/pico-sdk/src/rp2_common/pico_printf/printf.c.obj
 *fill*         0x10007285        0x3 
 .rodata._vsnprintf
                0x10007288      0x19c CMakeFiles/AHT20.dir/C_/VSARM/sdk/pico/pico-sdk/src/rp2_common/pico_printf/printf.c.obj
 *fill*         0x10007424        0x4 
 .rodata.pow10.0
                0x10007428       0x50 CMakeFiles/AHT20.dir/C_/VSARM/sdk/pico/pico-sdk/src/rp2_common/pico_printf/printf.c.obj
 .rodata.missing_double_func_shim.str1.4
                0x10007478       0x18 CMakeFiles/AHT20.dir/C_/VSARM/sdk/pico/pico-sdk/src/rp2_common/pico_double/double_init_rom.c.obj
 .rodata.__aeabi_double_init.str1.4
                0x10007490       0x9c CMakeFiles/AHT20.dir/C_/VSARM/sdk/pico/pico-sdk/src/rp2_common/pico_double/double_init_rom.c.obj
 .rodata.__func__.0
                0x1000752c       0x14 CMakeFiles/AHT20.dir/C_/VSARM/sdk/pico/pico-sdk/src/rp2_common/pico_double/double_init_rom.c.obj
 .rodata.missing_float_func_shim.str1.4
                0x10007540        0x1 CMakeFiles/AHT20.dir/C_/VSARM/sdk/pico/pico-sdk/src/rp2_common/pico_float/float_init_rom.c.obj
 .rodata.__aeabi_float_init.str1.4
                0x10007540       0x7a CMakeFiles/AHT20.dir/C_/VSARM/sdk/pico/pico-sdk/src/rp2_common/pico_float/float_init_rom.c.obj
 *fill*         0x100075ba        0x2 
 .rodata.__func__.0
                0x100075bc       0x13 CMakeFiles/AHT20.dir/C_/VSARM/sdk/pico/pico-sdk/src/rp2_common/pico_float/float_init_rom.c.obj
 *fill*         0x100075cf        0x1 
 .rodata.str1.4
                0x100075d0       0x3c CMakeFiles/AHT20.dir/C_/VSARM/sdk/pico/pico-sdk/src/rp2_common/pico_standard_link/binary_info.c.obj
 .rodata.__bi_81
                0x1000760c        0xc CMakeFiles/AHT20.dir/C_/VSARM/sdk/pico/pico-sdk/src/rp2_common/pico_standard_link/binary_info.c.obj
 .rodata.__bi_75
                0x10007618        0xc CMakeFiles/AHT20.dir/C_/VSARM/sdk/pico/pico-sdk/src/rp2_common/pico_standard_link/binary_info.c.obj
 .rodata.__bi_44
                0x10007624        0xc CMakeFiles/AHT20.dir/C_/VSARM/sdk/pico/pico-sdk/src/rp2_common/pico_standard_link/binary_info.c.obj
 .rodata.update_us_since_boot.str1.4
                0x10007630       0x61 CMakeFiles/AHT20.dir/C_/VSARM/sdk/pico/pico-sdk/src/rp2_common/pico_stdio/stdio.c.obj
 .rodata.crlf_str.2
                0x10007630        0x2 CMakeFiles/AHT20.dir/C_/VSARM/sdk/pico/pico-sdk/src/rp2_common/pico_stdio/stdio.c.obj
 *fill*         0x10007632        0x2 
 .rodata.__func__.3
                0x10007634       0x15 CMakeFiles/AHT20.dir/C_/VSARM/sdk/pico/pico-sdk/src/rp2_common/pico_stdio/stdio.c.obj
 *fill*         0x10007649        0x3 
 .rodata._resetd_driver
                0x1000764c       0x18 CMakeFiles/AHT20.dir/C_/VSARM/sdk/pico/pico-sdk/src/rp2_common/pico_stdio_usb/reset_interface.c.obj
 .rodata.update_us_since_boot.str1.4
                0x10007664       0x61 CMakeFiles/AHT20.dir/C_/VSARM/sdk/pico/pico-sdk/src/rp2_common/pico_stdio_usb/stdio_usb.c.obj
 .rodata.stdio_usb_init.str1.4
                0x10007664       0x45 CMakeFiles/AHT20.dir/C_/VSARM/sdk/pico/pico-sdk/src/rp2_common/pico_stdio_usb/stdio_usb.c.obj
                                 0x4d (size before relaxing)
 *fill*         0x100076a9        0x3 
 .rodata.str1.4
                0x100076ac       0x13 CMakeFiles/AHT20.dir/C_/VSARM/sdk/pico/pico-sdk/src/rp2_common/pico_stdio_usb/stdio_usb.c.obj
 *fill*         0x100076bf        0x1 
 .rodata.__bi_182.0
                0x100076c0        0xc CMakeFiles/AHT20.dir/C_/VSARM/sdk/pico/pico-sdk/src/rp2_common/pico_stdio_usb/stdio_usb.c.obj
 .rodata.__func__.1
                0x100076cc        0xf CMakeFiles/AHT20.dir/C_/VSARM/sdk/pico/pico-sdk/src/rp2_common/pico_stdio_usb/stdio_usb.c.obj
 *fill*         0x100076db        0x1 
 .rodata.__func__.3
                0x100076dc       0x15 CMakeFiles/AHT20.dir/C_/VSARM/sdk/pico/pico-sdk/src/rp2_common/pico_stdio_usb/stdio_usb.c.obj
 *fill*         0x100076f1        0x3 
 .rodata.str1.4
                0x100076f4       0x2a CMakeFiles/AHT20.dir/C_/VSARM/sdk/pico/pico-sdk/src/rp2_common/pico_stdio_usb/stdio_usb_descriptors.c.obj
 *fill*         0x1000771e        0x2 
 .rodata.usbd_desc_str
                0x10007720       0x18 CMakeFiles/AHT20.dir/C_/VSARM/sdk/pico/pico-sdk/src/rp2_common/pico_stdio_usb/stdio_usb_descriptors.c.obj
 .rodata.usbd_desc_cfg
                0x10007738       0x54 CMakeFiles/AHT20.dir/C_/VSARM/sdk/pico/pico-sdk/src/rp2_common/pico_stdio_usb/stdio_usb_descriptors.c.obj
 .rodata.usbd_desc_device
                0x1000778c       0x12 CMakeFiles/AHT20.dir/C_/VSARM/sdk/pico/pico-sdk/src/rp2_common/pico_stdio_usb/stdio_usb_descriptors.c.obj
 *fill*         0x1000779e        0x2 
 .rodata.pico_get_unique_board_id_string.str1.4
                0x100077a0       0x4d CMakeFiles/AHT20.dir/C_/VSARM/sdk/pico/pico-sdk/src/rp2_common/pico_unique_id/unique_id.c.obj
 *fill*         0x100077ed        0x3 
 .rodata.__func__.0
                0x100077f0       0x20 CMakeFiles/AHT20.dir/C_/VSARM/sdk/pico/pico-sdk/src/rp2_common/pico_unique_id/unique_id.c.obj
 .rodata.str1.4
                0x10007810      0x15a CMakeFiles/AHT20.dir/C_/VSARM/sdk/pico/pico-sdk/src/rp2_common/hardware_flash/flash.c.obj
 *fill*         0x1000796a        0x2 
 .rodata.__func__.0
                0x1000796c        0xd CMakeFiles/AHT20.dir/C_/VSARM/sdk/pico/pico-sdk/src/rp2_common/hardware_flash/flash.c.obj
 *fill*         0x10007979        0x3 
 .rodata._hw_endpoint_alloc.str1.4
                0x1000797c       0xb5 CMakeFiles/AHT20.dir/C_/VSARM/sdk/pico/pico-sdk/lib/tinyusb/src/portable/raspberrypi/rp2040/dcd_rp2040.c.obj
 *fill*         0x10007a31        0x3 
 .rodata.str1.4
                0x10007a34       0x14 CMakeFiles/AHT20.dir/C_/VSARM/sdk/pico/pico-sdk/lib/tinyusb/src/portable/raspberrypi/rp2040/dcd_rp2040.c.obj
 .rodata.dcd_int_enable.str1.4
                0x10007a48        0xc CMakeFiles/AHT20.dir/C_/VSARM/sdk/pico/pico-sdk/lib/tinyusb/src/portable/raspberrypi/rp2040/dcd_rp2040.c.obj
 .rodata.__func__.0
                0x10007a54        0xe CMakeFiles/AHT20.dir/C_/VSARM/sdk/pico/pico-sdk/lib/tinyusb/src/portable/raspberrypi/rp2040/dcd_rp2040.c.obj
 *fill*         0x10007a62        0x2 
 .rodata.__func__.1
                0x10007a64        0xe CMakeFiles/AHT20.dir/C_/VSARM/sdk/pico/pico-sdk/lib/tinyusb/src/portable/raspberrypi/rp2040/dcd_rp2040.c.obj
 *fill*         0x10007a72        0x2 
 .rodata.__func__.3
                0x10007a74       0x10 CMakeFiles/AHT20.dir/C_/VSARM/sdk/pico/pico-sdk/lib/tinyusb/src/portable/raspberrypi/rp2040/dcd_rp2040.c.obj
 .rodata.__func__.5
                0x10007a84        0xf CMakeFiles/AHT20.dir/C_/VSARM/sdk/pico/pico-sdk/lib/tinyusb/src/portable/raspberrypi/rp2040/dcd_rp2040.c.obj
 *fill*         0x10007a93        0x1 
 .rodata.__func__.6
                0x10007a94       0x13 CMakeFiles/AHT20.dir/C_/VSARM/sdk/pico/pico-sdk/lib/tinyusb/src/portable/raspberrypi/rp2040/dcd_rp2040.c.obj
 *fill*         0x10007aa7        0x1 
 .rodata.__func__.7
                0x10007aa8        0x9 CMakeFiles/AHT20.dir/C_/VSARM/sdk/pico/pico-sdk/lib/tinyusb/src/portable/raspberrypi/rp2040/dcd_rp2040.c.obj
 *fill*         0x10007ab1        0x3 
 .rodata.str1.4
                0x10007ab4       0xe7 CMakeFiles/AHT20.dir/C_/VSARM/sdk/pico/pico-sdk/lib/tinyusb/src/portable/raspberrypi/rp2040/rp2040_usb.c.obj
 *fill*         0x10007b9b        0x1 
 .rodata.__func__.0
                0x10007b9c        0xf CMakeFiles/AHT20.dir/C_/VSARM/sdk/pico/pico-sdk/lib/tinyusb/src/portable/raspberrypi/rp2040/rp2040_usb.c.obj
 *fill*         0x10007bab        0x1 
 .rodata.process_get_descriptor
                0x10007bac       0x40 CMakeFiles/AHT20.dir/C_/VSARM/sdk/pico/pico-sdk/lib/tinyusb/src/device/usbd.c.obj
 .rodata.process_control_request
                0x10007bec       0x28 CMakeFiles/AHT20.dir/C_/VSARM/sdk/pico/pico-sdk/lib/tinyusb/src/device/usbd.c.obj
 .rodata.tud_task_ext
                0x10007c14       0x24 CMakeFiles/AHT20.dir/C_/VSARM/sdk/pico/pico-sdk/lib/tinyusb/src/device/usbd.c.obj
 .rodata._usbd_driver
                0x10007c38       0x18 CMakeFiles/AHT20.dir/C_/VSARM/sdk/pico/pico-sdk/lib/tinyusb/src/device/usbd.c.obj
                0x10007c50                        . = ALIGN (0x4)
 *(SORT_BY_ALIGNMENT(SORT_BY_NAME(.flashdata*)))
                0x10007c50                        . = ALIGN (0x4)

.ARM.extab
 *(.ARM.extab* .gnu.linkonce.armextab.*)
                0x10007c50                        __exidx_start = .

.ARM.exidx
 *(.ARM.exidx* .gnu.linkonce.armexidx.*)
                0x10007c50                        __exidx_end = .
                0x10007c50                        . = ALIGN (0x4)
                0x10007c50                        __binary_info_start = .

.binary_info    0x10007c50       0x20
 *(.binary_info.keep.*)
 .binary_info.keep.__bi_ptr81
                0x10007c50        0x4 CMakeFiles/AHT20.dir/C_/VSARM/sdk/pico/pico-sdk/src/rp2_common/pico_standard_link/binary_info.c.obj
 .binary_info.keep.__bi_ptr75
                0x10007c54        0x4 CMakeFiles/AHT20.dir/C_/VSARM/sdk/pico/pico-sdk/src/rp2_common/pico_standard_link/binary_info.c.obj
 .binary_info.keep.__bi_ptr50
                0x10007c58        0x4 CMakeFiles/AHT20.dir/C_/VSARM/sdk/pico/pico-sdk/src/rp2_common/pico_standard_link/binary_info.c.obj
 .binary_info.keep.__bi_ptr44
                0x10007c5c        0x4 CMakeFiles/AHT20.dir/C_/VSARM/sdk/pico/pico-sdk/src/rp2_common/pico_standard_link/binary_info.c.obj
 .binary_info.keep.__bi_ptr38
                0x10007c60        0x4 CMakeFiles/AHT20.dir/C_/VSARM/sdk/pico/pico-sdk/src/rp2_common/pico_standard_link/binary_info.c.obj
 .binary_info.keep.__bi_ptr30
                0x10007c64        0x4 CMakeFiles/AHT20.dir/C_/VSARM/sdk/pico/pico-sdk/src/rp2_common/pico_standard_link/binary_info.c.obj
 .binary_info.keep.__bi_ptr22
                0x10007c68        0x4 CMakeFiles/AHT20.dir/C_/VSARM/sdk/pico/pico-sdk/src/rp2_common/pico_standard_link/binary_info.c.obj
 *(.binary_info.*)
 .binary_info.__bi_ptr182
                0x10007c6c        0x4 CMakeFiles/AHT20.dir/C_/VSARM/sdk/pico/pico-sdk/src/rp2_common/pico_stdio_usb/stdio_usb.c.obj
                0x10007c70                        __binary_info_end = .

.rel.dyn        0x10007c70        0x0
 .rel.iplt      0x10007c70        0x0 c:/vsarm/armcc/125863~1.3re/bin/../lib/gcc/arm-none-eabi/12.3.1/thumb/v6-m/nofp/crtbegin.o
                0x10007c70                        . = ALIGN (0x4)

.ram_vector_table
                0x20000000       0xc0
 *(.ram_vector_table)
 .ram_vector_table
                0x20000000       0xc0 CMakeFiles/AHT20.dir/C_/VSARM/sdk/pico/pico-sdk/src/rp2_common/pico_runtime/runtime.c.obj
                0x20000000                ram_vector_table

.data           0x200000c0      0xb30 load address 0x10007c70
                0x200000c0                        __data_start__ = .
 *(vtable)
 *(.time_critical*)
 .time_critical.mutex_try_enter
                0x200000c0       0x46 CMakeFiles/AHT20.dir/C_/VSARM/sdk/pico/pico-sdk/src/common/pico_sync/mutex.c.obj
                0x200000c0                mutex_try_enter
 *fill*         0x20000106        0x2 
 .time_critical.mutex_enter_block_until
                0x20000108       0x8c CMakeFiles/AHT20.dir/C_/VSARM/sdk/pico/pico-sdk/src/common/pico_sync/mutex.c.obj
                0x20000108                mutex_enter_block_until
 .time_critical.mutex_try_enter_block_until
                0x20000194       0x34 CMakeFiles/AHT20.dir/C_/VSARM/sdk/pico/pico-sdk/src/common/pico_sync/mutex.c.obj
                0x20000194                mutex_try_enter_block_until
 .time_critical.mutex_enter_timeout_ms
                0x200001c8       0x1a CMakeFiles/AHT20.dir/C_/VSARM/sdk/pico/pico-sdk/src/common/pico_sync/mutex.c.obj
                0x200001c8                mutex_enter_timeout_ms
 *fill*         0x200001e2        0x2 
 .time_critical.mutex_exit
                0x200001e4       0x4c CMakeFiles/AHT20.dir/C_/VSARM/sdk/pico/pico-sdk/src/common/pico_sync/mutex.c.obj
                0x200001e4                mutex_exit
 .time_critical.flash_init_boot2_copyout
                0x20000230       0x30 CMakeFiles/AHT20.dir/C_/VSARM/sdk/pico/pico-sdk/src/rp2_common/hardware_flash/flash.c.obj
 .time_critical.flash_enable_xip_via_boot2
                0x20000260        0xc CMakeFiles/AHT20.dir/C_/VSARM/sdk/pico/pico-sdk/src/rp2_common/hardware_flash/flash.c.obj
 .time_critical.flash_cs_force
                0x2000026c       0x28 CMakeFiles/AHT20.dir/C_/VSARM/sdk/pico/pico-sdk/src/rp2_common/hardware_flash/flash.c.obj
 .time_critical.flash_do_cmd
                0x20000294       0xd8 CMakeFiles/AHT20.dir/C_/VSARM/sdk/pico/pico-sdk/src/rp2_common/hardware_flash/flash.c.obj
                0x20000294                flash_do_cmd
 .time_critical.reset_non_control_endpoints
                0x2000036c       0x40 CMakeFiles/AHT20.dir/C_/VSARM/sdk/pico/pico-sdk/lib/tinyusb/src/portable/raspberrypi/rp2040/dcd_rp2040.c.obj
 .time_critical.hw_handle_buff_status
                0x200003ac       0xa4 CMakeFiles/AHT20.dir/C_/VSARM/sdk/pico/pico-sdk/lib/tinyusb/src/portable/raspberrypi/rp2040/dcd_rp2040.c.obj
 .time_critical.dcd_rp2040_irq
                0x20000450      0x1b8 CMakeFiles/AHT20.dir/C_/VSARM/sdk/pico/pico-sdk/lib/tinyusb/src/portable/raspberrypi/rp2040/dcd_rp2040.c.obj
 .time_critical.e15_is_bulkin_ep
                0x20000608       0x2c CMakeFiles/AHT20.dir/C_/VSARM/sdk/pico/pico-sdk/lib/tinyusb/src/portable/raspberrypi/rp2040/rp2040_usb.c.obj
 .time_critical.e15_is_critical_frame_period
                0x20000634       0x30 CMakeFiles/AHT20.dir/C_/VSARM/sdk/pico/pico-sdk/lib/tinyusb/src/portable/raspberrypi/rp2040/rp2040_usb.c.obj
 .time_critical.prepare_ep_buffer
                0x20000664       0x6c CMakeFiles/AHT20.dir/C_/VSARM/sdk/pico/pico-sdk/lib/tinyusb/src/portable/raspberrypi/rp2040/rp2040_usb.c.obj
 .time_critical.sync_ep_buffer
                0x200006d0       0x7c CMakeFiles/AHT20.dir/C_/VSARM/sdk/pico/pico-sdk/lib/tinyusb/src/portable/raspberrypi/rp2040/rp2040_usb.c.obj
 .time_critical._hw_endpoint_xfer_sync
                0x2000074c       0x28 CMakeFiles/AHT20.dir/C_/VSARM/sdk/pico/pico-sdk/lib/tinyusb/src/portable/raspberrypi/rp2040/rp2040_usb.c.obj
 .time_critical.hw_endpoint_reset_transfer
                0x20000774        0xc CMakeFiles/AHT20.dir/C_/VSARM/sdk/pico/pico-sdk/lib/tinyusb/src/portable/raspberrypi/rp2040/rp2040_usb.c.obj
                0x20000774                hw_endpoint_reset_transfer
 .time_critical._hw_endpoint_buffer_control_update32
                0x20000780       0x58 CMakeFiles/AHT20.dir/C_/VSARM/sdk/pico/pico-sdk/lib/tinyusb/src/portable/raspberrypi/rp2040/rp2040_usb.c.obj
                0x20000780                _hw_endpoint_buffer_control_update32
 .time_critical.hw_endpoint_start_next_buffer
                0x200007d8       0x7c CMakeFiles/AHT20.dir/C_/VSARM/sdk/pico/pico-sdk/lib/tinyusb/src/portable/raspberrypi/rp2040/rp2040_usb.c.obj
                0x200007d8                hw_endpoint_start_next_buffer
 .time_critical.hw_endpoint_xfer_continue
                0x20000854       0x50 CMakeFiles/AHT20.dir/C_/VSARM/sdk/pico/pico-sdk/lib/tinyusb/src/portable/raspberrypi/rp2040/rp2040_usb.c.obj
                0x20000854                hw_endpoint_xfer_continue
 .time_critical.tinyusb
                0x200008a4      0x1ac CMakeFiles/AHT20.dir/C_/VSARM/sdk/pico/pico-sdk/lib/tinyusb/src/device/usbd.c.obj
                0x200008a4                dcd_event_handler
 *(.text*)
 .text          0x20000a50        0x4 c:/vsarm/armcc/125863~1.3re/bin/../lib/gcc/arm-none-eabi/12.3.1/thumb/v6-m/nofp\libgcc.a(_dvmd_tls.o)
                0x20000a50                __aeabi_idiv0
                0x20000a50                __aeabi_ldiv0
 *fill*         0x20000a54        0x4 
 .text.__stub   0x20000a58       0xa0 linker stubs
                0x20000af8                        . = ALIGN (0x4)
 *(.rodata*)
                0x20000af8                        . = ALIGN (0x4)
 *(.data*)
 .data.striped_spin_lock_num
                0x20000af8        0x1 CMakeFiles/AHT20.dir/C_/VSARM/sdk/pico/pico-sdk/src/rp2_common/hardware_sync/sync.c.obj
 *fill*         0x20000af9        0x3 
 .data          0x20000afc       0x48 CMakeFiles/AHT20.dir/C_/VSARM/sdk/pico/pico-sdk/src/rp2_common/hardware_irq/irq_handler_chain.S.obj
                0x20000afc                irq_handler_chain_slots
                0x20000b2c                irq_handler_chain_first_slot
                0x20000b36                irq_handler_chain_remove_tail
 .data.default_alarm_pool
                0x20000b44       0x18 CMakeFiles/AHT20.dir/C_/VSARM/sdk/pico/pico-sdk/src/common/pico_time/time.c.obj
 .data.default_alarm_pool_heap
                0x20000b5c       0x10 CMakeFiles/AHT20.dir/C_/VSARM/sdk/pico/pico-sdk/src/common/pico_time/time.c.obj
 *fill*         0x20000b6c        0x4 
 .data.aeabi_bits_funcs
                0x20000b70       0x10 CMakeFiles/AHT20.dir/C_/VSARM/sdk/pico/pico-sdk/src/rp2_common/pico_bit_ops/bit_ops_aeabi.S.obj
                0x20000b70                aeabi_bits_funcs
                0x20000b80                aeabi_bits_funcs_end
 .data.aeabi_mem_funcs
                0x20000b80       0x10 CMakeFiles/AHT20.dir/C_/VSARM/sdk/pico/pico-sdk/src/rp2_common/pico_mem_ops/mem_ops_aeabi.S.obj
                0x20000b80                aeabi_mem_funcs
                0x20000b90                aeabi_mem_funcs_end
 .data.stdio_usb
                0x20000b90       0x18 CMakeFiles/AHT20.dir/C_/VSARM/sdk/pico/pico-sdk/src/rp2_common/pico_stdio_usb/stdio_usb.c.obj
                0x20000b90                stdio_usb
 .data.ep_dir_string
                0x20000ba8        0x8 CMakeFiles/AHT20.dir/C_/VSARM/sdk/pico/pico-sdk/lib/tinyusb/src/portable/raspberrypi/rp2040/rp2040_usb.c.obj
                0x20000ba8                ep_dir_string
 .data._usbd_qdef
                0x20000bb0       0x1c CMakeFiles/AHT20.dir/C_/VSARM/sdk/pico/pico-sdk/lib/tinyusb/src/device/usbd.c.obj
                0x20000bb0                _usbd_qdef
 .data._usbd_rhport
                0x20000bcc        0x1 CMakeFiles/AHT20.dir/C_/VSARM/sdk/pico/pico-sdk/lib/tinyusb/src/device/usbd.c.obj
                0x20000bd0                        . = ALIGN (0x4)
 *fill*         0x20000bcd        0x3 
 *(.after_data.*)
                0x20000bd0                        . = ALIGN (0x4)
                0x20000bd0                        PROVIDE (__mutex_array_start = .)
 *(SORT_BY_NAME(.mutex_array.*))
 *(.mutex_array)
 .mutex_array   0x20000bd0        0x8 CMakeFiles/AHT20.dir/C_/VSARM/sdk/pico/pico-sdk/src/rp2_common/pico_stdio/stdio.c.obj
                0x20000bd8                        PROVIDE (__mutex_array_end = .)
                0x20000bd8                        . = ALIGN (0x4)
                0x20000bd8                        PROVIDE (__preinit_array_start = .)
 *(SORT_BY_NAME(.preinit_array.*))
 .preinit_array.00001
                0x20000bd8        0x4 CMakeFiles/AHT20.dir/C_/VSARM/sdk/pico/pico-sdk/src/rp2_common/pico_mem_ops/mem_ops_aeabi.S.obj
 .preinit_array.00010
                0x20000bdc        0x4 CMakeFiles/AHT20.dir/C_/VSARM/sdk/pico/pico-sdk/src/rp2_common/pico_bit_ops/bit_ops_aeabi.S.obj
 .preinit_array.00020
                0x20000be0        0x4 CMakeFiles/AHT20.dir/C_/VSARM/sdk/pico/pico-sdk/src/rp2_common/pico_double/double_aeabi.S.obj
 .preinit_array.00020
                0x20000be4        0x4 CMakeFiles/AHT20.dir/C_/VSARM/sdk/pico/pico-sdk/src/rp2_common/pico_float/float_aeabi.S.obj
 *(.preinit_array)
                0x20000be8                        PROVIDE (__preinit_array_end = .)
                0x20000be8                        . = ALIGN (0x4)
                0x20000be8                        PROVIDE (__init_array_start = .)
 *(SORT_BY_NAME(.init_array.*))
 *(.init_array)
 .init_array    0x20000be8        0x4 c:/vsarm/armcc/125863~1.3re/bin/../lib/gcc/arm-none-eabi/12.3.1/thumb/v6-m/nofp/crtbegin.o
 .init_array    0x20000bec        0x4 CMakeFiles/AHT20.dir/C_/VSARM/sdk/pico/pico-sdk/src/rp2_common/pico_unique_id/unique_id.c.obj
                0x20000bf0                        PROVIDE (__init_array_end = .)
                0x20000bf0                        . = ALIGN (0x4)
                [!provide]                        PROVIDE (__fini_array_start = .)
 *(SORT_BY_NAME(.fini_array.*))
 *(.fini_array)
                [!provide]                        PROVIDE (__fini_array_end = .)
 *(.jcr)
                0x20000bf0                        . = ALIGN (0x4)
                0x20000bf0                        __data_end__ = .
                0x10007c70                        __etext = LOADADDR (.data)

.tm_clone_table
                0x20000bf0        0x0 load address 0x100087a0
 .tm_clone_table
                0x20000bf0        0x0 c:/vsarm/armcc/125863~1.3re/bin/../lib/gcc/arm-none-eabi/12.3.1/thumb/v6-m/nofp/crtbegin.o
 .tm_clone_table
                0x20000bf0        0x0 c:/vsarm/armcc/125863~1.3re/bin/../lib/gcc/arm-none-eabi/12.3.1/thumb/v6-m/nofp/crtend.o

.igot.plt       0x20000bf0        0x0 load address 0x100087a0
 .igot.plt      0x20000bf0        0x0 c:/vsarm/armcc/125863~1.3re/bin/../lib/gcc/arm-none-eabi/12.3.1/thumb/v6-m/nofp/crtbegin.o

.uninitialized_data
                0x20000bf0        0x0 load address 0x100087a0
                0x20000bf0                        . = ALIGN (0x4)
 *(.uninitialized_data*)

.scratch_x      0x20040000        0x0 load address 0x100087a0
                0x20040000                        __scratch_x_start__ = .
 *(.scratch_x.*)
                0x20040000                        . = ALIGN (0x4)
                0x20040000                        __scratch_x_end__ = .
                0x100087a0                        __scratch_x_source__ = LOADADDR (.scratch_x)

.scratch_y      0x20041000        0x0 load address 0x100087a0
                0x20041000                        __scratch_y_start__ = .
 *(.scratch_y.*)
                0x20041000                        . = ALIGN (0x4)
                0x20041000                        __scratch_y_end__ = .
                0x100087a0                        __scratch_y_source__ = LOADADDR (.scratch_y)

.bss            0x20000bf0      0xd80
                0x20000bf0                        . = ALIGN (0x4)
                0x20000bf0                        __bss_start__ = .
 *(SORT_BY_ALIGNMENT(SORT_BY_NAME(.bss*)))
 .bss.default_alarm_pool_entries
                0x20000bf0      0x100 CMakeFiles/AHT20.dir/C_/VSARM/sdk/pico/pico-sdk/src/common/pico_time/time.c.obj
 .bss.last_avail_time.2
                0x20000cf0        0x8 CMakeFiles/AHT20.dir/C_/VSARM/sdk/pico/pico-sdk/src/rp2_common/pico_stdio_usb/stdio_usb.c.obj
 .bss._app_driver
                0x20000cf8        0x4 CMakeFiles/AHT20.dir/C_/VSARM/sdk/pico/pico-sdk/lib/tinyusb/src/device/usbd.c.obj
 .bss._cdcd_itf
                0x20000cfc      0x2c8 CMakeFiles/AHT20.dir/C_/VSARM/sdk/pico/pico-sdk/lib/tinyusb/src/class/cdc/cdc_device.c.obj
 .bss._ctrl_xfer
                0x20000fc4       0x14 CMakeFiles/AHT20.dir/C_/VSARM/sdk/pico/pico-sdk/lib/tinyusb/src/device/usbd_control.c.obj
 .bss._ubsd_mutexdef
                0x20000fd8        0x8 CMakeFiles/AHT20.dir/C_/VSARM/sdk/pico/pico-sdk/lib/tinyusb/src/device/usbd.c.obj
 .bss._usbd_ctrl_buf
                0x20000fe0       0x40 CMakeFiles/AHT20.dir/C_/VSARM/sdk/pico/pico-sdk/lib/tinyusb/src/device/usbd_control.c.obj
 .bss._usbd_dev
                0x20001020       0x53 CMakeFiles/AHT20.dir/C_/VSARM/sdk/pico/pico-sdk/lib/tinyusb/src/device/usbd.c.obj
 *fill*         0x20001073        0x1 
 .bss._usbd_mutex
                0x20001074        0x4 CMakeFiles/AHT20.dir/C_/VSARM/sdk/pico/pico-sdk/lib/tinyusb/src/device/usbd.c.obj
 .bss._usbd_q   0x20001078        0x4 CMakeFiles/AHT20.dir/C_/VSARM/sdk/pico/pico-sdk/lib/tinyusb/src/device/usbd.c.obj
 .bss._usbd_qdef_buf
                0x2000107c       0xc0 CMakeFiles/AHT20.dir/C_/VSARM/sdk/pico/pico-sdk/lib/tinyusb/src/device/usbd.c.obj
                0x2000107c                _usbd_qdef_buf
 .bss.alarm_callbacks
                0x2000113c       0x10 CMakeFiles/AHT20.dir/C_/VSARM/sdk/pico/pico-sdk/src/rp2_common/hardware_timer/timer.c.obj
 .bss.boot2_copyout
                0x2000114c      0x100 CMakeFiles/AHT20.dir/C_/VSARM/sdk/pico/pico-sdk/src/rp2_common/hardware_flash/flash.c.obj
 .bss.chars_available_callback
                0x2000124c        0x4 CMakeFiles/AHT20.dir/C_/VSARM/sdk/pico/pico-sdk/src/rp2_common/pico_stdio_usb/stdio_usb.c.obj
 .bss.chars_available_param
                0x20001250        0x4 CMakeFiles/AHT20.dir/C_/VSARM/sdk/pico/pico-sdk/src/rp2_common/pico_stdio_usb/stdio_usb.c.obj
 .bss.claimed   0x20001254        0x4 CMakeFiles/AHT20.dir/C_/VSARM/sdk/pico/pico-sdk/src/rp2_common/hardware_sync/sync.c.obj
 .bss.configured_freq
                0x20001258       0x28 CMakeFiles/AHT20.dir/C_/VSARM/sdk/pico/pico-sdk/src/rp2_common/hardware_clocks/clocks.c.obj
 .bss.default_alarm_pool_entry_ids_high
                0x20001280       0x10 CMakeFiles/AHT20.dir/C_/VSARM/sdk/pico/pico-sdk/src/common/pico_time/time.c.obj
 .bss.default_alarm_pool_heap_nodes
                0x20001290       0x30 CMakeFiles/AHT20.dir/C_/VSARM/sdk/pico/pico-sdk/src/common/pico_time/time.c.obj
 .bss.desc_str.0
                0x200012c0       0x28 CMakeFiles/AHT20.dir/C_/VSARM/sdk/pico/pico-sdk/src/rp2_common/pico_stdio_usb/stdio_usb_descriptors.c.obj
 .bss.drivers   0x200012e8        0x4 CMakeFiles/AHT20.dir/C_/VSARM/sdk/pico/pico-sdk/src/rp2_common/pico_stdio/stdio.c.obj
 .bss.e15_last_sof
                0x200012ec        0x4 CMakeFiles/AHT20.dir/C_/VSARM/sdk/pico/pico-sdk/lib/tinyusb/src/portable/raspberrypi/rp2040/rp2040_usb.c.obj
                0x200012ec                e15_last_sof
 .bss.filter    0x200012f0        0x4 CMakeFiles/AHT20.dir/C_/VSARM/sdk/pico/pico-sdk/src/rp2_common/pico_stdio/stdio.c.obj
 .bss.hw_endpoints
                0x200012f4      0x400 CMakeFiles/AHT20.dir/C_/VSARM/sdk/pico/pico-sdk/lib/tinyusb/src/portable/raspberrypi/rp2040/dcd_rp2040.c.obj
 .bss.load_value
                0x200016f4        0x4 CMakeFiles/AHT20.dir/C_/VSARM/sdk/pico/pico-sdk/src/rp2_common/hardware_watchdog/watchdog.c.obj
 .bss.next_buffer_ptr
                0x200016f8        0x4 CMakeFiles/AHT20.dir/C_/VSARM/sdk/pico/pico-sdk/lib/tinyusb/src/portable/raspberrypi/rp2040/dcd_rp2040.c.obj
 .bss.object.0  0x200016fc       0x18 c:/vsarm/armcc/125863~1.3re/bin/../lib/gcc/arm-none-eabi/12.3.1/thumb/v6-m/nofp/crtbegin.o
 .bss.one_shot_timer_crit_sec
                0x20001714        0x8 CMakeFiles/AHT20.dir/C_/VSARM/sdk/pico/pico-sdk/src/rp2_common/pico_stdio_usb/stdio_usb.c.obj
 .bss.pools     0x2000171c       0x10 CMakeFiles/AHT20.dir/C_/VSARM/sdk/pico/pico-sdk/src/common/pico_time/time.c.obj
 .bss.retrieved_id
                0x2000172c        0x8 CMakeFiles/AHT20.dir/C_/VSARM/sdk/pico/pico-sdk/src/rp2_common/pico_unique_id/unique_id.c.obj
 .bss.sd_table  0x20001734      0x100 CMakeFiles/AHT20.dir/C_/VSARM/sdk/pico/pico-sdk/src/rp2_common/pico_double/double_init_rom.c.obj
                0x20001734                sd_table
 .bss.sf_clz_func
                0x20001834        0x4 CMakeFiles/AHT20.dir/C_/VSARM/sdk/pico/pico-sdk/src/rp2_common/pico_double/double_init_rom.c.obj
                0x20001834                sf_clz_func
 .bss.sf_table  0x20001838      0x100 CMakeFiles/AHT20.dir/C_/VSARM/sdk/pico/pico-sdk/src/rp2_common/pico_float/float_init_rom.c.obj
                0x20001838                sf_table
 .bss.sleep_notifier
                0x20001938        0x4 CMakeFiles/AHT20.dir/C_/VSARM/sdk/pico/pico-sdk/src/common/pico_time/time.c.obj
 .bss.stdio_usb_mutex
                0x2000193c        0x8 CMakeFiles/AHT20.dir/C_/VSARM/sdk/pico/pico-sdk/src/rp2_common/pico_stdio_usb/stdio_usb.c.obj
 .bss.target_hi
                0x20001944       0x10 CMakeFiles/AHT20.dir/C_/VSARM/sdk/pico/pico-sdk/src/rp2_common/hardware_timer/timer.c.obj
 .bss.usbd_serial_str
                0x20001954       0x11 CMakeFiles/AHT20.dir/C_/VSARM/sdk/pico/pico-sdk/src/rp2_common/pico_stdio_usb/stdio_usb_descriptors.c.obj
 .bss._app_driver_count
                0x20001965        0x1 CMakeFiles/AHT20.dir/C_/VSARM/sdk/pico/pico-sdk/lib/tinyusb/src/device/usbd.c.obj
 .bss._sof_enable
                0x20001966        0x1 CMakeFiles/AHT20.dir/C_/VSARM/sdk/pico/pico-sdk/lib/tinyusb/src/portable/raspberrypi/rp2040/dcd_rp2040.c.obj
 .bss.boot2_copyout_valid
                0x20001967        0x1 CMakeFiles/AHT20.dir/C_/VSARM/sdk/pico/pico-sdk/src/rp2_common/hardware_flash/flash.c.obj
 .bss.claimed   0x20001968        0x1 CMakeFiles/AHT20.dir/C_/VSARM/sdk/pico/pico-sdk/src/rp2_common/hardware_timer/timer.c.obj
 .bss.irq_hander_chain_free_slot_head
                0x20001969        0x1 CMakeFiles/AHT20.dir/C_/VSARM/sdk/pico/pico-sdk/src/rp2_common/hardware_irq/irq.c.obj
 .bss.itf_num   0x2000196a        0x1 CMakeFiles/AHT20.dir/C_/VSARM/sdk/pico/pico-sdk/src/rp2_common/pico_stdio_usb/reset_interface.c.obj
 .bss.low_priority_irq_num
                0x2000196b        0x1 CMakeFiles/AHT20.dir/C_/VSARM/sdk/pico/pico-sdk/src/rp2_common/pico_stdio_usb/stdio_usb.c.obj
 .bss.one_shot_timer_pending
                0x2000196c        0x1 CMakeFiles/AHT20.dir/C_/VSARM/sdk/pico/pico-sdk/src/rp2_common/pico_stdio_usb/stdio_usb.c.obj
 .bss.timer_callbacks_pending
                0x2000196d        0x1 CMakeFiles/AHT20.dir/C_/VSARM/sdk/pico/pico-sdk/src/rp2_common/hardware_timer/timer.c.obj
 .bss.user_irq_claimed
                0x2000196e        0x1 CMakeFiles/AHT20.dir/C_/VSARM/sdk/pico/pico-sdk/src/rp2_common/hardware_irq/irq.c.obj
 *(COMMON)
                0x20001970                        . = ALIGN (0x4)
 *fill*         0x2000196f        0x1 
                0x20001970                        __bss_end__ = .

.heap           0x20001970      0x800
                0x20001970                        __end__ = .
                0x20001970                        end = __end__
 *(.heap*)
 .heap          0x20001970      0x800 CMakeFiles/AHT20.dir/C_/VSARM/sdk/pico/pico-sdk/src/rp2_common/pico_standard_link/crt0.S.obj
                0x20002170                        __HeapLimit = .

.stack1_dummy
 *(.stack1*)

.stack_dummy    0x20041000      0x800
 *(.stack*)
 .stack         0x20041000      0x800 CMakeFiles/AHT20.dir/C_/VSARM/sdk/pico/pico-sdk/src/rp2_common/pico_standard_link/crt0.S.obj

.flash_end      0x100087a0        0x0
                0x100087a0                        PROVIDE (__flash_binary_end = .)
                0x20040000                        __StackLimit = (ORIGIN (RAM) + LENGTH (RAM))
                0x20041000                        __StackOneTop = (ORIGIN (SCRATCH_X) + LENGTH (SCRATCH_X))
                0x20042000                        __StackTop = (ORIGIN (SCRATCH_Y) + LENGTH (SCRATCH_Y))
                0x20041000                        __StackOneBottom = (__StackOneTop - SIZEOF (.stack1_dummy))
                0x20041800                        __StackBottom = (__StackTop - SIZEOF (.stack_dummy))
                0x20042000                        PROVIDE (__stack = __StackTop)
                0x00000001                        ASSERT ((__StackLimit >= __HeapLimit), region RAM overflowed)
                0x00000001                        ASSERT (((__binary_info_header_end - __logical_binary_start) <= 0x100), Binary info must be in first 256 bytes of the binary)
LOAD CMakeFiles/AHT20.dir/main.cpp.obj
LOAD CMakeFiles/AHT20.dir/AHT20/AHT20.cpp.obj
LOAD CMakeFiles/AHT20.dir/BTN/BTN.cpp.obj
LOAD CMakeFiles/AHT20.dir/BUZZER/Buzzer.cpp.obj
LOAD CMakeFiles/AHT20.dir/C_/VSARM/sdk/pico/pico-sdk/src/rp2_common/pico_stdlib/stdlib.c.obj
LOAD CMakeFiles/AHT20.dir/C_/VSARM/sdk/pico/pico-sdk/src/rp2_common/hardware_gpio/gpio.c.obj
LOAD CMakeFiles/AHT20.dir/C_/VSARM/sdk/pico/pico-sdk/src/rp2_common/pico_platform/platform.c.obj
LOAD CMakeFiles/AHT20.dir/C_/VSARM/sdk/pico/pico-sdk/src/rp2_common/hardware_claim/claim.c.obj
LOAD CMakeFiles/AHT20.dir/C_/VSARM/sdk/pico/pico-sdk/src/rp2_common/hardware_sync/sync.c.obj
LOAD CMakeFiles/AHT20.dir/C_/VSARM/sdk/pico/pico-sdk/src/rp2_common/hardware_irq/irq.c.obj
LOAD CMakeFiles/AHT20.dir/C_/VSARM/sdk/pico/pico-sdk/src/rp2_common/hardware_irq/irq_handler_chain.S.obj
LOAD CMakeFiles/AHT20.dir/C_/VSARM/sdk/pico/pico-sdk/src/common/pico_sync/sem.c.obj
LOAD CMakeFiles/AHT20.dir/C_/VSARM/sdk/pico/pico-sdk/src/common/pico_sync/lock_core.c.obj
LOAD CMakeFiles/AHT20.dir/C_/VSARM/sdk/pico/pico-sdk/src/common/pico_sync/mutex.c.obj
LOAD CMakeFiles/AHT20.dir/C_/VSARM/sdk/pico/pico-sdk/src/common/pico_sync/critical_section.c.obj
LOAD CMakeFiles/AHT20.dir/C_/VSARM/sdk/pico/pico-sdk/src/common/pico_time/time.c.obj
LOAD CMakeFiles/AHT20.dir/C_/VSARM/sdk/pico/pico-sdk/src/common/pico_time/timeout_helper.c.obj
LOAD CMakeFiles/AHT20.dir/C_/VSARM/sdk/pico/pico-sdk/src/rp2_common/hardware_timer/timer.c.obj
LOAD CMakeFiles/AHT20.dir/C_/VSARM/sdk/pico/pico-sdk/src/common/pico_util/datetime.c.obj
LOAD CMakeFiles/AHT20.dir/C_/VSARM/sdk/pico/pico-sdk/src/common/pico_util/pheap.c.obj
LOAD CMakeFiles/AHT20.dir/C_/VSARM/sdk/pico/pico-sdk/src/common/pico_util/queue.c.obj
LOAD CMakeFiles/AHT20.dir/C_/VSARM/sdk/pico/pico-sdk/src/rp2_common/hardware_uart/uart.c.obj
LOAD CMakeFiles/AHT20.dir/C_/VSARM/sdk/pico/pico-sdk/src/rp2_common/hardware_clocks/clocks.c.obj
LOAD CMakeFiles/AHT20.dir/C_/VSARM/sdk/pico/pico-sdk/src/rp2_common/hardware_pll/pll.c.obj
LOAD CMakeFiles/AHT20.dir/C_/VSARM/sdk/pico/pico-sdk/src/rp2_common/hardware_vreg/vreg.c.obj
LOAD CMakeFiles/AHT20.dir/C_/VSARM/sdk/pico/pico-sdk/src/rp2_common/hardware_watchdog/watchdog.c.obj
LOAD CMakeFiles/AHT20.dir/C_/VSARM/sdk/pico/pico-sdk/src/rp2_common/hardware_xosc/xosc.c.obj
LOAD CMakeFiles/AHT20.dir/C_/VSARM/sdk/pico/pico-sdk/src/rp2_common/hardware_divider/divider.S.obj
LOAD CMakeFiles/AHT20.dir/C_/VSARM/sdk/pico/pico-sdk/src/rp2_common/pico_runtime/runtime.c.obj
LOAD CMakeFiles/AHT20.dir/C_/VSARM/sdk/pico/pico-sdk/src/rp2_common/pico_printf/printf.c.obj
LOAD CMakeFiles/AHT20.dir/C_/VSARM/sdk/pico/pico-sdk/src/rp2_common/pico_bit_ops/bit_ops_aeabi.S.obj
LOAD CMakeFiles/AHT20.dir/C_/VSARM/sdk/pico/pico-sdk/src/rp2_common/pico_bootrom/bootrom.c.obj
LOAD CMakeFiles/AHT20.dir/C_/VSARM/sdk/pico/pico-sdk/src/rp2_common/pico_divider/divider.S.obj
LOAD CMakeFiles/AHT20.dir/C_/VSARM/sdk/pico/pico-sdk/src/rp2_common/pico_double/double_aeabi.S.obj
LOAD CMakeFiles/AHT20.dir/C_/VSARM/sdk/pico/pico-sdk/src/rp2_common/pico_double/double_init_rom.c.obj
LOAD CMakeFiles/AHT20.dir/C_/VSARM/sdk/pico/pico-sdk/src/rp2_common/pico_double/double_math.c.obj
LOAD CMakeFiles/AHT20.dir/C_/VSARM/sdk/pico/pico-sdk/src/rp2_common/pico_double/double_v1_rom_shim.S.obj
LOAD CMakeFiles/AHT20.dir/C_/VSARM/sdk/pico/pico-sdk/src/rp2_common/pico_int64_ops/pico_int64_ops_aeabi.S.obj
LOAD CMakeFiles/AHT20.dir/C_/VSARM/sdk/pico/pico-sdk/src/rp2_common/pico_float/float_aeabi.S.obj
LOAD CMakeFiles/AHT20.dir/C_/VSARM/sdk/pico/pico-sdk/src/rp2_common/pico_float/float_init_rom.c.obj
LOAD CMakeFiles/AHT20.dir/C_/VSARM/sdk/pico/pico-sdk/src/rp2_common/pico_float/float_math.c.obj
LOAD CMakeFiles/AHT20.dir/C_/VSARM/sdk/pico/pico-sdk/src/rp2_common/pico_float/float_v1_rom_shim.S.obj
LOAD CMakeFiles/AHT20.dir/C_/VSARM/sdk/pico/pico-sdk/src/rp2_common/pico_malloc/pico_malloc.c.obj
LOAD CMakeFiles/AHT20.dir/C_/VSARM/sdk/pico/pico-sdk/src/rp2_common/pico_mem_ops/mem_ops_aeabi.S.obj
LOAD CMakeFiles/AHT20.dir/C_/VSARM/sdk/pico/pico-sdk/src/rp2_common/pico_standard_link/crt0.S.obj
LOAD CMakeFiles/AHT20.dir/C_/VSARM/sdk/pico/pico-sdk/src/rp2_common/pico_standard_link/new_delete.cpp.obj
LOAD CMakeFiles/AHT20.dir/C_/VSARM/sdk/pico/pico-sdk/src/rp2_common/pico_standard_link/binary_info.c.obj
LOAD CMakeFiles/AHT20.dir/C_/VSARM/sdk/pico/pico-sdk/src/rp2_common/pico_stdio/stdio.c.obj
LOAD CMakeFiles/AHT20.dir/C_/VSARM/sdk/pico/pico-sdk/src/rp2_common/pico_stdio_usb/reset_interface.c.obj
LOAD CMakeFiles/AHT20.dir/C_/VSARM/sdk/pico/pico-sdk/src/rp2_common/pico_stdio_usb/stdio_usb.c.obj
LOAD CMakeFiles/AHT20.dir/C_/VSARM/sdk/pico/pico-sdk/src/rp2_common/pico_stdio_usb/stdio_usb_descriptors.c.obj
LOAD CMakeFiles/AHT20.dir/C_/VSARM/sdk/pico/pico-sdk/src/rp2_common/pico_unique_id/unique_id.c.obj
LOAD CMakeFiles/AHT20.dir/C_/VSARM/sdk/pico/pico-sdk/src/rp2_common/hardware_flash/flash.c.obj
LOAD CMakeFiles/AHT20.dir/C_/VSARM/sdk/pico/pico-sdk/lib/tinyusb/src/portable/raspberrypi/rp2040/dcd_rp2040.c.obj
LOAD CMakeFiles/AHT20.dir/C_/VSARM/sdk/pico/pico-sdk/lib/tinyusb/src/portable/raspberrypi/rp2040/rp2040_usb.c.obj
LOAD CMakeFiles/AHT20.dir/C_/VSARM/sdk/pico/pico-sdk/lib/tinyusb/src/device/usbd.c.obj
LOAD CMakeFiles/AHT20.dir/C_/VSARM/sdk/pico/pico-sdk/lib/tinyusb/src/device/usbd_control.c.obj
LOAD CMakeFiles/AHT20.dir/C_/VSARM/sdk/pico/pico-sdk/lib/tinyusb/src/class/audio/audio_device.c.obj
LOAD CMakeFiles/AHT20.dir/C_/VSARM/sdk/pico/pico-sdk/lib/tinyusb/src/class/cdc/cdc_device.c.obj
LOAD CMakeFiles/AHT20.dir/C_/VSARM/sdk/pico/pico-sdk/lib/tinyusb/src/class/dfu/dfu_device.c.obj
LOAD CMakeFiles/AHT20.dir/C_/VSARM/sdk/pico/pico-sdk/lib/tinyusb/src/class/dfu/dfu_rt_device.c.obj
LOAD CMakeFiles/AHT20.dir/C_/VSARM/sdk/pico/pico-sdk/lib/tinyusb/src/class/hid/hid_device.c.obj
LOAD CMakeFiles/AHT20.dir/C_/VSARM/sdk/pico/pico-sdk/lib/tinyusb/src/class/midi/midi_device.c.obj
LOAD CMakeFiles/AHT20.dir/C_/VSARM/sdk/pico/pico-sdk/lib/tinyusb/src/class/msc/msc_device.c.obj
LOAD CMakeFiles/AHT20.dir/C_/VSARM/sdk/pico/pico-sdk/lib/tinyusb/src/class/net/ecm_rndis_device.c.obj
LOAD CMakeFiles/AHT20.dir/C_/VSARM/sdk/pico/pico-sdk/lib/tinyusb/src/class/net/ncm_device.c.obj
LOAD CMakeFiles/AHT20.dir/C_/VSARM/sdk/pico/pico-sdk/lib/tinyusb/src/class/usbtmc/usbtmc_device.c.obj
LOAD CMakeFiles/AHT20.dir/C_/VSARM/sdk/pico/pico-sdk/lib/tinyusb/src/class/vendor/vendor_device.c.obj
LOAD CMakeFiles/AHT20.dir/C_/VSARM/sdk/pico/pico-sdk/lib/tinyusb/src/class/video/video_device.c.obj
LOAD CMakeFiles/AHT20.dir/C_/VSARM/sdk/pico/pico-sdk/lib/tinyusb/src/tusb.c.obj
LOAD CMakeFiles/AHT20.dir/C_/VSARM/sdk/pico/pico-sdk/lib/tinyusb/src/common/tusb_fifo.c.obj
LOAD CMakeFiles/AHT20.dir/C_/VSARM/sdk/pico/pico-sdk/src/rp2_common/pico_fix/rp2040_usb_device_enumeration/rp2040_usb_device_enumeration.c.obj
LOAD CMakeFiles/AHT20.dir/C_/VSARM/sdk/pico/pico-sdk/src/rp2_common/hardware_i2c/i2c.c.obj
LOAD CMakeFiles/AHT20.dir/C_/VSARM/sdk/pico/pico-sdk/src/rp2_common/pico_lwip/lwip_nosys.c.obj
LOAD CMakeFiles/AHT20.dir/C_/VSARM/sdk/pico/pico-sdk/src/rp2_common/pico_async_context/async_context_base.c.obj
LOAD CMakeFiles/AHT20.dir/C_/VSARM/sdk/pico/pico-sdk/src/rp2_common/pico_rand/rand.c.obj
LOAD CMakeFiles/AHT20.dir/C_/VSARM/sdk/pico/pico-sdk/lib/lwip/src/core/init.c.obj
LOAD CMakeFiles/AHT20.dir/C_/VSARM/sdk/pico/pico-sdk/lib/lwip/src/core/def.c.obj
LOAD CMakeFiles/AHT20.dir/C_/VSARM/sdk/pico/pico-sdk/lib/lwip/src/core/dns.c.obj
LOAD CMakeFiles/AHT20.dir/C_/VSARM/sdk/pico/pico-sdk/lib/lwip/src/core/inet_chksum.c.obj
LOAD CMakeFiles/AHT20.dir/C_/VSARM/sdk/pico/pico-sdk/lib/lwip/src/core/ip.c.obj
LOAD CMakeFiles/AHT20.dir/C_/VSARM/sdk/pico/pico-sdk/lib/lwip/src/core/mem.c.obj
LOAD CMakeFiles/AHT20.dir/C_/VSARM/sdk/pico/pico-sdk/lib/lwip/src/core/memp.c.obj
LOAD CMakeFiles/AHT20.dir/C_/VSARM/sdk/pico/pico-sdk/lib/lwip/src/core/netif.c.obj
LOAD CMakeFiles/AHT20.dir/C_/VSARM/sdk/pico/pico-sdk/lib/lwip/src/core/pbuf.c.obj
LOAD CMakeFiles/AHT20.dir/C_/VSARM/sdk/pico/pico-sdk/lib/lwip/src/core/raw.c.obj
LOAD CMakeFiles/AHT20.dir/C_/VSARM/sdk/pico/pico-sdk/lib/lwip/src/core/stats.c.obj
LOAD CMakeFiles/AHT20.dir/C_/VSARM/sdk/pico/pico-sdk/lib/lwip/src/core/sys.c.obj
LOAD CMakeFiles/AHT20.dir/C_/VSARM/sdk/pico/pico-sdk/lib/lwip/src/core/altcp.c.obj
LOAD CMakeFiles/AHT20.dir/C_/VSARM/sdk/pico/pico-sdk/lib/lwip/src/core/altcp_alloc.c.obj
LOAD CMakeFiles/AHT20.dir/C_/VSARM/sdk/pico/pico-sdk/lib/lwip/src/core/altcp_tcp.c.obj
LOAD CMakeFiles/AHT20.dir/C_/VSARM/sdk/pico/pico-sdk/lib/lwip/src/core/tcp.c.obj
LOAD CMakeFiles/AHT20.dir/C_/VSARM/sdk/pico/pico-sdk/lib/lwip/src/core/tcp_in.c.obj
LOAD CMakeFiles/AHT20.dir/C_/VSARM/sdk/pico/pico-sdk/lib/lwip/src/core/tcp_out.c.obj
LOAD CMakeFiles/AHT20.dir/C_/VSARM/sdk/pico/pico-sdk/lib/lwip/src/core/timeouts.c.obj
LOAD CMakeFiles/AHT20.dir/C_/VSARM/sdk/pico/pico-sdk/lib/lwip/src/core/udp.c.obj
LOAD CMakeFiles/AHT20.dir/C_/VSARM/sdk/pico/pico-sdk/lib/lwip/src/core/ipv4/autoip.c.obj
LOAD CMakeFiles/AHT20.dir/C_/VSARM/sdk/pico/pico-sdk/lib/lwip/src/core/ipv4/dhcp.c.obj
LOAD CMakeFiles/AHT20.dir/C_/VSARM/sdk/pico/pico-sdk/lib/lwip/src/core/ipv4/etharp.c.obj
LOAD CMakeFiles/AHT20.dir/C_/VSARM/sdk/pico/pico-sdk/lib/lwip/src/core/ipv4/icmp.c.obj
LOAD CMakeFiles/AHT20.dir/C_/VSARM/sdk/pico/pico-sdk/lib/lwip/src/core/ipv4/igmp.c.obj
LOAD CMakeFiles/AHT20.dir/C_/VSARM/sdk/pico/pico-sdk/lib/lwip/src/core/ipv4/ip4_frag.c.obj
LOAD CMakeFiles/AHT20.dir/C_/VSARM/sdk/pico/pico-sdk/lib/lwip/src/core/ipv4/ip4.c.obj
LOAD CMakeFiles/AHT20.dir/C_/VSARM/sdk/pico/pico-sdk/lib/lwip/src/core/ipv4/ip4_addr.c.obj
LOAD CMakeFiles/AHT20.dir/C_/VSARM/sdk/pico/pico-sdk/lib/lwip/src/core/ipv4/acd.c.obj
LOAD CMakeFiles/AHT20.dir/C_/VSARM/sdk/pico/pico-sdk/lib/lwip/src/core/ipv6/dhcp6.c.obj
LOAD CMakeFiles/AHT20.dir/C_/VSARM/sdk/pico/pico-sdk/lib/lwip/src/core/ipv6/ethip6.c.obj
LOAD CMakeFiles/AHT20.dir/C_/VSARM/sdk/pico/pico-sdk/lib/lwip/src/core/ipv6/icmp6.c.obj
LOAD CMakeFiles/AHT20.dir/C_/VSARM/sdk/pico/pico-sdk/lib/lwip/src/core/ipv6/inet6.c.obj
LOAD CMakeFiles/AHT20.dir/C_/VSARM/sdk/pico/pico-sdk/lib/lwip/src/core/ipv6/ip6.c.obj
LOAD CMakeFiles/AHT20.dir/C_/VSARM/sdk/pico/pico-sdk/lib/lwip/src/core/ipv6/ip6_addr.c.obj
LOAD CMakeFiles/AHT20.dir/C_/VSARM/sdk/pico/pico-sdk/lib/lwip/src/core/ipv6/ip6_frag.c.obj
LOAD CMakeFiles/AHT20.dir/C_/VSARM/sdk/pico/pico-sdk/lib/lwip/src/core/ipv6/mld6.c.obj
LOAD CMakeFiles/AHT20.dir/C_/VSARM/sdk/pico/pico-sdk/lib/lwip/src/core/ipv6/nd6.c.obj
LOAD CMakeFiles/AHT20.dir/C_/VSARM/sdk/pico/pico-sdk/lib/lwip/src/api/api_lib.c.obj
LOAD CMakeFiles/AHT20.dir/C_/VSARM/sdk/pico/pico-sdk/lib/lwip/src/api/api_msg.c.obj
LOAD CMakeFiles/AHT20.dir/C_/VSARM/sdk/pico/pico-sdk/lib/lwip/src/api/err.c.obj
LOAD CMakeFiles/AHT20.dir/C_/VSARM/sdk/pico/pico-sdk/lib/lwip/src/api/if_api.c.obj
LOAD CMakeFiles/AHT20.dir/C_/VSARM/sdk/pico/pico-sdk/lib/lwip/src/api/netbuf.c.obj
LOAD CMakeFiles/AHT20.dir/C_/VSARM/sdk/pico/pico-sdk/lib/lwip/src/api/netdb.c.obj
LOAD CMakeFiles/AHT20.dir/C_/VSARM/sdk/pico/pico-sdk/lib/lwip/src/api/netifapi.c.obj
LOAD CMakeFiles/AHT20.dir/C_/VSARM/sdk/pico/pico-sdk/lib/lwip/src/api/sockets.c.obj
LOAD CMakeFiles/AHT20.dir/C_/VSARM/sdk/pico/pico-sdk/lib/lwip/src/api/tcpip.c.obj
LOAD CMakeFiles/AHT20.dir/C_/VSARM/sdk/pico/pico-sdk/lib/lwip/src/netif/ethernet.c.obj
LOAD CMakeFiles/AHT20.dir/C_/VSARM/sdk/pico/pico-sdk/lib/lwip/src/netif/bridgeif.c.obj
LOAD CMakeFiles/AHT20.dir/C_/VSARM/sdk/pico/pico-sdk/lib/lwip/src/netif/bridgeif_fdb.c.obj
LOAD CMakeFiles/AHT20.dir/C_/VSARM/sdk/pico/pico-sdk/lib/lwip/src/netif/slipif.c.obj
LOAD CMakeFiles/AHT20.dir/C_/VSARM/sdk/pico/pico-sdk/lib/lwip/src/netif/lowpan6_common.c.obj
LOAD CMakeFiles/AHT20.dir/C_/VSARM/sdk/pico/pico-sdk/lib/lwip/src/netif/lowpan6.c.obj
LOAD CMakeFiles/AHT20.dir/C_/VSARM/sdk/pico/pico-sdk/lib/lwip/src/netif/lowpan6_ble.c.obj
LOAD CMakeFiles/AHT20.dir/C_/VSARM/sdk/pico/pico-sdk/lib/lwip/src/netif/zepif.c.obj
LOAD CMakeFiles/AHT20.dir/C_/VSARM/sdk/pico/pico-sdk/lib/lwip/src/netif/ppp/auth.c.obj
LOAD CMakeFiles/AHT20.dir/C_/VSARM/sdk/pico/pico-sdk/lib/lwip/src/netif/ppp/ccp.c.obj
LOAD CMakeFiles/AHT20.dir/C_/VSARM/sdk/pico/pico-sdk/lib/lwip/src/netif/ppp/chap-md5.c.obj
LOAD CMakeFiles/AHT20.dir/C_/VSARM/sdk/pico/pico-sdk/lib/lwip/src/netif/ppp/chap_ms.c.obj
LOAD CMakeFiles/AHT20.dir/C_/VSARM/sdk/pico/pico-sdk/lib/lwip/src/netif/ppp/chap-new.c.obj
LOAD CMakeFiles/AHT20.dir/C_/VSARM/sdk/pico/pico-sdk/lib/lwip/src/netif/ppp/demand.c.obj
LOAD CMakeFiles/AHT20.dir/C_/VSARM/sdk/pico/pico-sdk/lib/lwip/src/netif/ppp/eap.c.obj
LOAD CMakeFiles/AHT20.dir/C_/VSARM/sdk/pico/pico-sdk/lib/lwip/src/netif/ppp/ecp.c.obj
LOAD CMakeFiles/AHT20.dir/C_/VSARM/sdk/pico/pico-sdk/lib/lwip/src/netif/ppp/eui64.c.obj
LOAD CMakeFiles/AHT20.dir/C_/VSARM/sdk/pico/pico-sdk/lib/lwip/src/netif/ppp/fsm.c.obj
LOAD CMakeFiles/AHT20.dir/C_/VSARM/sdk/pico/pico-sdk/lib/lwip/src/netif/ppp/ipcp.c.obj
LOAD CMakeFiles/AHT20.dir/C_/VSARM/sdk/pico/pico-sdk/lib/lwip/src/netif/ppp/ipv6cp.c.obj
LOAD CMakeFiles/AHT20.dir/C_/VSARM/sdk/pico/pico-sdk/lib/lwip/src/netif/ppp/lcp.c.obj
LOAD CMakeFiles/AHT20.dir/C_/VSARM/sdk/pico/pico-sdk/lib/lwip/src/netif/ppp/magic.c.obj
LOAD CMakeFiles/AHT20.dir/C_/VSARM/sdk/pico/pico-sdk/lib/lwip/src/netif/ppp/mppe.c.obj
LOAD CMakeFiles/AHT20.dir/C_/VSARM/sdk/pico/pico-sdk/lib/lwip/src/netif/ppp/multilink.c.obj
LOAD CMakeFiles/AHT20.dir/C_/VSARM/sdk/pico/pico-sdk/lib/lwip/src/netif/ppp/ppp.c.obj
LOAD CMakeFiles/AHT20.dir/C_/VSARM/sdk/pico/pico-sdk/lib/lwip/src/netif/ppp/pppapi.c.obj
LOAD CMakeFiles/AHT20.dir/C_/VSARM/sdk/pico/pico-sdk/lib/lwip/src/netif/ppp/pppcrypt.c.obj
LOAD CMakeFiles/AHT20.dir/C_/VSARM/sdk/pico/pico-sdk/lib/lwip/src/netif/ppp/pppoe.c.obj
LOAD CMakeFiles/AHT20.dir/C_/VSARM/sdk/pico/pico-sdk/lib/lwip/src/netif/ppp/pppol2tp.c.obj
LOAD CMakeFiles/AHT20.dir/C_/VSARM/sdk/pico/pico-sdk/lib/lwip/src/netif/ppp/pppos.c.obj
LOAD CMakeFiles/AHT20.dir/C_/VSARM/sdk/pico/pico-sdk/lib/lwip/src/netif/ppp/upap.c.obj
LOAD CMakeFiles/AHT20.dir/C_/VSARM/sdk/pico/pico-sdk/lib/lwip/src/netif/ppp/utils.c.obj
LOAD CMakeFiles/AHT20.dir/C_/VSARM/sdk/pico/pico-sdk/lib/lwip/src/netif/ppp/vj.c.obj
LOAD CMakeFiles/AHT20.dir/C_/VSARM/sdk/pico/pico-sdk/lib/lwip/src/netif/ppp/polarssl/arc4.c.obj
LOAD CMakeFiles/AHT20.dir/C_/VSARM/sdk/pico/pico-sdk/lib/lwip/src/netif/ppp/polarssl/des.c.obj
LOAD CMakeFiles/AHT20.dir/C_/VSARM/sdk/pico/pico-sdk/lib/lwip/src/netif/ppp/polarssl/md4.c.obj
LOAD CMakeFiles/AHT20.dir/C_/VSARM/sdk/pico/pico-sdk/lib/lwip/src/netif/ppp/polarssl/md5.c.obj
LOAD CMakeFiles/AHT20.dir/C_/VSARM/sdk/pico/pico-sdk/lib/lwip/src/netif/ppp/polarssl/sha1.c.obj
LOAD CMakeFiles/AHT20.dir/C_/VSARM/sdk/pico/pico-sdk/src/rp2_common/pico_cyw43_arch/cyw43_arch.c.obj
LOAD CMakeFiles/AHT20.dir/C_/VSARM/sdk/pico/pico-sdk/src/rp2_common/pico_cyw43_arch/cyw43_arch_poll.c.obj
LOAD CMakeFiles/AHT20.dir/C_/VSARM/sdk/pico/pico-sdk/src/rp2_common/pico_cyw43_arch/cyw43_arch_threadsafe_background.c.obj
LOAD CMakeFiles/AHT20.dir/C_/VSARM/sdk/pico/pico-sdk/src/rp2_common/pico_cyw43_arch/cyw43_arch_freertos.c.obj
LOAD CMakeFiles/AHT20.dir/C_/VSARM/sdk/pico/pico-sdk/src/rp2_common/pico_cyw43_driver/cyw43_bus_pio_spi.c.obj
LOAD CMakeFiles/AHT20.dir/C_/VSARM/sdk/pico/pico-sdk/lib/cyw43-driver/src/cyw43_ll.c.obj
LOAD CMakeFiles/AHT20.dir/C_/VSARM/sdk/pico/pico-sdk/lib/cyw43-driver/src/cyw43_stats.c.obj
LOAD CMakeFiles/AHT20.dir/C_/VSARM/sdk/pico/pico-sdk/lib/cyw43-driver/src/cyw43_lwip.c.obj
LOAD CMakeFiles/AHT20.dir/C_/VSARM/sdk/pico/pico-sdk/lib/cyw43-driver/src/cyw43_ctrl.c.obj
LOAD CMakeFiles/AHT20.dir/C_/VSARM/sdk/pico/pico-sdk/src/rp2_common/pico_cyw43_driver/cybt_shared_bus/cybt_shared_bus.c.obj
LOAD CMakeFiles/AHT20.dir/C_/VSARM/sdk/pico/pico-sdk/src/rp2_common/pico_cyw43_driver/cybt_shared_bus/cybt_shared_bus_driver.c.obj
LOAD CMakeFiles/AHT20.dir/C_/VSARM/sdk/pico/pico-sdk/src/rp2_common/hardware_pio/pio.c.obj
LOAD CMakeFiles/AHT20.dir/C_/VSARM/sdk/pico/pico-sdk/src/rp2_common/hardware_dma/dma.c.obj
LOAD CMakeFiles/AHT20.dir/C_/VSARM/sdk/pico/pico-sdk/src/rp2_common/hardware_exception/exception.c.obj
LOAD CMakeFiles/AHT20.dir/C_/VSARM/sdk/pico/pico-sdk/src/rp2_common/pico_cyw43_driver/cyw43_driver.c.obj
LOAD CMakeFiles/AHT20.dir/C_/VSARM/sdk/pico/pico-sdk/src/rp2_common/pico_async_context/async_context_threadsafe_background.c.obj
LOAD C:\Users\phuon\AppData\Local\Temp\ccGjedSI.o
LOAD c:/vsarm/armcc/125863~1.3re/bin/../lib/gcc/arm-none-eabi/12.3.1/thumb/v6-m/nofp\libstdc++.a
LOAD c:/vsarm/armcc/125863~1.3re/bin/../lib/gcc/arm-none-eabi/12.3.1/thumb/v6-m/nofp\libm.a
START GROUP
LOAD c:/vsarm/armcc/125863~1.3re/bin/../lib/gcc/arm-none-eabi/12.3.1/thumb/v6-m/nofp\libgcc.a
LOAD c:/vsarm/armcc/125863~1.3re/bin/../lib/gcc/arm-none-eabi/12.3.1/thumb/v6-m/nofp\libg.a
LOAD c:/vsarm/armcc/125863~1.3re/bin/../lib/gcc/arm-none-eabi/12.3.1/thumb/v6-m/nofp\libc.a
END GROUP
START GROUP
LOAD c:/vsarm/armcc/125863~1.3re/bin/../lib/gcc/arm-none-eabi/12.3.1/thumb/v6-m/nofp\libgcc.a
LOAD c:/vsarm/armcc/125863~1.3re/bin/../lib/gcc/arm-none-eabi/12.3.1/thumb/v6-m/nofp\libc.a
LOAD c:/vsarm/armcc/125863~1.3re/bin/../lib/gcc/arm-none-eabi/12.3.1/thumb/v6-m/nofp\libnosys.a
END GROUP
LOAD c:/vsarm/armcc/125863~1.3re/bin/../lib/gcc/arm-none-eabi/12.3.1/thumb/v6-m/nofp/crtend.o
LOAD c:/vsarm/armcc/125863~1.3re/bin/../lib/gcc/arm-none-eabi/12.3.1/thumb/v6-m/nofp/crtn.o
OUTPUT(AHT20.elf elf32-littlearm)
LOAD linker stubs

.ARM.attributes
                0x00000000       0x28
 .ARM.attributes
                0x00000000       0x1e c:/vsarm/armcc/125863~1.3re/bin/../lib/gcc/arm-none-eabi/12.3.1/thumb/v6-m/nofp/crti.o
 .ARM.attributes
                0x0000001e       0x2c c:/vsarm/armcc/125863~1.3re/bin/../lib/gcc/arm-none-eabi/12.3.1/thumb/v6-m/nofp/crtbegin.o
 .ARM.attributes
                0x0000004a       0x2c CMakeFiles/AHT20.dir/main.cpp.obj
 .ARM.attributes
                0x00000076       0x2c CMakeFiles/AHT20.dir/BUZZER/Buzzer.cpp.obj
 .ARM.attributes
                0x000000a2       0x2c CMakeFiles/AHT20.dir/C_/VSARM/sdk/pico/pico-sdk/src/rp2_common/hardware_gpio/gpio.c.obj
 .ARM.attributes
                0x000000ce       0x2c CMakeFiles/AHT20.dir/C_/VSARM/sdk/pico/pico-sdk/src/rp2_common/pico_platform/platform.c.obj
 .ARM.attributes
                0x000000fa       0x2c CMakeFiles/AHT20.dir/C_/VSARM/sdk/pico/pico-sdk/src/rp2_common/hardware_claim/claim.c.obj
 .ARM.attributes
                0x00000126       0x2c CMakeFiles/AHT20.dir/C_/VSARM/sdk/pico/pico-sdk/src/rp2_common/hardware_sync/sync.c.obj
 .ARM.attributes
                0x00000152       0x2c CMakeFiles/AHT20.dir/C_/VSARM/sdk/pico/pico-sdk/src/rp2_common/hardware_irq/irq.c.obj
 .ARM.attributes
                0x0000017e       0x22 CMakeFiles/AHT20.dir/C_/VSARM/sdk/pico/pico-sdk/src/rp2_common/hardware_irq/irq_handler_chain.S.obj
 .ARM.attributes
                0x000001a0       0x2c CMakeFiles/AHT20.dir/C_/VSARM/sdk/pico/pico-sdk/src/common/pico_sync/lock_core.c.obj
 .ARM.attributes
                0x000001cc       0x2c CMakeFiles/AHT20.dir/C_/VSARM/sdk/pico/pico-sdk/src/common/pico_sync/mutex.c.obj
 .ARM.attributes
                0x000001f8       0x2c CMakeFiles/AHT20.dir/C_/VSARM/sdk/pico/pico-sdk/src/common/pico_sync/critical_section.c.obj
 .ARM.attributes
                0x00000224       0x2c CMakeFiles/AHT20.dir/C_/VSARM/sdk/pico/pico-sdk/src/common/pico_time/time.c.obj
 .ARM.attributes
                0x00000250       0x2c CMakeFiles/AHT20.dir/C_/VSARM/sdk/pico/pico-sdk/src/rp2_common/hardware_timer/timer.c.obj
 .ARM.attributes
                0x0000027c       0x2c CMakeFiles/AHT20.dir/C_/VSARM/sdk/pico/pico-sdk/src/common/pico_util/pheap.c.obj
 .ARM.attributes
                0x000002a8       0x2c CMakeFiles/AHT20.dir/C_/VSARM/sdk/pico/pico-sdk/src/rp2_common/hardware_clocks/clocks.c.obj
 .ARM.attributes
                0x000002d4       0x2c CMakeFiles/AHT20.dir/C_/VSARM/sdk/pico/pico-sdk/src/rp2_common/hardware_pll/pll.c.obj
 .ARM.attributes
                0x00000300       0x2c CMakeFiles/AHT20.dir/C_/VSARM/sdk/pico/pico-sdk/src/rp2_common/hardware_watchdog/watchdog.c.obj
 .ARM.attributes
                0x0000032c       0x2c CMakeFiles/AHT20.dir/C_/VSARM/sdk/pico/pico-sdk/src/rp2_common/hardware_xosc/xosc.c.obj
 .ARM.attributes
                0x00000358       0x2c CMakeFiles/AHT20.dir/C_/VSARM/sdk/pico/pico-sdk/src/rp2_common/pico_runtime/runtime.c.obj
 .ARM.attributes
                0x00000384       0x2c CMakeFiles/AHT20.dir/C_/VSARM/sdk/pico/pico-sdk/src/rp2_common/pico_printf/printf.c.obj
 .ARM.attributes
                0x000003b0       0x22 CMakeFiles/AHT20.dir/C_/VSARM/sdk/pico/pico-sdk/src/rp2_common/pico_bit_ops/bit_ops_aeabi.S.obj
 .ARM.attributes
                0x000003d2       0x2c CMakeFiles/AHT20.dir/C_/VSARM/sdk/pico/pico-sdk/src/rp2_common/pico_bootrom/bootrom.c.obj
 .ARM.attributes
                0x000003fe       0x22 CMakeFiles/AHT20.dir/C_/VSARM/sdk/pico/pico-sdk/src/rp2_common/pico_divider/divider.S.obj
 .ARM.attributes
                0x00000420       0x22 CMakeFiles/AHT20.dir/C_/VSARM/sdk/pico/pico-sdk/src/rp2_common/pico_double/double_aeabi.S.obj
 .ARM.attributes
                0x00000442       0x2c CMakeFiles/AHT20.dir/C_/VSARM/sdk/pico/pico-sdk/src/rp2_common/pico_double/double_init_rom.c.obj
 .ARM.attributes
                0x0000046e       0x22 CMakeFiles/AHT20.dir/C_/VSARM/sdk/pico/pico-sdk/src/rp2_common/pico_double/double_v1_rom_shim.S.obj
 .ARM.attributes
                0x00000490       0x22 CMakeFiles/AHT20.dir/C_/VSARM/sdk/pico/pico-sdk/src/rp2_common/pico_int64_ops/pico_int64_ops_aeabi.S.obj
 .ARM.attributes
                0x000004b2       0x22 CMakeFiles/AHT20.dir/C_/VSARM/sdk/pico/pico-sdk/src/rp2_common/pico_float/float_aeabi.S.obj
 .ARM.attributes
                0x000004d4       0x2c CMakeFiles/AHT20.dir/C_/VSARM/sdk/pico/pico-sdk/src/rp2_common/pico_float/float_init_rom.c.obj
 .ARM.attributes
                0x00000500       0x22 CMakeFiles/AHT20.dir/C_/VSARM/sdk/pico/pico-sdk/src/rp2_common/pico_mem_ops/mem_ops_aeabi.S.obj
 .ARM.attributes
                0x00000522       0x22 CMakeFiles/AHT20.dir/C_/VSARM/sdk/pico/pico-sdk/src/rp2_common/pico_standard_link/crt0.S.obj
 .ARM.attributes
                0x00000544       0x2c CMakeFiles/AHT20.dir/C_/VSARM/sdk/pico/pico-sdk/src/rp2_common/pico_standard_link/binary_info.c.obj
 .ARM.attributes
                0x00000570       0x2c CMakeFiles/AHT20.dir/C_/VSARM/sdk/pico/pico-sdk/src/rp2_common/pico_stdio/stdio.c.obj
 .ARM.attributes
                0x0000059c       0x2c CMakeFiles/AHT20.dir/C_/VSARM/sdk/pico/pico-sdk/src/rp2_common/pico_stdio_usb/reset_interface.c.obj
 .ARM.attributes
                0x000005c8       0x2c CMakeFiles/AHT20.dir/C_/VSARM/sdk/pico/pico-sdk/src/rp2_common/pico_stdio_usb/stdio_usb.c.obj
 .ARM.attributes
                0x000005f4       0x2c CMakeFiles/AHT20.dir/C_/VSARM/sdk/pico/pico-sdk/src/rp2_common/pico_stdio_usb/stdio_usb_descriptors.c.obj
 .ARM.attributes
                0x00000620       0x2c CMakeFiles/AHT20.dir/C_/VSARM/sdk/pico/pico-sdk/src/rp2_common/pico_unique_id/unique_id.c.obj
 .ARM.attributes
                0x0000064c       0x2c CMakeFiles/AHT20.dir/C_/VSARM/sdk/pico/pico-sdk/src/rp2_common/hardware_flash/flash.c.obj
 .ARM.attributes
                0x00000678       0x2c CMakeFiles/AHT20.dir/C_/VSARM/sdk/pico/pico-sdk/lib/tinyusb/src/portable/raspberrypi/rp2040/dcd_rp2040.c.obj
 .ARM.attributes
                0x000006a4       0x2c CMakeFiles/AHT20.dir/C_/VSARM/sdk/pico/pico-sdk/lib/tinyusb/src/portable/raspberrypi/rp2040/rp2040_usb.c.obj
 .ARM.attributes
                0x000006d0       0x2c CMakeFiles/AHT20.dir/C_/VSARM/sdk/pico/pico-sdk/lib/tinyusb/src/device/usbd.c.obj
 .ARM.attributes
                0x000006fc       0x2c CMakeFiles/AHT20.dir/C_/VSARM/sdk/pico/pico-sdk/lib/tinyusb/src/device/usbd_control.c.obj
 .ARM.attributes
                0x00000728       0x2c CMakeFiles/AHT20.dir/C_/VSARM/sdk/pico/pico-sdk/lib/tinyusb/src/class/cdc/cdc_device.c.obj
 .ARM.attributes
                0x00000754       0x2c CMakeFiles/AHT20.dir/C_/VSARM/sdk/pico/pico-sdk/lib/tinyusb/src/tusb.c.obj
 .ARM.attributes
                0x00000780       0x2c CMakeFiles/AHT20.dir/C_/VSARM/sdk/pico/pico-sdk/lib/tinyusb/src/common/tusb_fifo.c.obj
 .ARM.attributes
                0x000007ac       0x22 C:\Users\phuon\AppData\Local\Temp\ccGjedSI.o
 .ARM.attributes
                0x000007ce       0x1e c:/vsarm/armcc/125863~1.3re/bin/../lib/gcc/arm-none-eabi/12.3.1/thumb/v6-m/nofp\libgcc.a(_dvmd_tls.o)
 .ARM.attributes
                0x000007ec       0x2c c:/vsarm/armcc/125863~1.3re/bin/../lib/gcc/arm-none-eabi/12.3.1/thumb/v6-m/nofp\libg.a(libc_a-strlen-stub.o)
 .ARM.attributes
                0x00000818       0x2c c:/vsarm/armcc/125863~1.3re/bin/../lib/gcc/arm-none-eabi/12.3.1/thumb/v6-m/nofp/crtend.o

.comment        0x00000000       0x45
 .comment       0x00000000       0x45 CMakeFiles/AHT20.dir/main.cpp.obj
                                 0x46 (size before relaxing)
 .comment       0x00000045       0x46 CMakeFiles/AHT20.dir/BUZZER/Buzzer.cpp.obj
 .comment       0x00000045       0x46 CMakeFiles/AHT20.dir/C_/VSARM/sdk/pico/pico-sdk/src/rp2_common/hardware_gpio/gpio.c.obj
 .comment       0x00000045       0x46 CMakeFiles/AHT20.dir/C_/VSARM/sdk/pico/pico-sdk/src/rp2_common/pico_platform/platform.c.obj
 .comment       0x00000045       0x46 CMakeFiles/AHT20.dir/C_/VSARM/sdk/pico/pico-sdk/src/rp2_common/hardware_claim/claim.c.obj
 .comment       0x00000045       0x46 CMakeFiles/AHT20.dir/C_/VSARM/sdk/pico/pico-sdk/src/rp2_common/hardware_sync/sync.c.obj
 .comment       0x00000045       0x46 CMakeFiles/AHT20.dir/C_/VSARM/sdk/pico/pico-sdk/src/rp2_common/hardware_irq/irq.c.obj
 .comment       0x00000045       0x46 CMakeFiles/AHT20.dir/C_/VSARM/sdk/pico/pico-sdk/src/common/pico_sync/lock_core.c.obj
 .comment       0x00000045       0x46 CMakeFiles/AHT20.dir/C_/VSARM/sdk/pico/pico-sdk/src/common/pico_sync/mutex.c.obj
 .comment       0x00000045       0x46 CMakeFiles/AHT20.dir/C_/VSARM/sdk/pico/pico-sdk/src/common/pico_sync/critical_section.c.obj
 .comment       0x00000045       0x46 CMakeFiles/AHT20.dir/C_/VSARM/sdk/pico/pico-sdk/src/common/pico_time/time.c.obj
 .comment       0x00000045       0x46 CMakeFiles/AHT20.dir/C_/VSARM/sdk/pico/pico-sdk/src/rp2_common/hardware_timer/timer.c.obj
 .comment       0x00000045       0x46 CMakeFiles/AHT20.dir/C_/VSARM/sdk/pico/pico-sdk/src/common/pico_util/pheap.c.obj
 .comment       0x00000045       0x46 CMakeFiles/AHT20.dir/C_/VSARM/sdk/pico/pico-sdk/src/rp2_common/hardware_clocks/clocks.c.obj
 .comment       0x00000045       0x46 CMakeFiles/AHT20.dir/C_/VSARM/sdk/pico/pico-sdk/src/rp2_common/hardware_pll/pll.c.obj
 .comment       0x00000045       0x46 CMakeFiles/AHT20.dir/C_/VSARM/sdk/pico/pico-sdk/src/rp2_common/hardware_watchdog/watchdog.c.obj
 .comment       0x00000045       0x46 CMakeFiles/AHT20.dir/C_/VSARM/sdk/pico/pico-sdk/src/rp2_common/hardware_xosc/xosc.c.obj
 .comment       0x00000045       0x46 CMakeFiles/AHT20.dir/C_/VSARM/sdk/pico/pico-sdk/src/rp2_common/pico_runtime/runtime.c.obj
 .comment       0x00000045       0x46 CMakeFiles/AHT20.dir/C_/VSARM/sdk/pico/pico-sdk/src/rp2_common/pico_printf/printf.c.obj
 .comment       0x00000045       0x46 CMakeFiles/AHT20.dir/C_/VSARM/sdk/pico/pico-sdk/src/rp2_common/pico_bootrom/bootrom.c.obj
 .comment       0x00000045       0x46 CMakeFiles/AHT20.dir/C_/VSARM/sdk/pico/pico-sdk/src/rp2_common/pico_double/double_init_rom.c.obj
 .comment       0x00000045       0x46 CMakeFiles/AHT20.dir/C_/VSARM/sdk/pico/pico-sdk/src/rp2_common/pico_float/float_init_rom.c.obj
 .comment       0x00000045       0x46 CMakeFiles/AHT20.dir/C_/VSARM/sdk/pico/pico-sdk/src/rp2_common/pico_standard_link/binary_info.c.obj
 .comment       0x00000045       0x46 CMakeFiles/AHT20.dir/C_/VSARM/sdk/pico/pico-sdk/src/rp2_common/pico_stdio/stdio.c.obj
 .comment       0x00000045       0x46 CMakeFiles/AHT20.dir/C_/VSARM/sdk/pico/pico-sdk/src/rp2_common/pico_stdio_usb/reset_interface.c.obj
 .comment       0x00000045       0x46 CMakeFiles/AHT20.dir/C_/VSARM/sdk/pico/pico-sdk/src/rp2_common/pico_stdio_usb/stdio_usb.c.obj
 .comment       0x00000045       0x46 CMakeFiles/AHT20.dir/C_/VSARM/sdk/pico/pico-sdk/src/rp2_common/pico_stdio_usb/stdio_usb_descriptors.c.obj
 .comment       0x00000045       0x46 CMakeFiles/AHT20.dir/C_/VSARM/sdk/pico/pico-sdk/src/rp2_common/pico_unique_id/unique_id.c.obj
 .comment       0x00000045       0x46 CMakeFiles/AHT20.dir/C_/VSARM/sdk/pico/pico-sdk/src/rp2_common/hardware_flash/flash.c.obj
 .comment       0x00000045       0x46 CMakeFiles/AHT20.dir/C_/VSARM/sdk/pico/pico-sdk/lib/tinyusb/src/portable/raspberrypi/rp2040/dcd_rp2040.c.obj
 .comment       0x00000045       0x46 CMakeFiles/AHT20.dir/C_/VSARM/sdk/pico/pico-sdk/lib/tinyusb/src/portable/raspberrypi/rp2040/rp2040_usb.c.obj
 .comment       0x00000045       0x46 CMakeFiles/AHT20.dir/C_/VSARM/sdk/pico/pico-sdk/lib/tinyusb/src/device/usbd.c.obj
 .comment       0x00000045       0x46 CMakeFiles/AHT20.dir/C_/VSARM/sdk/pico/pico-sdk/lib/tinyusb/src/device/usbd_control.c.obj
 .comment       0x00000045       0x46 CMakeFiles/AHT20.dir/C_/VSARM/sdk/pico/pico-sdk/lib/tinyusb/src/class/cdc/cdc_device.c.obj
 .comment       0x00000045       0x46 CMakeFiles/AHT20.dir/C_/VSARM/sdk/pico/pico-sdk/lib/tinyusb/src/tusb.c.obj
 .comment       0x00000045       0x46 CMakeFiles/AHT20.dir/C_/VSARM/sdk/pico/pico-sdk/lib/tinyusb/src/common/tusb_fifo.c.obj

.debug_info     0x00000000    0x23b0e
 .debug_info    0x00000000      0x957 CMakeFiles/AHT20.dir/main.cpp.obj
 .debug_info    0x00000957      0xb71 CMakeFiles/AHT20.dir/BUZZER/Buzzer.cpp.obj
 .debug_info    0x000014c8     0x17f5 CMakeFiles/AHT20.dir/C_/VSARM/sdk/pico/pico-sdk/src/rp2_common/hardware_gpio/gpio.c.obj
 .debug_info    0x00002cbd      0x1fb CMakeFiles/AHT20.dir/C_/VSARM/sdk/pico/pico-sdk/src/rp2_common/pico_platform/platform.c.obj
 .debug_info    0x00002eb8      0x69a CMakeFiles/AHT20.dir/C_/VSARM/sdk/pico/pico-sdk/src/rp2_common/hardware_claim/claim.c.obj
 .debug_info    0x00003552      0x5db CMakeFiles/AHT20.dir/C_/VSARM/sdk/pico/pico-sdk/src/rp2_common/hardware_sync/sync.c.obj
 .debug_info    0x00003b2d     0x1c0b CMakeFiles/AHT20.dir/C_/VSARM/sdk/pico/pico-sdk/src/rp2_common/hardware_irq/irq.c.obj
 .debug_info    0x00005738      0x1a3 CMakeFiles/AHT20.dir/C_/VSARM/sdk/pico/pico-sdk/src/common/pico_sync/lock_core.c.obj
 .debug_info    0x000058db     0x1d25 CMakeFiles/AHT20.dir/C_/VSARM/sdk/pico/pico-sdk/src/common/pico_sync/mutex.c.obj
 .debug_info    0x00007600      0x2cb CMakeFiles/AHT20.dir/C_/VSARM/sdk/pico/pico-sdk/src/common/pico_sync/critical_section.c.obj
 .debug_info    0x000078cb     0x33e9 CMakeFiles/AHT20.dir/C_/VSARM/sdk/pico/pico-sdk/src/common/pico_time/time.c.obj
 .debug_info    0x0000acb4     0x142a CMakeFiles/AHT20.dir/C_/VSARM/sdk/pico/pico-sdk/src/rp2_common/hardware_timer/timer.c.obj
 .debug_info    0x0000c0de      0xe63 CMakeFiles/AHT20.dir/C_/VSARM/sdk/pico/pico-sdk/src/common/pico_util/pheap.c.obj
 .debug_info    0x0000cf41      0xfe7 CMakeFiles/AHT20.dir/C_/VSARM/sdk/pico/pico-sdk/src/rp2_common/hardware_clocks/clocks.c.obj
 .debug_info    0x0000df28      0x505 CMakeFiles/AHT20.dir/C_/VSARM/sdk/pico/pico-sdk/src/rp2_common/hardware_pll/pll.c.obj
 .debug_info    0x0000e42d      0x4c5 CMakeFiles/AHT20.dir/C_/VSARM/sdk/pico/pico-sdk/src/rp2_common/hardware_watchdog/watchdog.c.obj
 .debug_info    0x0000e8f2      0x1c7 CMakeFiles/AHT20.dir/C_/VSARM/sdk/pico/pico-sdk/src/rp2_common/hardware_xosc/xosc.c.obj
 .debug_info    0x0000eab9      0xf17 CMakeFiles/AHT20.dir/C_/VSARM/sdk/pico/pico-sdk/src/rp2_common/pico_runtime/runtime.c.obj
 .debug_info    0x0000f9d0     0x19a2 CMakeFiles/AHT20.dir/C_/VSARM/sdk/pico/pico-sdk/src/rp2_common/pico_printf/printf.c.obj
 .debug_info    0x00011372       0x23 CMakeFiles/AHT20.dir/C_/VSARM/sdk/pico/pico-sdk/src/rp2_common/pico_bit_ops/bit_ops_aeabi.S.obj
 .debug_info    0x00011395      0x325 CMakeFiles/AHT20.dir/C_/VSARM/sdk/pico/pico-sdk/src/rp2_common/pico_bootrom/bootrom.c.obj
 .debug_info    0x000116ba       0x23 CMakeFiles/AHT20.dir/C_/VSARM/sdk/pico/pico-sdk/src/rp2_common/pico_divider/divider.S.obj
 .debug_info    0x000116dd       0x23 CMakeFiles/AHT20.dir/C_/VSARM/sdk/pico/pico-sdk/src/rp2_common/pico_double/double_aeabi.S.obj
 .debug_info    0x00011700      0x365 CMakeFiles/AHT20.dir/C_/VSARM/sdk/pico/pico-sdk/src/rp2_common/pico_double/double_init_rom.c.obj
 .debug_info    0x00011a65       0x24 CMakeFiles/AHT20.dir/C_/VSARM/sdk/pico/pico-sdk/src/rp2_common/pico_double/double_v1_rom_shim.S.obj
 .debug_info    0x00011a89       0x24 CMakeFiles/AHT20.dir/C_/VSARM/sdk/pico/pico-sdk/src/rp2_common/pico_int64_ops/pico_int64_ops_aeabi.S.obj
 .debug_info    0x00011aad       0x23 CMakeFiles/AHT20.dir/C_/VSARM/sdk/pico/pico-sdk/src/rp2_common/pico_float/float_aeabi.S.obj
 .debug_info    0x00011ad0      0x33a CMakeFiles/AHT20.dir/C_/VSARM/sdk/pico/pico-sdk/src/rp2_common/pico_float/float_init_rom.c.obj
 .debug_info    0x00011e0a       0x23 CMakeFiles/AHT20.dir/C_/VSARM/sdk/pico/pico-sdk/src/rp2_common/pico_mem_ops/mem_ops_aeabi.S.obj
 .debug_info    0x00011e2d       0x23 CMakeFiles/AHT20.dir/C_/VSARM/sdk/pico/pico-sdk/src/rp2_common/pico_standard_link/crt0.S.obj
 .debug_info    0x00011e50      0x2b8 CMakeFiles/AHT20.dir/C_/VSARM/sdk/pico/pico-sdk/src/rp2_common/pico_standard_link/binary_info.c.obj
 .debug_info    0x00012108     0x1729 CMakeFiles/AHT20.dir/C_/VSARM/sdk/pico/pico-sdk/src/rp2_common/pico_stdio/stdio.c.obj
 .debug_info    0x00013831      0x76e CMakeFiles/AHT20.dir/C_/VSARM/sdk/pico/pico-sdk/src/rp2_common/pico_stdio_usb/reset_interface.c.obj
 .debug_info    0x00013f9f     0x175e CMakeFiles/AHT20.dir/C_/VSARM/sdk/pico/pico-sdk/src/rp2_common/pico_stdio_usb/stdio_usb.c.obj
 .debug_info    0x000156fd      0x5d6 CMakeFiles/AHT20.dir/C_/VSARM/sdk/pico/pico-sdk/src/rp2_common/pico_stdio_usb/stdio_usb_descriptors.c.obj
 .debug_info    0x00015cd3      0x275 CMakeFiles/AHT20.dir/C_/VSARM/sdk/pico/pico-sdk/src/rp2_common/pico_unique_id/unique_id.c.obj
 .debug_info    0x00015f48     0x127c CMakeFiles/AHT20.dir/C_/VSARM/sdk/pico/pico-sdk/src/rp2_common/hardware_flash/flash.c.obj
 .debug_info    0x000171c4     0x2076 CMakeFiles/AHT20.dir/C_/VSARM/sdk/pico/pico-sdk/lib/tinyusb/src/portable/raspberrypi/rp2040/dcd_rp2040.c.obj
 .debug_info    0x0001923a      0xfca CMakeFiles/AHT20.dir/C_/VSARM/sdk/pico/pico-sdk/lib/tinyusb/src/portable/raspberrypi/rp2040/rp2040_usb.c.obj
 .debug_info    0x0001a204     0x39da CMakeFiles/AHT20.dir/C_/VSARM/sdk/pico/pico-sdk/lib/tinyusb/src/device/usbd.c.obj
 .debug_info    0x0001dbde      0x85a CMakeFiles/AHT20.dir/C_/VSARM/sdk/pico/pico-sdk/lib/tinyusb/src/device/usbd_control.c.obj
 .debug_info    0x0001e438     0x1a96 CMakeFiles/AHT20.dir/C_/VSARM/sdk/pico/pico-sdk/lib/tinyusb/src/class/cdc/cdc_device.c.obj
 .debug_info    0x0001fece     0x14d2 CMakeFiles/AHT20.dir/C_/VSARM/sdk/pico/pico-sdk/lib/tinyusb/src/tusb.c.obj
 .debug_info    0x000213a0     0x276e CMakeFiles/AHT20.dir/C_/VSARM/sdk/pico/pico-sdk/lib/tinyusb/src/common/tusb_fifo.c.obj

.debug_abbrev   0x00000000     0x71b3
 .debug_abbrev  0x00000000      0x26c CMakeFiles/AHT20.dir/main.cpp.obj
 .debug_abbrev  0x0000026c      0x361 CMakeFiles/AHT20.dir/BUZZER/Buzzer.cpp.obj
 .debug_abbrev  0x000005cd      0x3a6 CMakeFiles/AHT20.dir/C_/VSARM/sdk/pico/pico-sdk/src/rp2_common/hardware_gpio/gpio.c.obj
 .debug_abbrev  0x00000973       0xf8 CMakeFiles/AHT20.dir/C_/VSARM/sdk/pico/pico-sdk/src/rp2_common/pico_platform/platform.c.obj
 .debug_abbrev  0x00000a6b      0x2ce CMakeFiles/AHT20.dir/C_/VSARM/sdk/pico/pico-sdk/src/rp2_common/hardware_claim/claim.c.obj
 .debug_abbrev  0x00000d39      0x249 CMakeFiles/AHT20.dir/C_/VSARM/sdk/pico/pico-sdk/src/rp2_common/hardware_sync/sync.c.obj
 .debug_abbrev  0x00000f82      0x500 CMakeFiles/AHT20.dir/C_/VSARM/sdk/pico/pico-sdk/src/rp2_common/hardware_irq/irq.c.obj
 .debug_abbrev  0x00001482      0x116 CMakeFiles/AHT20.dir/C_/VSARM/sdk/pico/pico-sdk/src/common/pico_sync/lock_core.c.obj
 .debug_abbrev  0x00001598      0x3e8 CMakeFiles/AHT20.dir/C_/VSARM/sdk/pico/pico-sdk/src/common/pico_sync/mutex.c.obj
 .debug_abbrev  0x00001980      0x1ce CMakeFiles/AHT20.dir/C_/VSARM/sdk/pico/pico-sdk/src/common/pico_sync/critical_section.c.obj
 .debug_abbrev  0x00001b4e      0x5c3 CMakeFiles/AHT20.dir/C_/VSARM/sdk/pico/pico-sdk/src/common/pico_time/time.c.obj
 .debug_abbrev  0x00002111      0x3d5 CMakeFiles/AHT20.dir/C_/VSARM/sdk/pico/pico-sdk/src/rp2_common/hardware_timer/timer.c.obj
 .debug_abbrev  0x000024e6      0x290 CMakeFiles/AHT20.dir/C_/VSARM/sdk/pico/pico-sdk/src/common/pico_util/pheap.c.obj
 .debug_abbrev  0x00002776      0x434 CMakeFiles/AHT20.dir/C_/VSARM/sdk/pico/pico-sdk/src/rp2_common/hardware_clocks/clocks.c.obj
 .debug_abbrev  0x00002baa      0x1e7 CMakeFiles/AHT20.dir/C_/VSARM/sdk/pico/pico-sdk/src/rp2_common/hardware_pll/pll.c.obj
 .debug_abbrev  0x00002d91      0x1a8 CMakeFiles/AHT20.dir/C_/VSARM/sdk/pico/pico-sdk/src/rp2_common/hardware_watchdog/watchdog.c.obj
 .debug_abbrev  0x00002f39      0x10c CMakeFiles/AHT20.dir/C_/VSARM/sdk/pico/pico-sdk/src/rp2_common/hardware_xosc/xosc.c.obj
 .debug_abbrev  0x00003045      0x530 CMakeFiles/AHT20.dir/C_/VSARM/sdk/pico/pico-sdk/src/rp2_common/pico_runtime/runtime.c.obj
 .debug_abbrev  0x00003575      0x38a CMakeFiles/AHT20.dir/C_/VSARM/sdk/pico/pico-sdk/src/rp2_common/pico_printf/printf.c.obj
 .debug_abbrev  0x000038ff       0x12 CMakeFiles/AHT20.dir/C_/VSARM/sdk/pico/pico-sdk/src/rp2_common/pico_bit_ops/bit_ops_aeabi.S.obj
 .debug_abbrev  0x00003911      0x167 CMakeFiles/AHT20.dir/C_/VSARM/sdk/pico/pico-sdk/src/rp2_common/pico_bootrom/bootrom.c.obj
 .debug_abbrev  0x00003a78       0x12 CMakeFiles/AHT20.dir/C_/VSARM/sdk/pico/pico-sdk/src/rp2_common/pico_divider/divider.S.obj
 .debug_abbrev  0x00003a8a       0x12 CMakeFiles/AHT20.dir/C_/VSARM/sdk/pico/pico-sdk/src/rp2_common/pico_double/double_aeabi.S.obj
 .debug_abbrev  0x00003a9c      0x1df CMakeFiles/AHT20.dir/C_/VSARM/sdk/pico/pico-sdk/src/rp2_common/pico_double/double_init_rom.c.obj
 .debug_abbrev  0x00003c7b       0x14 CMakeFiles/AHT20.dir/C_/VSARM/sdk/pico/pico-sdk/src/rp2_common/pico_double/double_v1_rom_shim.S.obj
 .debug_abbrev  0x00003c8f       0x14 CMakeFiles/AHT20.dir/C_/VSARM/sdk/pico/pico-sdk/src/rp2_common/pico_int64_ops/pico_int64_ops_aeabi.S.obj
 .debug_abbrev  0x00003ca3       0x12 CMakeFiles/AHT20.dir/C_/VSARM/sdk/pico/pico-sdk/src/rp2_common/pico_float/float_aeabi.S.obj
 .debug_abbrev  0x00003cb5      0x1c3 CMakeFiles/AHT20.dir/C_/VSARM/sdk/pico/pico-sdk/src/rp2_common/pico_float/float_init_rom.c.obj
 .debug_abbrev  0x00003e78       0x12 CMakeFiles/AHT20.dir/C_/VSARM/sdk/pico/pico-sdk/src/rp2_common/pico_mem_ops/mem_ops_aeabi.S.obj
 .debug_abbrev  0x00003e8a       0x12 CMakeFiles/AHT20.dir/C_/VSARM/sdk/pico/pico-sdk/src/rp2_common/pico_standard_link/crt0.S.obj
 .debug_abbrev  0x00003e9c       0xb8 CMakeFiles/AHT20.dir/C_/VSARM/sdk/pico/pico-sdk/src/rp2_common/pico_standard_link/binary_info.c.obj
 .debug_abbrev  0x00003f54      0x467 CMakeFiles/AHT20.dir/C_/VSARM/sdk/pico/pico-sdk/src/rp2_common/pico_stdio/stdio.c.obj
 .debug_abbrev  0x000043bb      0x2ca CMakeFiles/AHT20.dir/C_/VSARM/sdk/pico/pico-sdk/src/rp2_common/pico_stdio_usb/reset_interface.c.obj
 .debug_abbrev  0x00004685      0x543 CMakeFiles/AHT20.dir/C_/VSARM/sdk/pico/pico-sdk/src/rp2_common/pico_stdio_usb/stdio_usb.c.obj
 .debug_abbrev  0x00004bc8      0x15a CMakeFiles/AHT20.dir/C_/VSARM/sdk/pico/pico-sdk/src/rp2_common/pico_stdio_usb/stdio_usb_descriptors.c.obj
 .debug_abbrev  0x00004d22      0x181 CMakeFiles/AHT20.dir/C_/VSARM/sdk/pico/pico-sdk/src/rp2_common/pico_unique_id/unique_id.c.obj
 .debug_abbrev  0x00004ea3      0x2bd CMakeFiles/AHT20.dir/C_/VSARM/sdk/pico/pico-sdk/src/rp2_common/hardware_flash/flash.c.obj
 .debug_abbrev  0x00005160      0x563 CMakeFiles/AHT20.dir/C_/VSARM/sdk/pico/pico-sdk/lib/tinyusb/src/portable/raspberrypi/rp2040/dcd_rp2040.c.obj
 .debug_abbrev  0x000056c3      0x449 CMakeFiles/AHT20.dir/C_/VSARM/sdk/pico/pico-sdk/lib/tinyusb/src/portable/raspberrypi/rp2040/rp2040_usb.c.obj
 .debug_abbrev  0x00005b0c      0x61a CMakeFiles/AHT20.dir/C_/VSARM/sdk/pico/pico-sdk/lib/tinyusb/src/device/usbd.c.obj
 .debug_abbrev  0x00006126      0x2e8 CMakeFiles/AHT20.dir/C_/VSARM/sdk/pico/pico-sdk/lib/tinyusb/src/device/usbd_control.c.obj
 .debug_abbrev  0x0000640e      0x4b9 CMakeFiles/AHT20.dir/C_/VSARM/sdk/pico/pico-sdk/lib/tinyusb/src/class/cdc/cdc_device.c.obj
 .debug_abbrev  0x000068c7      0x472 CMakeFiles/AHT20.dir/C_/VSARM/sdk/pico/pico-sdk/lib/tinyusb/src/tusb.c.obj
 .debug_abbrev  0x00006d39      0x47a CMakeFiles/AHT20.dir/C_/VSARM/sdk/pico/pico-sdk/lib/tinyusb/src/common/tusb_fifo.c.obj

.debug_aranges  0x00000000     0x1508
 .debug_aranges
                0x00000000       0x28 CMakeFiles/AHT20.dir/main.cpp.obj
 .debug_aranges
                0x00000028       0x40 CMakeFiles/AHT20.dir/BUZZER/Buzzer.cpp.obj
 .debug_aranges
                0x00000068      0x100 CMakeFiles/AHT20.dir/C_/VSARM/sdk/pico/pico-sdk/src/rp2_common/hardware_gpio/gpio.c.obj
 .debug_aranges
                0x00000168       0x28 CMakeFiles/AHT20.dir/C_/VSARM/sdk/pico/pico-sdk/src/rp2_common/pico_platform/platform.c.obj
 .debug_aranges
                0x00000190       0x48 CMakeFiles/AHT20.dir/C_/VSARM/sdk/pico/pico-sdk/src/rp2_common/hardware_claim/claim.c.obj
 .debug_aranges
                0x000001d8       0x58 CMakeFiles/AHT20.dir/C_/VSARM/sdk/pico/pico-sdk/src/rp2_common/hardware_sync/sync.c.obj
 .debug_aranges
                0x00000230       0xd0 CMakeFiles/AHT20.dir/C_/VSARM/sdk/pico/pico-sdk/src/rp2_common/hardware_irq/irq.c.obj
 .debug_aranges
                0x00000300       0x20 CMakeFiles/AHT20.dir/C_/VSARM/sdk/pico/pico-sdk/src/common/pico_sync/lock_core.c.obj
 .debug_aranges
                0x00000320       0xc0 CMakeFiles/AHT20.dir/C_/VSARM/sdk/pico/pico-sdk/src/common/pico_sync/mutex.c.obj
 .debug_aranges
                0x000003e0       0x30 CMakeFiles/AHT20.dir/C_/VSARM/sdk/pico/pico-sdk/src/common/pico_sync/critical_section.c.obj
 .debug_aranges
                0x00000410      0x158 CMakeFiles/AHT20.dir/C_/VSARM/sdk/pico/pico-sdk/src/common/pico_time/time.c.obj
 .debug_aranges
                0x00000568       0x90 CMakeFiles/AHT20.dir/C_/VSARM/sdk/pico/pico-sdk/src/rp2_common/hardware_timer/timer.c.obj
 .debug_aranges
                0x000005f8       0x80 CMakeFiles/AHT20.dir/C_/VSARM/sdk/pico/pico-sdk/src/common/pico_util/pheap.c.obj
 .debug_aranges
                0x00000678       0x70 CMakeFiles/AHT20.dir/C_/VSARM/sdk/pico/pico-sdk/src/rp2_common/hardware_clocks/clocks.c.obj
 .debug_aranges
                0x000006e8       0x28 CMakeFiles/AHT20.dir/C_/VSARM/sdk/pico/pico-sdk/src/rp2_common/hardware_pll/pll.c.obj
 .debug_aranges
                0x00000710       0x58 CMakeFiles/AHT20.dir/C_/VSARM/sdk/pico/pico-sdk/src/rp2_common/hardware_watchdog/watchdog.c.obj
 .debug_aranges
                0x00000768       0x30 CMakeFiles/AHT20.dir/C_/VSARM/sdk/pico/pico-sdk/src/rp2_common/hardware_xosc/xosc.c.obj
 .debug_aranges
                0x00000798       0x98 CMakeFiles/AHT20.dir/C_/VSARM/sdk/pico/pico-sdk/src/rp2_common/pico_runtime/runtime.c.obj
 .debug_aranges
                0x00000830       0x90 CMakeFiles/AHT20.dir/C_/VSARM/sdk/pico/pico-sdk/src/rp2_common/pico_printf/printf.c.obj
 .debug_aranges
                0x000008c0       0x68 CMakeFiles/AHT20.dir/C_/VSARM/sdk/pico/pico-sdk/src/rp2_common/pico_bit_ops/bit_ops_aeabi.S.obj
 .debug_aranges
                0x00000928       0x30 CMakeFiles/AHT20.dir/C_/VSARM/sdk/pico/pico-sdk/src/rp2_common/pico_bootrom/bootrom.c.obj
 .debug_aranges
                0x00000958       0x40 CMakeFiles/AHT20.dir/C_/VSARM/sdk/pico/pico-sdk/src/rp2_common/pico_divider/divider.S.obj
 .debug_aranges
                0x00000998      0x140 CMakeFiles/AHT20.dir/C_/VSARM/sdk/pico/pico-sdk/src/rp2_common/pico_double/double_aeabi.S.obj
 .debug_aranges
                0x00000ad8       0x28 CMakeFiles/AHT20.dir/C_/VSARM/sdk/pico/pico-sdk/src/rp2_common/pico_double/double_init_rom.c.obj
 .debug_aranges
                0x00000b00       0x20 CMakeFiles/AHT20.dir/C_/VSARM/sdk/pico/pico-sdk/src/rp2_common/pico_double/double_v1_rom_shim.S.obj
 .debug_aranges
                0x00000b20       0x20 CMakeFiles/AHT20.dir/C_/VSARM/sdk/pico/pico-sdk/src/rp2_common/pico_int64_ops/pico_int64_ops_aeabi.S.obj
 .debug_aranges
                0x00000b40      0x130 CMakeFiles/AHT20.dir/C_/VSARM/sdk/pico/pico-sdk/src/rp2_common/pico_float/float_aeabi.S.obj
 .debug_aranges
                0x00000c70       0x28 CMakeFiles/AHT20.dir/C_/VSARM/sdk/pico/pico-sdk/src/rp2_common/pico_float/float_init_rom.c.obj
 .debug_aranges
                0x00000c98       0x38 CMakeFiles/AHT20.dir/C_/VSARM/sdk/pico/pico-sdk/src/rp2_common/pico_mem_ops/mem_ops_aeabi.S.obj
 .debug_aranges
                0x00000cd0       0x28 CMakeFiles/AHT20.dir/C_/VSARM/sdk/pico/pico-sdk/src/rp2_common/pico_standard_link/crt0.S.obj
 .debug_aranges
                0x00000cf8       0x18 CMakeFiles/AHT20.dir/C_/VSARM/sdk/pico/pico-sdk/src/rp2_common/pico_standard_link/binary_info.c.obj
 .debug_aranges
                0x00000d10      0x138 CMakeFiles/AHT20.dir/C_/VSARM/sdk/pico/pico-sdk/src/rp2_common/pico_stdio/stdio.c.obj
 .debug_aranges
                0x00000e48       0x58 CMakeFiles/AHT20.dir/C_/VSARM/sdk/pico/pico-sdk/src/rp2_common/pico_stdio_usb/reset_interface.c.obj
 .debug_aranges
                0x00000ea0       0xa0 CMakeFiles/AHT20.dir/C_/VSARM/sdk/pico/pico-sdk/src/rp2_common/pico_stdio_usb/stdio_usb.c.obj
 .debug_aranges
                0x00000f40       0x30 CMakeFiles/AHT20.dir/C_/VSARM/sdk/pico/pico-sdk/src/rp2_common/pico_stdio_usb/stdio_usb_descriptors.c.obj
 .debug_aranges
                0x00000f70       0x30 CMakeFiles/AHT20.dir/C_/VSARM/sdk/pico/pico-sdk/src/rp2_common/pico_unique_id/unique_id.c.obj
 .debug_aranges
                0x00000fa0       0x50 CMakeFiles/AHT20.dir/C_/VSARM/sdk/pico/pico-sdk/src/rp2_common/hardware_flash/flash.c.obj
 .debug_aranges
                0x00000ff0       0xe8 CMakeFiles/AHT20.dir/C_/VSARM/sdk/pico/pico-sdk/lib/tinyusb/src/portable/raspberrypi/rp2040/dcd_rp2040.c.obj
 .debug_aranges
                0x000010d8       0x70 CMakeFiles/AHT20.dir/C_/VSARM/sdk/pico/pico-sdk/lib/tinyusb/src/portable/raspberrypi/rp2040/rp2040_usb.c.obj
 .debug_aranges
                0x00001148      0x120 CMakeFiles/AHT20.dir/C_/VSARM/sdk/pico/pico-sdk/lib/tinyusb/src/device/usbd.c.obj
 .debug_aranges
                0x00001268       0x58 CMakeFiles/AHT20.dir/C_/VSARM/sdk/pico/pico-sdk/lib/tinyusb/src/device/usbd_control.c.obj
 .debug_aranges
                0x000012c0       0xa8 CMakeFiles/AHT20.dir/C_/VSARM/sdk/pico/pico-sdk/lib/tinyusb/src/class/cdc/cdc_device.c.obj
 .debug_aranges
                0x00001368       0x98 CMakeFiles/AHT20.dir/C_/VSARM/sdk/pico/pico-sdk/lib/tinyusb/src/tusb.c.obj
 .debug_aranges
                0x00001400      0x108 CMakeFiles/AHT20.dir/C_/VSARM/sdk/pico/pico-sdk/lib/tinyusb/src/common/tusb_fifo.c.obj

.debug_rnglists
                0x00000000     0x1503
 .debug_rnglists
                0x00000000       0x19 CMakeFiles/AHT20.dir/main.cpp.obj
 .debug_rnglists
                0x00000019       0x2b CMakeFiles/AHT20.dir/BUZZER/Buzzer.cpp.obj
 .debug_rnglists
                0x00000044       0xec CMakeFiles/AHT20.dir/C_/VSARM/sdk/pico/pico-sdk/src/rp2_common/hardware_gpio/gpio.c.obj
 .debug_rnglists
                0x00000130       0x19 CMakeFiles/AHT20.dir/C_/VSARM/sdk/pico/pico-sdk/src/rp2_common/pico_platform/platform.c.obj
 .debug_rnglists
                0x00000149       0x31 CMakeFiles/AHT20.dir/C_/VSARM/sdk/pico/pico-sdk/src/rp2_common/hardware_claim/claim.c.obj
 .debug_rnglists
                0x0000017a       0x3d CMakeFiles/AHT20.dir/C_/VSARM/sdk/pico/pico-sdk/src/rp2_common/hardware_sync/sync.c.obj
 .debug_rnglists
                0x000001b7       0xf0 CMakeFiles/AHT20.dir/C_/VSARM/sdk/pico/pico-sdk/src/rp2_common/hardware_irq/irq.c.obj
 .debug_rnglists
                0x000002a7       0x13 CMakeFiles/AHT20.dir/C_/VSARM/sdk/pico/pico-sdk/src/common/pico_sync/lock_core.c.obj
 .debug_rnglists
                0x000002ba       0xcf CMakeFiles/AHT20.dir/C_/VSARM/sdk/pico/pico-sdk/src/common/pico_sync/mutex.c.obj
 .debug_rnglists
                0x00000389       0x1f CMakeFiles/AHT20.dir/C_/VSARM/sdk/pico/pico-sdk/src/common/pico_sync/critical_section.c.obj
 .debug_rnglists
                0x000003a8      0x17a CMakeFiles/AHT20.dir/C_/VSARM/sdk/pico/pico-sdk/src/common/pico_time/time.c.obj
 .debug_rnglists
                0x00000522       0x6a CMakeFiles/AHT20.dir/C_/VSARM/sdk/pico/pico-sdk/src/rp2_common/hardware_timer/timer.c.obj
 .debug_rnglists
                0x0000058c       0x8e CMakeFiles/AHT20.dir/C_/VSARM/sdk/pico/pico-sdk/src/common/pico_util/pheap.c.obj
 .debug_rnglists
                0x0000061a       0x51 CMakeFiles/AHT20.dir/C_/VSARM/sdk/pico/pico-sdk/src/rp2_common/hardware_clocks/clocks.c.obj
 .debug_rnglists
                0x0000066b       0x1a CMakeFiles/AHT20.dir/C_/VSARM/sdk/pico/pico-sdk/src/rp2_common/hardware_pll/pll.c.obj
 .debug_rnglists
                0x00000685       0x3d CMakeFiles/AHT20.dir/C_/VSARM/sdk/pico/pico-sdk/src/rp2_common/hardware_watchdog/watchdog.c.obj
 .debug_rnglists
                0x000006c2       0x1f CMakeFiles/AHT20.dir/C_/VSARM/sdk/pico/pico-sdk/src/rp2_common/hardware_xosc/xosc.c.obj
 .debug_rnglists
                0x000006e1       0x7a CMakeFiles/AHT20.dir/C_/VSARM/sdk/pico/pico-sdk/src/rp2_common/pico_runtime/runtime.c.obj
 .debug_rnglists
                0x0000075b       0xc2 CMakeFiles/AHT20.dir/C_/VSARM/sdk/pico/pico-sdk/src/rp2_common/pico_printf/printf.c.obj
 .debug_rnglists
                0x0000081d       0x49 CMakeFiles/AHT20.dir/C_/VSARM/sdk/pico/pico-sdk/src/rp2_common/pico_bit_ops/bit_ops_aeabi.S.obj
 .debug_rnglists
                0x00000866       0x2b CMakeFiles/AHT20.dir/C_/VSARM/sdk/pico/pico-sdk/src/rp2_common/pico_bootrom/bootrom.c.obj
 .debug_rnglists
                0x00000891       0x2c CMakeFiles/AHT20.dir/C_/VSARM/sdk/pico/pico-sdk/src/rp2_common/pico_divider/divider.S.obj
 .debug_rnglists
                0x000008bd       0xec CMakeFiles/AHT20.dir/C_/VSARM/sdk/pico/pico-sdk/src/rp2_common/pico_double/double_aeabi.S.obj
 .debug_rnglists
                0x000009a9       0x27 CMakeFiles/AHT20.dir/C_/VSARM/sdk/pico/pico-sdk/src/rp2_common/pico_double/double_init_rom.c.obj
 .debug_rnglists
                0x000009d0       0xdf CMakeFiles/AHT20.dir/C_/VSARM/sdk/pico/pico-sdk/src/rp2_common/pico_float/float_aeabi.S.obj
 .debug_rnglists
                0x00000aaf       0x1a CMakeFiles/AHT20.dir/C_/VSARM/sdk/pico/pico-sdk/src/rp2_common/pico_float/float_init_rom.c.obj
 .debug_rnglists
                0x00000ac9       0x25 CMakeFiles/AHT20.dir/C_/VSARM/sdk/pico/pico-sdk/src/rp2_common/pico_mem_ops/mem_ops_aeabi.S.obj
 .debug_rnglists
                0x00000aee       0x1b CMakeFiles/AHT20.dir/C_/VSARM/sdk/pico/pico-sdk/src/rp2_common/pico_standard_link/crt0.S.obj
 .debug_rnglists
                0x00000b09      0x117 CMakeFiles/AHT20.dir/C_/VSARM/sdk/pico/pico-sdk/src/rp2_common/pico_stdio/stdio.c.obj
 .debug_rnglists
                0x00000c20       0x3d CMakeFiles/AHT20.dir/C_/VSARM/sdk/pico/pico-sdk/src/rp2_common/pico_stdio_usb/reset_interface.c.obj
 .debug_rnglists
                0x00000c5d       0x83 CMakeFiles/AHT20.dir/C_/VSARM/sdk/pico/pico-sdk/src/rp2_common/pico_stdio_usb/stdio_usb.c.obj
 .debug_rnglists
                0x00000ce0       0x1f CMakeFiles/AHT20.dir/C_/VSARM/sdk/pico/pico-sdk/src/rp2_common/pico_stdio_usb/stdio_usb_descriptors.c.obj
 .debug_rnglists
                0x00000cff       0x2b CMakeFiles/AHT20.dir/C_/VSARM/sdk/pico/pico-sdk/src/rp2_common/pico_unique_id/unique_id.c.obj
 .debug_rnglists
                0x00000d2a       0x46 CMakeFiles/AHT20.dir/C_/VSARM/sdk/pico/pico-sdk/src/rp2_common/hardware_flash/flash.c.obj
 .debug_rnglists
                0x00000d70      0x102 CMakeFiles/AHT20.dir/C_/VSARM/sdk/pico/pico-sdk/lib/tinyusb/src/portable/raspberrypi/rp2040/dcd_rp2040.c.obj
 .debug_rnglists
                0x00000e72       0x4f CMakeFiles/AHT20.dir/C_/VSARM/sdk/pico/pico-sdk/lib/tinyusb/src/portable/raspberrypi/rp2040/rp2040_usb.c.obj
 .debug_rnglists
                0x00000ec1      0x259 CMakeFiles/AHT20.dir/C_/VSARM/sdk/pico/pico-sdk/lib/tinyusb/src/device/usbd.c.obj
 .debug_rnglists
                0x0000111a       0x3e CMakeFiles/AHT20.dir/C_/VSARM/sdk/pico/pico-sdk/lib/tinyusb/src/device/usbd_control.c.obj
 .debug_rnglists
                0x00001158       0xc7 CMakeFiles/AHT20.dir/C_/VSARM/sdk/pico/pico-sdk/lib/tinyusb/src/class/cdc/cdc_device.c.obj
 .debug_rnglists
                0x0000121f       0xe0 CMakeFiles/AHT20.dir/C_/VSARM/sdk/pico/pico-sdk/lib/tinyusb/src/tusb.c.obj
 .debug_rnglists
                0x000012ff      0x204 CMakeFiles/AHT20.dir/C_/VSARM/sdk/pico/pico-sdk/lib/tinyusb/src/common/tusb_fifo.c.obj

.debug_line     0x00000000    0x15085
 .debug_line    0x00000000      0x483 CMakeFiles/AHT20.dir/main.cpp.obj
 .debug_line    0x00000483      0x59a CMakeFiles/AHT20.dir/BUZZER/Buzzer.cpp.obj
 .debug_line    0x00000a1d      0xbca CMakeFiles/AHT20.dir/C_/VSARM/sdk/pico/pico-sdk/src/rp2_common/hardware_gpio/gpio.c.obj
 .debug_line    0x000015e7      0x25b CMakeFiles/AHT20.dir/C_/VSARM/sdk/pico/pico-sdk/src/rp2_common/pico_platform/platform.c.obj
 .debug_line    0x00001842      0x42d CMakeFiles/AHT20.dir/C_/VSARM/sdk/pico/pico-sdk/src/rp2_common/hardware_claim/claim.c.obj
 .debug_line    0x00001c6f      0x433 CMakeFiles/AHT20.dir/C_/VSARM/sdk/pico/pico-sdk/src/rp2_common/hardware_sync/sync.c.obj
 .debug_line    0x000020a2      0xf2c CMakeFiles/AHT20.dir/C_/VSARM/sdk/pico/pico-sdk/src/rp2_common/hardware_irq/irq.c.obj
 .debug_line    0x00002fce      0x204 CMakeFiles/AHT20.dir/C_/VSARM/sdk/pico/pico-sdk/src/common/pico_sync/lock_core.c.obj
 .debug_line    0x000031d2      0xf93 CMakeFiles/AHT20.dir/C_/VSARM/sdk/pico/pico-sdk/src/common/pico_sync/mutex.c.obj
 .debug_line    0x00004165      0x28e CMakeFiles/AHT20.dir/C_/VSARM/sdk/pico/pico-sdk/src/common/pico_sync/critical_section.c.obj
 .debug_line    0x000043f3     0x1769 CMakeFiles/AHT20.dir/C_/VSARM/sdk/pico/pico-sdk/src/common/pico_time/time.c.obj
 .debug_line    0x00005b5c      0xb51 CMakeFiles/AHT20.dir/C_/VSARM/sdk/pico/pico-sdk/src/rp2_common/hardware_timer/timer.c.obj
 .debug_line    0x000066ad      0x75f CMakeFiles/AHT20.dir/C_/VSARM/sdk/pico/pico-sdk/src/common/pico_util/pheap.c.obj
 .debug_line    0x00006e0c      0x975 CMakeFiles/AHT20.dir/C_/VSARM/sdk/pico/pico-sdk/src/rp2_common/hardware_clocks/clocks.c.obj
 .debug_line    0x00007781      0x521 CMakeFiles/AHT20.dir/C_/VSARM/sdk/pico/pico-sdk/src/rp2_common/hardware_pll/pll.c.obj
 .debug_line    0x00007ca2      0x426 CMakeFiles/AHT20.dir/C_/VSARM/sdk/pico/pico-sdk/src/rp2_common/hardware_watchdog/watchdog.c.obj
 .debug_line    0x000080c8      0x27c CMakeFiles/AHT20.dir/C_/VSARM/sdk/pico/pico-sdk/src/rp2_common/hardware_xosc/xosc.c.obj
 .debug_line    0x00008344      0xa5b CMakeFiles/AHT20.dir/C_/VSARM/sdk/pico/pico-sdk/src/rp2_common/pico_runtime/runtime.c.obj
 .debug_line    0x00008d9f     0x124d CMakeFiles/AHT20.dir/C_/VSARM/sdk/pico/pico-sdk/src/rp2_common/pico_printf/printf.c.obj
 .debug_line    0x00009fec      0x11a CMakeFiles/AHT20.dir/C_/VSARM/sdk/pico/pico-sdk/src/rp2_common/pico_bit_ops/bit_ops_aeabi.S.obj
 .debug_line    0x0000a106      0x23f CMakeFiles/AHT20.dir/C_/VSARM/sdk/pico/pico-sdk/src/rp2_common/pico_bootrom/bootrom.c.obj
 .debug_line    0x0000a345      0x2a9 CMakeFiles/AHT20.dir/C_/VSARM/sdk/pico/pico-sdk/src/rp2_common/pico_divider/divider.S.obj
 .debug_line    0x0000a5ee      0x3f5 CMakeFiles/AHT20.dir/C_/VSARM/sdk/pico/pico-sdk/src/rp2_common/pico_double/double_aeabi.S.obj
 .debug_line    0x0000a9e3      0x36a CMakeFiles/AHT20.dir/C_/VSARM/sdk/pico/pico-sdk/src/rp2_common/pico_double/double_init_rom.c.obj
 .debug_line    0x0000ad4d       0x60 CMakeFiles/AHT20.dir/C_/VSARM/sdk/pico/pico-sdk/src/rp2_common/pico_double/double_v1_rom_shim.S.obj
 .debug_line    0x0000adad       0x61 CMakeFiles/AHT20.dir/C_/VSARM/sdk/pico/pico-sdk/src/rp2_common/pico_int64_ops/pico_int64_ops_aeabi.S.obj
 .debug_line    0x0000ae0e      0x3a6 CMakeFiles/AHT20.dir/C_/VSARM/sdk/pico/pico-sdk/src/rp2_common/pico_float/float_aeabi.S.obj
 .debug_line    0x0000b1b4      0x342 CMakeFiles/AHT20.dir/C_/VSARM/sdk/pico/pico-sdk/src/rp2_common/pico_float/float_init_rom.c.obj
 .debug_line    0x0000b4f6       0x94 CMakeFiles/AHT20.dir/C_/VSARM/sdk/pico/pico-sdk/src/rp2_common/pico_mem_ops/mem_ops_aeabi.S.obj
 .debug_line    0x0000b58a       0xa5 CMakeFiles/AHT20.dir/C_/VSARM/sdk/pico/pico-sdk/src/rp2_common/pico_standard_link/crt0.S.obj
 .debug_line    0x0000b62f      0x1a3 CMakeFiles/AHT20.dir/C_/VSARM/sdk/pico/pico-sdk/src/rp2_common/pico_standard_link/binary_info.c.obj
 .debug_line    0x0000b7d2      0xe20 CMakeFiles/AHT20.dir/C_/VSARM/sdk/pico/pico-sdk/src/rp2_common/pico_stdio/stdio.c.obj
 .debug_line    0x0000c5f2      0x46e CMakeFiles/AHT20.dir/C_/VSARM/sdk/pico/pico-sdk/src/rp2_common/pico_stdio_usb/reset_interface.c.obj
 .debug_line    0x0000ca60      0xc6f CMakeFiles/AHT20.dir/C_/VSARM/sdk/pico/pico-sdk/src/rp2_common/pico_stdio_usb/stdio_usb.c.obj
 .debug_line    0x0000d6cf      0x304 CMakeFiles/AHT20.dir/C_/VSARM/sdk/pico/pico-sdk/src/rp2_common/pico_stdio_usb/stdio_usb_descriptors.c.obj
 .debug_line    0x0000d9d3      0x361 CMakeFiles/AHT20.dir/C_/VSARM/sdk/pico/pico-sdk/src/rp2_common/pico_unique_id/unique_id.c.obj
 .debug_line    0x0000dd34      0x876 CMakeFiles/AHT20.dir/C_/VSARM/sdk/pico/pico-sdk/src/rp2_common/hardware_flash/flash.c.obj
 .debug_line    0x0000e5aa      0xe6d CMakeFiles/AHT20.dir/C_/VSARM/sdk/pico/pico-sdk/lib/tinyusb/src/portable/raspberrypi/rp2040/dcd_rp2040.c.obj
 .debug_line    0x0000f417      0xa28 CMakeFiles/AHT20.dir/C_/VSARM/sdk/pico/pico-sdk/lib/tinyusb/src/portable/raspberrypi/rp2040/rp2040_usb.c.obj
 .debug_line    0x0000fe3f     0x1e36 CMakeFiles/AHT20.dir/C_/VSARM/sdk/pico/pico-sdk/lib/tinyusb/src/device/usbd.c.obj
 .debug_line    0x00011c75      0x4eb CMakeFiles/AHT20.dir/C_/VSARM/sdk/pico/pico-sdk/lib/tinyusb/src/device/usbd_control.c.obj
 .debug_line    0x00012160      0xdc5 CMakeFiles/AHT20.dir/C_/VSARM/sdk/pico/pico-sdk/lib/tinyusb/src/class/cdc/cdc_device.c.obj
 .debug_line    0x00012f25      0xb65 CMakeFiles/AHT20.dir/C_/VSARM/sdk/pico/pico-sdk/lib/tinyusb/src/tusb.c.obj
 .debug_line    0x00013a8a     0x15fb CMakeFiles/AHT20.dir/C_/VSARM/sdk/pico/pico-sdk/lib/tinyusb/src/common/tusb_fifo.c.obj

.debug_str      0x00000000     0x72af
 .debug_str     0x00000000      0x3ce CMakeFiles/AHT20.dir/main.cpp.obj
                                0x453 (size before relaxing)
 .debug_str     0x000003ce      0x365 CMakeFiles/AHT20.dir/BUZZER/Buzzer.cpp.obj
                                0x5f1 (size before relaxing)
 .debug_str     0x00000733      0x782 CMakeFiles/AHT20.dir/C_/VSARM/sdk/pico/pico-sdk/src/rp2_common/hardware_gpio/gpio.c.obj
                                0x9fd (size before relaxing)
 .debug_str     0x00000eb5       0x81 CMakeFiles/AHT20.dir/C_/VSARM/sdk/pico/pico-sdk/src/rp2_common/pico_platform/platform.c.obj
                                0x224 (size before relaxing)
 .debug_str     0x00000f36      0x1bc CMakeFiles/AHT20.dir/C_/VSARM/sdk/pico/pico-sdk/src/rp2_common/hardware_claim/claim.c.obj
                                0x368 (size before relaxing)
 .debug_str     0x000010f2       0xec CMakeFiles/AHT20.dir/C_/VSARM/sdk/pico/pico-sdk/src/rp2_common/hardware_sync/sync.c.obj
                                0x34f (size before relaxing)
 .debug_str     0x000011de      0x439 CMakeFiles/AHT20.dir/C_/VSARM/sdk/pico/pico-sdk/src/rp2_common/hardware_irq/irq.c.obj
                                0x81d (size before relaxing)
 .debug_str     0x00001617       0x5c CMakeFiles/AHT20.dir/C_/VSARM/sdk/pico/pico-sdk/src/common/pico_sync/lock_core.c.obj
                                0x205 (size before relaxing)
 .debug_str     0x00001673      0x25f CMakeFiles/AHT20.dir/C_/VSARM/sdk/pico/pico-sdk/src/common/pico_sync/mutex.c.obj
                                0x5f7 (size before relaxing)
 .debug_str     0x000018d2       0xcb CMakeFiles/AHT20.dir/C_/VSARM/sdk/pico/pico-sdk/src/common/pico_sync/critical_section.c.obj
                                0x2c5 (size before relaxing)
 .debug_str     0x0000199d      0x72a CMakeFiles/AHT20.dir/C_/VSARM/sdk/pico/pico-sdk/src/common/pico_time/time.c.obj
                                0xc7a (size before relaxing)
 .debug_str     0x000020c7      0x131 CMakeFiles/AHT20.dir/C_/VSARM/sdk/pico/pico-sdk/src/rp2_common/hardware_timer/timer.c.obj
                                0x72f (size before relaxing)
 .debug_str     0x000021f8       0xe6 CMakeFiles/AHT20.dir/C_/VSARM/sdk/pico/pico-sdk/src/common/pico_util/pheap.c.obj
                                0x3f5 (size before relaxing)
 .debug_str     0x000022de      0x330 CMakeFiles/AHT20.dir/C_/VSARM/sdk/pico/pico-sdk/src/rp2_common/hardware_clocks/clocks.c.obj
                                0x6cc (size before relaxing)
 .debug_str     0x0000260e       0xc3 CMakeFiles/AHT20.dir/C_/VSARM/sdk/pico/pico-sdk/src/rp2_common/hardware_pll/pll.c.obj
                                0x2e0 (size before relaxing)
 .debug_str     0x000026d1      0x11f CMakeFiles/AHT20.dir/C_/VSARM/sdk/pico/pico-sdk/src/rp2_common/hardware_watchdog/watchdog.c.obj
                                0x326 (size before relaxing)
 .debug_str     0x000027f0       0x6b CMakeFiles/AHT20.dir/C_/VSARM/sdk/pico/pico-sdk/src/rp2_common/hardware_xosc/xosc.c.obj
                                0x223 (size before relaxing)
 .debug_str     0x0000285b      0x2db CMakeFiles/AHT20.dir/C_/VSARM/sdk/pico/pico-sdk/src/rp2_common/pico_runtime/runtime.c.obj
                                0x7e6 (size before relaxing)
 .debug_str     0x00002b36      0x261 CMakeFiles/AHT20.dir/C_/VSARM/sdk/pico/pico-sdk/src/rp2_common/pico_printf/printf.c.obj
                                0x484 (size before relaxing)
 .debug_str     0x00002d97       0x55 CMakeFiles/AHT20.dir/C_/VSARM/sdk/pico/pico-sdk/src/rp2_common/pico_bit_ops/bit_ops_aeabi.S.obj
                                 0x7f (size before relaxing)
 .debug_str     0x00002dec       0xe1 CMakeFiles/AHT20.dir/C_/VSARM/sdk/pico/pico-sdk/src/rp2_common/pico_bootrom/bootrom.c.obj
                                0x27b (size before relaxing)
 .debug_str     0x00002ecd       0x41 CMakeFiles/AHT20.dir/C_/VSARM/sdk/pico/pico-sdk/src/rp2_common/pico_divider/divider.S.obj
                                 0x79 (size before relaxing)
 .debug_str     0x00002f0e       0x45 CMakeFiles/AHT20.dir/C_/VSARM/sdk/pico/pico-sdk/src/rp2_common/pico_double/double_aeabi.S.obj
                                 0x7d (size before relaxing)
 .debug_str     0x00002f53       0xd6 CMakeFiles/AHT20.dir/C_/VSARM/sdk/pico/pico-sdk/src/rp2_common/pico_double/double_init_rom.c.obj
                                0x2dd (size before relaxing)
 .debug_str     0x00003029       0x4b CMakeFiles/AHT20.dir/C_/VSARM/sdk/pico/pico-sdk/src/rp2_common/pico_double/double_v1_rom_shim.S.obj
                                 0x83 (size before relaxing)
 .debug_str     0x00003074       0x50 CMakeFiles/AHT20.dir/C_/VSARM/sdk/pico/pico-sdk/src/rp2_common/pico_int64_ops/pico_int64_ops_aeabi.S.obj
                                 0x88 (size before relaxing)
 .debug_str     0x000030c4       0x43 CMakeFiles/AHT20.dir/C_/VSARM/sdk/pico/pico-sdk/src/rp2_common/pico_float/float_aeabi.S.obj
                                 0x7b (size before relaxing)
 .debug_str     0x00003107       0x7a CMakeFiles/AHT20.dir/C_/VSARM/sdk/pico/pico-sdk/src/rp2_common/pico_float/float_init_rom.c.obj
                                0x2a5 (size before relaxing)
 .debug_str     0x00003181       0x47 CMakeFiles/AHT20.dir/C_/VSARM/sdk/pico/pico-sdk/src/rp2_common/pico_mem_ops/mem_ops_aeabi.S.obj
                                 0x7f (size before relaxing)
 .debug_str     0x000031c8       0x44 CMakeFiles/AHT20.dir/C_/VSARM/sdk/pico/pico-sdk/src/rp2_common/pico_standard_link/crt0.S.obj
                                 0x7c (size before relaxing)
 .debug_str     0x0000320c      0x244 CMakeFiles/AHT20.dir/C_/VSARM/sdk/pico/pico-sdk/src/rp2_common/pico_standard_link/binary_info.c.obj
                                0x3e6 (size before relaxing)
 .debug_str     0x00003450      0x4ac CMakeFiles/AHT20.dir/C_/VSARM/sdk/pico/pico-sdk/src/rp2_common/pico_stdio/stdio.c.obj
                                0x9d0 (size before relaxing)
 .debug_str     0x000038fc      0x54e CMakeFiles/AHT20.dir/C_/VSARM/sdk/pico/pico-sdk/src/rp2_common/pico_stdio_usb/reset_interface.c.obj
                                0x76a (size before relaxing)
 .debug_str     0x00003e4a      0x363 CMakeFiles/AHT20.dir/C_/VSARM/sdk/pico/pico-sdk/src/rp2_common/pico_stdio_usb/stdio_usb.c.obj
                                0xb23 (size before relaxing)
 .debug_str     0x000041ad      0xae2 CMakeFiles/AHT20.dir/C_/VSARM/sdk/pico/pico-sdk/src/rp2_common/pico_stdio_usb/stdio_usb_descriptors.c.obj
                                0xe5a (size before relaxing)
 .debug_str     0x00004c8f       0xc0 CMakeFiles/AHT20.dir/C_/VSARM/sdk/pico/pico-sdk/src/rp2_common/pico_unique_id/unique_id.c.obj
                                0x277 (size before relaxing)
 .debug_str     0x00004d4f      0x30e CMakeFiles/AHT20.dir/C_/VSARM/sdk/pico/pico-sdk/src/rp2_common/hardware_flash/flash.c.obj
                                0x617 (size before relaxing)
 .debug_str     0x0000505d      0xa1b CMakeFiles/AHT20.dir/C_/VSARM/sdk/pico/pico-sdk/lib/tinyusb/src/portable/raspberrypi/rp2040/dcd_rp2040.c.obj
                                0xec9 (size before relaxing)
 .debug_str     0x00005a78      0x145 CMakeFiles/AHT20.dir/C_/VSARM/sdk/pico/pico-sdk/lib/tinyusb/src/portable/raspberrypi/rp2040/rp2040_usb.c.obj
                                0x81c (size before relaxing)
 .debug_str     0x00005bbd      0x97b CMakeFiles/AHT20.dir/C_/VSARM/sdk/pico/pico-sdk/lib/tinyusb/src/device/usbd.c.obj
                               0x1742 (size before relaxing)
 .debug_str     0x00006538       0xd4 CMakeFiles/AHT20.dir/C_/VSARM/sdk/pico/pico-sdk/lib/tinyusb/src/device/usbd_control.c.obj
                                0x526 (size before relaxing)
 .debug_str     0x0000660c      0x6db CMakeFiles/AHT20.dir/C_/VSARM/sdk/pico/pico-sdk/lib/tinyusb/src/class/cdc/cdc_device.c.obj
                               0x151b (size before relaxing)
 .debug_str     0x00006ce7      0x219 CMakeFiles/AHT20.dir/C_/VSARM/sdk/pico/pico-sdk/lib/tinyusb/src/tusb.c.obj
                                0xacd (size before relaxing)
 .debug_str     0x00006f00      0x3af CMakeFiles/AHT20.dir/C_/VSARM/sdk/pico/pico-sdk/lib/tinyusb/src/common/tusb_fifo.c.obj
                                0x756 (size before relaxing)

.debug_frame    0x00000000     0x2ed4
 .debug_frame   0x00000000       0x40 CMakeFiles/AHT20.dir/main.cpp.obj
 .debug_frame   0x00000040       0x90 CMakeFiles/AHT20.dir/BUZZER/Buzzer.cpp.obj
 .debug_frame   0x000000d0      0x278 CMakeFiles/AHT20.dir/C_/VSARM/sdk/pico/pico-sdk/src/rp2_common/hardware_gpio/gpio.c.obj
 .debug_frame   0x00000348       0x38 CMakeFiles/AHT20.dir/C_/VSARM/sdk/pico/pico-sdk/src/rp2_common/pico_platform/platform.c.obj
 .debug_frame   0x00000380       0x9c CMakeFiles/AHT20.dir/C_/VSARM/sdk/pico/pico-sdk/src/rp2_common/hardware_claim/claim.c.obj
 .debug_frame   0x0000041c       0xc8 CMakeFiles/AHT20.dir/C_/VSARM/sdk/pico/pico-sdk/src/rp2_common/hardware_sync/sync.c.obj
 .debug_frame   0x000004e4      0x228 CMakeFiles/AHT20.dir/C_/VSARM/sdk/pico/pico-sdk/src/rp2_common/hardware_irq/irq.c.obj
 .debug_frame   0x0000070c       0x20 CMakeFiles/AHT20.dir/C_/VSARM/sdk/pico/pico-sdk/src/common/pico_sync/lock_core.c.obj
 .debug_frame   0x0000072c      0x254 CMakeFiles/AHT20.dir/C_/VSARM/sdk/pico/pico-sdk/src/common/pico_sync/mutex.c.obj
 .debug_frame   0x00000980       0x50 CMakeFiles/AHT20.dir/C_/VSARM/sdk/pico/pico-sdk/src/common/pico_sync/critical_section.c.obj
 .debug_frame   0x000009d0      0x464 CMakeFiles/AHT20.dir/C_/VSARM/sdk/pico/pico-sdk/src/common/pico_time/time.c.obj
 .debug_frame   0x00000e34      0x17c CMakeFiles/AHT20.dir/C_/VSARM/sdk/pico/pico-sdk/src/rp2_common/hardware_timer/timer.c.obj
 .debug_frame   0x00000fb0      0x198 CMakeFiles/AHT20.dir/C_/VSARM/sdk/pico/pico-sdk/src/common/pico_util/pheap.c.obj
 .debug_frame   0x00001148      0x130 CMakeFiles/AHT20.dir/C_/VSARM/sdk/pico/pico-sdk/src/rp2_common/hardware_clocks/clocks.c.obj
 .debug_frame   0x00001278       0x44 CMakeFiles/AHT20.dir/C_/VSARM/sdk/pico/pico-sdk/src/rp2_common/hardware_pll/pll.c.obj
 .debug_frame   0x000012bc       0xa8 CMakeFiles/AHT20.dir/C_/VSARM/sdk/pico/pico-sdk/src/rp2_common/hardware_watchdog/watchdog.c.obj
 .debug_frame   0x00001364       0x40 CMakeFiles/AHT20.dir/C_/VSARM/sdk/pico/pico-sdk/src/rp2_common/hardware_xosc/xosc.c.obj
 .debug_frame   0x000013a4      0x18c CMakeFiles/AHT20.dir/C_/VSARM/sdk/pico/pico-sdk/src/rp2_common/pico_runtime/runtime.c.obj
 .debug_frame   0x00001530      0x1fc CMakeFiles/AHT20.dir/C_/VSARM/sdk/pico/pico-sdk/src/rp2_common/pico_printf/printf.c.obj
 .debug_frame   0x0000172c       0x64 CMakeFiles/AHT20.dir/C_/VSARM/sdk/pico/pico-sdk/src/rp2_common/pico_bootrom/bootrom.c.obj
 .debug_frame   0x00001790       0x44 CMakeFiles/AHT20.dir/C_/VSARM/sdk/pico/pico-sdk/src/rp2_common/pico_double/double_init_rom.c.obj
 .debug_frame   0x000017d4       0x44 CMakeFiles/AHT20.dir/C_/VSARM/sdk/pico/pico-sdk/src/rp2_common/pico_float/float_init_rom.c.obj
 .debug_frame   0x00001818      0x398 CMakeFiles/AHT20.dir/C_/VSARM/sdk/pico/pico-sdk/src/rp2_common/pico_stdio/stdio.c.obj
 .debug_frame   0x00001bb0       0xac CMakeFiles/AHT20.dir/C_/VSARM/sdk/pico/pico-sdk/src/rp2_common/pico_stdio_usb/reset_interface.c.obj
 .debug_frame   0x00001c5c      0x1e4 CMakeFiles/AHT20.dir/C_/VSARM/sdk/pico/pico-sdk/src/rp2_common/pico_stdio_usb/stdio_usb.c.obj
 .debug_frame   0x00001e40       0x48 CMakeFiles/AHT20.dir/C_/VSARM/sdk/pico/pico-sdk/src/rp2_common/pico_stdio_usb/stdio_usb_descriptors.c.obj
 .debug_frame   0x00001e88       0x58 CMakeFiles/AHT20.dir/C_/VSARM/sdk/pico/pico-sdk/src/rp2_common/pico_unique_id/unique_id.c.obj
 .debug_frame   0x00001ee0       0xe4 CMakeFiles/AHT20.dir/C_/VSARM/sdk/pico/pico-sdk/src/rp2_common/hardware_flash/flash.c.obj
 .debug_frame   0x00001fc4      0x288 CMakeFiles/AHT20.dir/C_/VSARM/sdk/pico/pico-sdk/lib/tinyusb/src/portable/raspberrypi/rp2040/dcd_rp2040.c.obj
 .debug_frame   0x0000224c      0x120 CMakeFiles/AHT20.dir/C_/VSARM/sdk/pico/pico-sdk/lib/tinyusb/src/portable/raspberrypi/rp2040/rp2040_usb.c.obj
 .debug_frame   0x0000236c      0x370 CMakeFiles/AHT20.dir/C_/VSARM/sdk/pico/pico-sdk/lib/tinyusb/src/device/usbd.c.obj
 .debug_frame   0x000026dc       0xe4 CMakeFiles/AHT20.dir/C_/VSARM/sdk/pico/pico-sdk/lib/tinyusb/src/device/usbd_control.c.obj
 .debug_frame   0x000027c0      0x1f4 CMakeFiles/AHT20.dir/C_/VSARM/sdk/pico/pico-sdk/lib/tinyusb/src/class/cdc/cdc_device.c.obj
 .debug_frame   0x000029b4      0x1bc CMakeFiles/AHT20.dir/C_/VSARM/sdk/pico/pico-sdk/lib/tinyusb/src/tusb.c.obj
 .debug_frame   0x00002b70      0x33c CMakeFiles/AHT20.dir/C_/VSARM/sdk/pico/pico-sdk/lib/tinyusb/src/common/tusb_fifo.c.obj
 .debug_frame   0x00002eac       0x28 c:/vsarm/armcc/125863~1.3re/bin/../lib/gcc/arm-none-eabi/12.3.1/thumb/v6-m/nofp\libg.a(libc_a-strlen-stub.o)

.debug_loclists
                0x00000000     0xd46f
 .debug_loclists
                0x00000000      0x310 CMakeFiles/AHT20.dir/BUZZER/Buzzer.cpp.obj
 .debug_loclists
                0x00000310      0x9c2 CMakeFiles/AHT20.dir/C_/VSARM/sdk/pico/pico-sdk/src/rp2_common/hardware_gpio/gpio.c.obj
 .debug_loclists
                0x00000cd2       0x9f CMakeFiles/AHT20.dir/C_/VSARM/sdk/pico/pico-sdk/src/rp2_common/pico_platform/platform.c.obj
 .debug_loclists
                0x00000d71      0x27b CMakeFiles/AHT20.dir/C_/VSARM/sdk/pico/pico-sdk/src/rp2_common/hardware_claim/claim.c.obj
 .debug_loclists
                0x00000fec      0x157 CMakeFiles/AHT20.dir/C_/VSARM/sdk/pico/pico-sdk/src/rp2_common/hardware_sync/sync.c.obj
 .debug_loclists
                0x00001143      0xc84 CMakeFiles/AHT20.dir/C_/VSARM/sdk/pico/pico-sdk/src/rp2_common/hardware_irq/irq.c.obj
 .debug_loclists
                0x00001dc7       0x4a CMakeFiles/AHT20.dir/C_/VSARM/sdk/pico/pico-sdk/src/common/pico_sync/lock_core.c.obj
 .debug_loclists
                0x00001e11      0x9bf CMakeFiles/AHT20.dir/C_/VSARM/sdk/pico/pico-sdk/src/common/pico_sync/mutex.c.obj
 .debug_loclists
                0x000027d0       0x9b CMakeFiles/AHT20.dir/C_/VSARM/sdk/pico/pico-sdk/src/common/pico_sync/critical_section.c.obj
 .debug_loclists
                0x0000286b     0x12c0 CMakeFiles/AHT20.dir/C_/VSARM/sdk/pico/pico-sdk/src/common/pico_time/time.c.obj
 .debug_loclists
                0x00003b2b      0x63d CMakeFiles/AHT20.dir/C_/VSARM/sdk/pico/pico-sdk/src/rp2_common/hardware_timer/timer.c.obj
 .debug_loclists
                0x00004168      0x690 CMakeFiles/AHT20.dir/C_/VSARM/sdk/pico/pico-sdk/src/common/pico_util/pheap.c.obj
 .debug_loclists
                0x000047f8      0x502 CMakeFiles/AHT20.dir/C_/VSARM/sdk/pico/pico-sdk/src/rp2_common/hardware_clocks/clocks.c.obj
 .debug_loclists
                0x00004cfa      0x1f0 CMakeFiles/AHT20.dir/C_/VSARM/sdk/pico/pico-sdk/src/rp2_common/hardware_pll/pll.c.obj
 .debug_loclists
                0x00004eea      0x1c7 CMakeFiles/AHT20.dir/C_/VSARM/sdk/pico/pico-sdk/src/rp2_common/hardware_watchdog/watchdog.c.obj
 .debug_loclists
                0x000050b1       0x48 CMakeFiles/AHT20.dir/C_/VSARM/sdk/pico/pico-sdk/src/rp2_common/hardware_xosc/xosc.c.obj
 .debug_loclists
                0x000050f9      0x373 CMakeFiles/AHT20.dir/C_/VSARM/sdk/pico/pico-sdk/src/rp2_common/pico_runtime/runtime.c.obj
 .debug_loclists
                0x0000546c     0x1640 CMakeFiles/AHT20.dir/C_/VSARM/sdk/pico/pico-sdk/src/rp2_common/pico_printf/printf.c.obj
 .debug_loclists
                0x00006aac      0x12f CMakeFiles/AHT20.dir/C_/VSARM/sdk/pico/pico-sdk/src/rp2_common/pico_bootrom/bootrom.c.obj
 .debug_loclists
                0x00006bdb       0x41 CMakeFiles/AHT20.dir/C_/VSARM/sdk/pico/pico-sdk/src/rp2_common/pico_double/double_init_rom.c.obj
 .debug_loclists
                0x00006c1c       0x58 CMakeFiles/AHT20.dir/C_/VSARM/sdk/pico/pico-sdk/src/rp2_common/pico_float/float_init_rom.c.obj
 .debug_loclists
                0x00006c74      0x7d6 CMakeFiles/AHT20.dir/C_/VSARM/sdk/pico/pico-sdk/src/rp2_common/pico_stdio/stdio.c.obj
 .debug_loclists
                0x0000744a      0x22e CMakeFiles/AHT20.dir/C_/VSARM/sdk/pico/pico-sdk/src/rp2_common/pico_stdio_usb/reset_interface.c.obj
 .debug_loclists
                0x00007678      0x4c1 CMakeFiles/AHT20.dir/C_/VSARM/sdk/pico/pico-sdk/src/rp2_common/pico_stdio_usb/stdio_usb.c.obj
 .debug_loclists
                0x00007b39       0xa9 CMakeFiles/AHT20.dir/C_/VSARM/sdk/pico/pico-sdk/src/rp2_common/pico_stdio_usb/stdio_usb_descriptors.c.obj
 .debug_loclists
                0x00007be2       0xa5 CMakeFiles/AHT20.dir/C_/VSARM/sdk/pico/pico-sdk/src/rp2_common/pico_unique_id/unique_id.c.obj
 .debug_loclists
                0x00007c87      0x63b CMakeFiles/AHT20.dir/C_/VSARM/sdk/pico/pico-sdk/src/rp2_common/hardware_flash/flash.c.obj
 .debug_loclists
                0x000082c2      0x901 CMakeFiles/AHT20.dir/C_/VSARM/sdk/pico/pico-sdk/lib/tinyusb/src/portable/raspberrypi/rp2040/dcd_rp2040.c.obj
 .debug_loclists
                0x00008bc3      0x491 CMakeFiles/AHT20.dir/C_/VSARM/sdk/pico/pico-sdk/lib/tinyusb/src/portable/raspberrypi/rp2040/rp2040_usb.c.obj
 .debug_loclists
                0x00009054     0x1493 CMakeFiles/AHT20.dir/C_/VSARM/sdk/pico/pico-sdk/lib/tinyusb/src/device/usbd.c.obj
 .debug_loclists
                0x0000a4e7      0x29b CMakeFiles/AHT20.dir/C_/VSARM/sdk/pico/pico-sdk/lib/tinyusb/src/device/usbd_control.c.obj
 .debug_loclists
                0x0000a782      0xb17 CMakeFiles/AHT20.dir/C_/VSARM/sdk/pico/pico-sdk/lib/tinyusb/src/class/cdc/cdc_device.c.obj
 .debug_loclists
                0x0000b299      0x81e CMakeFiles/AHT20.dir/C_/VSARM/sdk/pico/pico-sdk/lib/tinyusb/src/tusb.c.obj
 .debug_loclists
                0x0000bab7     0x19b8 CMakeFiles/AHT20.dir/C_/VSARM/sdk/pico/pico-sdk/lib/tinyusb/src/common/tusb_fifo.c.obj

.debug_line_str
                0x00000000      0x2f3
 .debug_line_str
                0x00000000       0x71 CMakeFiles/AHT20.dir/C_/VSARM/sdk/pico/pico-sdk/src/rp2_common/pico_bit_ops/bit_ops_aeabi.S.obj
 .debug_line_str
                0x00000071       0x41 CMakeFiles/AHT20.dir/C_/VSARM/sdk/pico/pico-sdk/src/rp2_common/pico_divider/divider.S.obj
                                 0x6b (size before relaxing)
 .debug_line_str
                0x000000b2       0x45 CMakeFiles/AHT20.dir/C_/VSARM/sdk/pico/pico-sdk/src/rp2_common/pico_double/double_aeabi.S.obj
                                 0x6f (size before relaxing)
 .debug_line_str
                0x000000f7       0x15 CMakeFiles/AHT20.dir/C_/VSARM/sdk/pico/pico-sdk/src/rp2_common/pico_double/double_v1_rom_shim.S.obj
                                 0x75 (size before relaxing)
 .debug_line_str
                0x0000010c       0x50 CMakeFiles/AHT20.dir/C_/VSARM/sdk/pico/pico-sdk/src/rp2_common/pico_int64_ops/pico_int64_ops_aeabi.S.obj
                                 0x7a (size before relaxing)
 .debug_line_str
                0x0000015c       0x43 CMakeFiles/AHT20.dir/C_/VSARM/sdk/pico/pico-sdk/src/rp2_common/pico_float/float_aeabi.S.obj
                                 0x6d (size before relaxing)
 .debug_line_str
                0x0000019f       0x47 CMakeFiles/AHT20.dir/C_/VSARM/sdk/pico/pico-sdk/src/rp2_common/pico_mem_ops/mem_ops_aeabi.S.obj
                                 0x71 (size before relaxing)
 .debug_line_str
                0x000001e6       0x44 CMakeFiles/AHT20.dir/C_/VSARM/sdk/pico/pico-sdk/src/rp2_common/pico_standard_link/crt0.S.obj
                                 0x6e (size before relaxing)
 .debug_line_str
                0x0000022a       0xc9 c:/vsarm/armcc/125863~1.3re/bin/../lib/gcc/arm-none-eabi/12.3.1/thumb/v6-m/nofp\libgcc.a(_dvmd_tls.o)
